
my.elf:     file format elf32-littleriscv


Disassembly of section .text.init:

80000000 <rvtest_entry_point>:
80000000:	feedc0b7          	lui	ra,0xfeedc
80000004:	ead08093          	addi	ra,ra,-339 # feedbead <imm12+0xfeedc6ad>
80000008:	ff76e137          	lui	sp,0xff76e
8000000c:	f5610113          	addi	sp,sp,-170 # ff76df56 <imm12+0xff76e756>
80000010:	7fbb71b7          	lui	gp,0x7fbb7
80000014:	fab18193          	addi	gp,gp,-85 # 7fbb6fab <absimm+0x7fbb67ab>
80000018:	bfddb237          	lui	tp,0xbfddb
8000001c:	7d520213          	addi	tp,tp,2005 # bfddb7d5 <imm12+0xbfddbfd5>
80000020:	00000297          	auipc	t0,0x0
80000024:	05828293          	addi	t0,t0,88 # 80000078 <rvtest_code_begin>
80000028:	00005317          	auipc	t1,0x5
8000002c:	fe830313          	addi	t1,t1,-24 # 80005010 <rvtest_data_begin>
80000030:	b7fbb3b7          	lui	t2,0xb7fbb
80000034:	6fa38393          	addi	t2,t2,1786 # b7fbb6fa <imm12+0xb7fbbefa>
80000038:	5bfde437          	lui	s0,0x5bfde
8000003c:	b7d40413          	addi	s0,s0,-1155 # 5bfddb7d <absimm+0x5bfdd37d>
80000040:	adfef4b7          	lui	s1,0xadfef
80000044:	dbe48493          	addi	s1,s1,-578 # adfeedbe <imm12+0xadfef5be>
80000048:	56ff7537          	lui	a0,0x56ff7
8000004c:	6df50513          	addi	a0,a0,1759 # 56ff76df <absimm+0x56ff6edf>
80000050:	ab7fc5b7          	lui	a1,0xab7fc
80000054:	b6f58593          	addi	a1,a1,-1169 # ab7fbb6f <imm12+0xab7fc36f>
80000058:	d5bfe637          	lui	a2,0xd5bfe
8000005c:	db760613          	addi	a2,a2,-585 # d5bfddb7 <imm12+0xd5bfe5b7>
80000060:	eadff6b7          	lui	a3,0xeadff
80000064:	edb68693          	addi	a3,a3,-293 # eadfeedb <imm12+0xeadff6db>
80000068:	f56ff737          	lui	a4,0xf56ff
8000006c:	76d70713          	addi	a4,a4,1901 # f56ff76d <imm12+0xf56fff6d>
80000070:	fab807b7          	lui	a5,0xfab80
80000074:	bb678793          	addi	a5,a5,-1098 # fab7fbb6 <imm12+0xfab803b6>

80000078 <rvtest_code_begin>:
80000078:	00006d17          	auipc	s10,0x6
8000007c:	09cd0d13          	addi	s10,s10,156 # 80006114 <signature_x26_0>

80000080 <inst_0>:
80000080:	55555c37          	lui	s8,0x55555
80000084:	556c0c13          	addi	s8,s8,1366 # 55555556 <absimm+0x55554d56>
80000088:	00200593          	li	a1,2
8000008c:	02bc65b3          	rem	a1,s8,a1
80000090:	00bd2023          	sw	a1,0(s10)

80000094 <inst_1>:
80000094:	04000113          	li	sp,64
80000098:	04000113          	li	sp,64
8000009c:	02216133          	rem	sp,sp,sp
800000a0:	002d2223          	sw	sp,4(s10)

800000a4 <inst_2>:
800000a4:	fbf00193          	li	gp,-65
800000a8:	fbf00193          	li	gp,-65
800000ac:	0231e6b3          	rem	a3,gp,gp
800000b0:	00dd2423          	sw	a3,8(s10)

800000b4 <inst_3>:
800000b4:	800002b7          	lui	t0,0x80000
800000b8:	000100b7          	lui	ra,0x10
800000bc:	0212ecb3          	rem	s9,t0,ra
800000c0:	019d2623          	sw	s9,12(s10)

800000c4 <inst_4>:
800000c4:	0000bb37          	lui	s6,0xb
800000c8:	504b0b13          	addi	s6,s6,1284 # b504 <absimm+0xad04>
800000cc:	0000b8b7          	lui	a7,0xb
800000d0:	50488893          	addi	a7,a7,1284 # b504 <absimm+0xad04>
800000d4:	031b6b33          	rem	s6,s6,a7
800000d8:	016d2823          	sw	s6,16(s10)

800000dc <inst_5>:
800000dc:	55555db7          	lui	s11,0x55555
800000e0:	554d8d93          	addi	s11,s11,1364 # 55555554 <absimm+0x55554d54>
800000e4:	800003b7          	lui	t2,0x80000
800000e8:	027de233          	rem	tp,s11,t2
800000ec:	004d2a23          	sw	tp,20(s10)

800000f0 <inst_6>:
800000f0:	00200437          	lui	s0,0x200
800000f4:	00000c93          	li	s9,0
800000f8:	039462b3          	rem	t0,s0,s9
800000fc:	005d2c23          	sw	t0,24(s10)

80000100 <inst_7>:
80000100:	ffff5237          	lui	tp,0xffff5
80000104:	afd20213          	addi	tp,tp,-1283 # ffff4afd <imm12+0xffff52fd>
80000108:	00000013          	nop
8000010c:	02026733          	rem	a4,tp,zero
80000110:	00ed2e23          	sw	a4,28(s10)

80000114 <inst_8>:
80000114:	00600493          	li	s1,6
80000118:	00100693          	li	a3,1
8000011c:	02d4ec33          	rem	s8,s1,a3
80000120:	038d2023          	sw	s8,32(s10)

80000124 <inst_9>:
80000124:	00000e13          	li	t3,0
80000128:	00400913          	li	s2,4
8000012c:	032e6f33          	rem	t5,t3,s2
80000130:	03ed2223          	sw	t5,36(s10)

80000134 <inst_10>:
80000134:	800006b7          	lui	a3,0x80000
80000138:	fff68693          	addi	a3,a3,-1 # 7fffffff <imm12+0x800007ff>
8000013c:	ff600813          	li	a6,-10
80000140:	0306e9b3          	rem	s3,a3,a6
80000144:	033d2423          	sw	s3,40(s10)

80000148 <inst_11>:
80000148:	00100393          	li	t2,1
8000014c:	0000b4b7          	lui	s1,0xb
80000150:	50348493          	addi	s1,s1,1283 # b503 <absimm+0xad03>
80000154:	0293ea33          	rem	s4,t2,s1
80000158:	034d2623          	sw	s4,44(s10)

8000015c <inst_12>:
8000015c:	00000013          	nop
80000160:	00800313          	li	t1,8
80000164:	026063b3          	rem	t2,zero,t1
80000168:	027d2823          	sw	t2,48(s10)

8000016c <inst_13>:
8000016c:	20000913          	li	s2,512
80000170:	01000c13          	li	s8,16
80000174:	03896833          	rem	a6,s2,s8
80000178:	030d2a23          	sw	a6,52(s10)

8000017c <inst_14>:
8000017c:	eff00793          	li	a5,-257
80000180:	02000a93          	li	s5,32
80000184:	0357ebb3          	rem	s7,a5,s5
80000188:	037d2c23          	sw	s7,56(s10)

8000018c <inst_15>:
8000018c:	f00000b7          	lui	ra,0xf0000
80000190:	fff08093          	addi	ra,ra,-1 # efffffff <imm12+0xf00007ff>
80000194:	04000713          	li	a4,64
80000198:	02e0e8b3          	rem	a7,ra,a4
8000019c:	031d2e23          	sw	a7,60(s10)

800001a0 <inst_16>:
800001a0:	ffd00993          	li	s3,-3
800001a4:	08000793          	li	a5,128
800001a8:	02f9e0b3          	rem	ra,s3,a5
800001ac:	041d2023          	sw	ra,64(s10)

800001b0 <inst_17>:
800001b0:	ff0005b7          	lui	a1,0xff000
800001b4:	fff58593          	addi	a1,a1,-1 # feffffff <imm12+0xff0007ff>
800001b8:	10000613          	li	a2,256
800001bc:	02c5e7b3          	rem	a5,a1,a2
800001c0:	04fd2223          	sw	a5,68(s10)

800001c4 <inst_18>:
800001c4:	ff800337          	lui	t1,0xff800
800001c8:	fff30313          	addi	t1,t1,-1 # ff7fffff <imm12+0xff8007ff>
800001cc:	20000a13          	li	s4,512
800001d0:	034361b3          	rem	gp,t1,s4
800001d4:	043d2423          	sw	gp,72(s10)

800001d8 <inst_19>:
800001d8:	ffffccb7          	lui	s9,0xffffc
800001dc:	fffc8c93          	addi	s9,s9,-1 # ffffbfff <imm12+0xffffc7ff>
800001e0:	40000f13          	li	t5,1024
800001e4:	03ece533          	rem	a0,s9,t5
800001e8:	04ad2623          	sw	a0,76(s10)
800001ec:	00006097          	auipc	ra,0x6
800001f0:	f7808093          	addi	ra,ra,-136 # 80006164 <signature_x1_0>

800001f4 <inst_20>:
800001f4:	ffffc837          	lui	a6,0xffffc
800001f8:	fff80813          	addi	a6,a6,-1 # ffffbfff <imm12+0xffffc7ff>
800001fc:	00001d37          	lui	s10,0x1
80000200:	800d0d13          	addi	s10,s10,-2048 # 800 <absimm>
80000204:	03a86033          	rem	zero,a6,s10
80000208:	0000a023          	sw	zero,0(ra)

8000020c <inst_21>:
8000020c:	fffe0737          	lui	a4,0xfffe0
80000210:	fff70713          	addi	a4,a4,-1 # fffdffff <imm12+0xfffe07ff>
80000214:	00001fb7          	lui	t6,0x1
80000218:	03f764b3          	rem	s1,a4,t6
8000021c:	0090a223          	sw	s1,4(ra)

80000220 <inst_22>:
80000220:	fef00b93          	li	s7,-17
80000224:	00002237          	lui	tp,0x2
80000228:	024be333          	rem	t1,s7,tp
8000022c:	0060a423          	sw	t1,8(ra)

80000230 <inst_23>:
80000230:	01000513          	li	a0,16
80000234:	000042b7          	lui	t0,0x4
80000238:	02556933          	rem	s2,a0,t0
8000023c:	0120a623          	sw	s2,12(ra)

80000240 <inst_24>:
80000240:	04000893          	li	a7,64
80000244:	000089b7          	lui	s3,0x8
80000248:	0338edb3          	rem	s11,a7,s3
8000024c:	01b0a823          	sw	s11,16(ra)

80000250 <inst_25>:
80000250:	fff80637          	lui	a2,0xfff80
80000254:	fff60613          	addi	a2,a2,-1 # fff7ffff <imm12+0xfff807ff>
80000258:	00020437          	lui	s0,0x20
8000025c:	02866e33          	rem	t3,a2,s0
80000260:	01c0aa23          	sw	t3,20(ra)

80000264 <inst_26>:
80000264:	00002ab7          	lui	s5,0x2
80000268:	00040e37          	lui	t3,0x40
8000026c:	03caed33          	rem	s10,s5,t3
80000270:	01a0ac23          	sw	s10,24(ra)

80000274 <inst_27>:
80000274:	00400f93          	li	t6,4
80000278:	00080bb7          	lui	s7,0x80
8000027c:	037feeb3          	rem	t4,t6,s7
80000280:	01d0ae23          	sw	t4,28(ra)

80000284 <inst_28>:
80000284:	00020eb7          	lui	t4,0x20
80000288:	00100b37          	lui	s6,0x100
8000028c:	036ee433          	rem	s0,t4,s6
80000290:	0280a023          	sw	s0,32(ra)

80000294 <inst_29>:
80000294:	04000a13          	li	s4,64
80000298:	00200db7          	lui	s11,0x200
8000029c:	03ba6fb3          	rem	t6,s4,s11
800002a0:	03f0a223          	sw	t6,36(ra)

800002a4 <inst_30>:
800002a4:	00100f37          	lui	t5,0x100
800002a8:	00400eb7          	lui	t4,0x400
800002ac:	03df6ab3          	rem	s5,t5,t4
800002b0:	0350a423          	sw	s5,40(ra)

800002b4 <inst_31>:
800002b4:	10000d37          	lui	s10,0x10000
800002b8:	00800537          	lui	a0,0x800
800002bc:	02ad6633          	rem	a2,s10,a0
800002c0:	02c0a623          	sw	a2,44(ra)

800002c4 <inst_32>:
800002c4:	33333537          	lui	a0,0x33333
800002c8:	33350513          	addi	a0,a0,819 # 33333333 <absimm+0x33332b33>
800002cc:	010005b7          	lui	a1,0x1000
800002d0:	02b56633          	rem	a2,a0,a1
800002d4:	02c0a823          	sw	a2,48(ra)

800002d8 <inst_33>:
800002d8:	ffffc537          	lui	a0,0xffffc
800002dc:	fff50513          	addi	a0,a0,-1 # ffffbfff <imm12+0xffffc7ff>
800002e0:	020005b7          	lui	a1,0x2000
800002e4:	02b56633          	rem	a2,a0,a1
800002e8:	02c0aa23          	sw	a2,52(ra)

800002ec <inst_34>:
800002ec:	00000513          	li	a0,0
800002f0:	040005b7          	lui	a1,0x4000
800002f4:	02b56633          	rem	a2,a0,a1
800002f8:	02c0ac23          	sw	a2,56(ra)

800002fc <inst_35>:
800002fc:	dff00513          	li	a0,-513
80000300:	080005b7          	lui	a1,0x8000
80000304:	02b56633          	rem	a2,a0,a1
80000308:	02c0ae23          	sw	a2,60(ra)

8000030c <inst_36>:
8000030c:	0000b537          	lui	a0,0xb
80000310:	50550513          	addi	a0,a0,1285 # b505 <absimm+0xad05>
80000314:	100005b7          	lui	a1,0x10000
80000318:	02b56633          	rem	a2,a0,a1
8000031c:	04c0a023          	sw	a2,64(ra)

80000320 <inst_37>:
80000320:	00800513          	li	a0,8
80000324:	200005b7          	lui	a1,0x20000
80000328:	02b56633          	rem	a2,a0,a1
8000032c:	04c0a223          	sw	a2,68(ra)

80000330 <inst_38>:
80000330:	fc000537          	lui	a0,0xfc000
80000334:	fff50513          	addi	a0,a0,-1 # fbffffff <imm12+0xfc0007ff>
80000338:	400005b7          	lui	a1,0x40000
8000033c:	02b56633          	rem	a2,a0,a1
80000340:	04c0a423          	sw	a2,72(ra)

80000344 <inst_39>:
80000344:	55555537          	lui	a0,0x55555
80000348:	55550513          	addi	a0,a0,1365 # 55555555 <absimm+0x55554d55>
8000034c:	ffe00593          	li	a1,-2
80000350:	02b56633          	rem	a2,a0,a1
80000354:	04c0a623          	sw	a2,76(ra)

80000358 <inst_40>:
80000358:	aaaab537          	lui	a0,0xaaaab
8000035c:	aaa50513          	addi	a0,a0,-1366 # aaaaaaaa <imm12+0xaaaab2aa>
80000360:	ffd00593          	li	a1,-3
80000364:	02b56633          	rem	a2,a0,a1
80000368:	04c0a823          	sw	a2,80(ra)

8000036c <inst_41>:
8000036c:	fef00513          	li	a0,-17
80000370:	ffb00593          	li	a1,-5
80000374:	02b56633          	rem	a2,a0,a1
80000378:	04c0aa23          	sw	a2,84(ra)

8000037c <inst_42>:
8000037c:	f8000537          	lui	a0,0xf8000
80000380:	fff50513          	addi	a0,a0,-1 # f7ffffff <imm12+0xf80007ff>
80000384:	ff700593          	li	a1,-9
80000388:	02b56633          	rem	a2,a0,a1
8000038c:	04c0ac23          	sw	a2,88(ra)

80000390 <inst_43>:
80000390:	fff80537          	lui	a0,0xfff80
80000394:	fff50513          	addi	a0,a0,-1 # fff7ffff <imm12+0xfff807ff>
80000398:	fef00593          	li	a1,-17
8000039c:	02b56633          	rem	a2,a0,a1
800003a0:	04c0ae23          	sw	a2,92(ra)

800003a4 <inst_44>:
800003a4:	00300513          	li	a0,3
800003a8:	fdf00593          	li	a1,-33
800003ac:	02b56633          	rem	a2,a0,a1
800003b0:	06c0a023          	sw	a2,96(ra)

800003b4 <inst_45>:
800003b4:	f8000537          	lui	a0,0xf8000
800003b8:	fff50513          	addi	a0,a0,-1 # f7ffffff <imm12+0xf80007ff>
800003bc:	fbf00593          	li	a1,-65
800003c0:	02b56633          	rem	a2,a0,a1
800003c4:	06c0a223          	sw	a2,100(ra)

800003c8 <inst_46>:
800003c8:	00200513          	li	a0,2
800003cc:	f7f00593          	li	a1,-129
800003d0:	02b56633          	rem	a2,a0,a1
800003d4:	06c0a423          	sw	a2,104(ra)

800003d8 <inst_47>:
800003d8:	00900513          	li	a0,9
800003dc:	eff00593          	li	a1,-257
800003e0:	02b56633          	rem	a2,a0,a1
800003e4:	06c0a623          	sw	a2,108(ra)

800003e8 <inst_48>:
800003e8:	ff800537          	lui	a0,0xff800
800003ec:	fff50513          	addi	a0,a0,-1 # ff7fffff <imm12+0xff8007ff>
800003f0:	dff00593          	li	a1,-513
800003f4:	02b56633          	rem	a2,a0,a1
800003f8:	06c0a823          	sw	a2,112(ra)

800003fc <inst_49>:
800003fc:	aaaab537          	lui	a0,0xaaaab
80000400:	aaa50513          	addi	a0,a0,-1366 # aaaaaaaa <imm12+0xaaaab2aa>
80000404:	bff00593          	li	a1,-1025
80000408:	02b56633          	rem	a2,a0,a1
8000040c:	06c0aa23          	sw	a2,116(ra)

80000410 <inst_50>:
80000410:	fff00537          	lui	a0,0xfff00
80000414:	fff50513          	addi	a0,a0,-1 # ffefffff <imm12+0xfff007ff>
80000418:	fffff5b7          	lui	a1,0xfffff
8000041c:	7ff58593          	addi	a1,a1,2047 # fffff7ff <imm12+0xffffffff>
80000420:	02b56633          	rem	a2,a0,a1
80000424:	06c0ac23          	sw	a2,120(ra)

80000428 <inst_51>:
80000428:	00040537          	lui	a0,0x40
8000042c:	fffff5b7          	lui	a1,0xfffff
80000430:	fff58593          	addi	a1,a1,-1 # ffffefff <imm12+0xfffff7ff>
80000434:	02b56633          	rem	a2,a0,a1
80000438:	06c0ae23          	sw	a2,124(ra)

8000043c <inst_52>:
8000043c:	33333537          	lui	a0,0x33333
80000440:	33450513          	addi	a0,a0,820 # 33333334 <absimm+0x33332b34>
80000444:	ffffe5b7          	lui	a1,0xffffe
80000448:	fff58593          	addi	a1,a1,-1 # ffffdfff <imm12+0xffffe7ff>
8000044c:	02b56633          	rem	a2,a0,a1
80000450:	08c0a023          	sw	a2,128(ra)

80000454 <inst_53>:
80000454:	00008537          	lui	a0,0x8
80000458:	ffffc5b7          	lui	a1,0xffffc
8000045c:	fff58593          	addi	a1,a1,-1 # ffffbfff <imm12+0xffffc7ff>
80000460:	02b56633          	rem	a2,a0,a1
80000464:	08c0a223          	sw	a2,132(ra)

80000468 <inst_54>:
80000468:	00100537          	lui	a0,0x100
8000046c:	ffff85b7          	lui	a1,0xffff8
80000470:	fff58593          	addi	a1,a1,-1 # ffff7fff <imm12+0xffff87ff>
80000474:	02b56633          	rem	a2,a0,a1
80000478:	08c0a423          	sw	a2,136(ra)

8000047c <inst_55>:
8000047c:	00100537          	lui	a0,0x100
80000480:	ffff05b7          	lui	a1,0xffff0
80000484:	fff58593          	addi	a1,a1,-1 # fffeffff <imm12+0xffff07ff>
80000488:	02b56633          	rem	a2,a0,a1
8000048c:	08c0a623          	sw	a2,140(ra)

80000490 <inst_56>:
80000490:	00200537          	lui	a0,0x200
80000494:	fffe05b7          	lui	a1,0xfffe0
80000498:	fff58593          	addi	a1,a1,-1 # fffdffff <imm12+0xfffe07ff>
8000049c:	02b56633          	rem	a2,a0,a1
800004a0:	08c0a823          	sw	a2,144(ra)

800004a4 <inst_57>:
800004a4:	80000537          	lui	a0,0x80000
800004a8:	fffc05b7          	lui	a1,0xfffc0
800004ac:	fff58593          	addi	a1,a1,-1 # fffbffff <imm12+0xfffc07ff>
800004b0:	02b56633          	rem	a2,a0,a1
800004b4:	08c0aa23          	sw	a2,148(ra)

800004b8 <inst_58>:
800004b8:	00200537          	lui	a0,0x200
800004bc:	fff805b7          	lui	a1,0xfff80
800004c0:	fff58593          	addi	a1,a1,-1 # fff7ffff <imm12+0xfff807ff>
800004c4:	02b56633          	rem	a2,a0,a1
800004c8:	08c0ac23          	sw	a2,152(ra)

800004cc <inst_59>:
800004cc:	10000513          	li	a0,256
800004d0:	fff005b7          	lui	a1,0xfff00
800004d4:	fff58593          	addi	a1,a1,-1 # ffefffff <imm12+0xfff007ff>
800004d8:	02b56633          	rem	a2,a0,a1
800004dc:	08c0ae23          	sw	a2,156(ra)

800004e0 <inst_60>:
800004e0:	fef00513          	li	a0,-17
800004e4:	ffe005b7          	lui	a1,0xffe00
800004e8:	fff58593          	addi	a1,a1,-1 # ffdfffff <imm12+0xffe007ff>
800004ec:	02b56633          	rem	a2,a0,a1
800004f0:	0ac0a023          	sw	a2,160(ra)

800004f4 <inst_61>:
800004f4:	00001537          	lui	a0,0x1
800004f8:	ff8005b7          	lui	a1,0xff800
800004fc:	fff58593          	addi	a1,a1,-1 # ff7fffff <imm12+0xff8007ff>
80000500:	02b56633          	rem	a2,a0,a1
80000504:	0ac0a223          	sw	a2,164(ra)

80000508 <inst_62>:
80000508:	ffff8537          	lui	a0,0xffff8
8000050c:	fff50513          	addi	a0,a0,-1 # ffff7fff <imm12+0xffff87ff>
80000510:	ff0005b7          	lui	a1,0xff000
80000514:	fff58593          	addi	a1,a1,-1 # feffffff <imm12+0xff0007ff>
80000518:	02b56633          	rem	a2,a0,a1
8000051c:	0ac0a423          	sw	a2,168(ra)

80000520 <inst_63>:
80000520:	00000513          	li	a0,0
80000524:	fe0005b7          	lui	a1,0xfe000
80000528:	fff58593          	addi	a1,a1,-1 # fdffffff <imm12+0xfe0007ff>
8000052c:	02b56633          	rem	a2,a0,a1
80000530:	0ac0a623          	sw	a2,172(ra)

80000534 <inst_64>:
80000534:	10000537          	lui	a0,0x10000
80000538:	fc0005b7          	lui	a1,0xfc000
8000053c:	fff58593          	addi	a1,a1,-1 # fbffffff <imm12+0xfc0007ff>
80000540:	02b56633          	rem	a2,a0,a1
80000544:	0ac0a823          	sw	a2,176(ra)

80000548 <inst_65>:
80000548:	00500513          	li	a0,5
8000054c:	f80005b7          	lui	a1,0xf8000
80000550:	fff58593          	addi	a1,a1,-1 # f7ffffff <imm12+0xf80007ff>
80000554:	02b56633          	rem	a2,a0,a1
80000558:	0ac0aa23          	sw	a2,180(ra)

8000055c <inst_66>:
8000055c:	ffff5537          	lui	a0,0xffff5
80000560:	afd50513          	addi	a0,a0,-1283 # ffff4afd <imm12+0xffff52fd>
80000564:	f00005b7          	lui	a1,0xf0000
80000568:	fff58593          	addi	a1,a1,-1 # efffffff <imm12+0xf00007ff>
8000056c:	02b56633          	rem	a2,a0,a1
80000570:	0ac0ac23          	sw	a2,184(ra)

80000574 <inst_67>:
80000574:	00000513          	li	a0,0
80000578:	e00005b7          	lui	a1,0xe0000
8000057c:	fff58593          	addi	a1,a1,-1 # dfffffff <imm12+0xe00007ff>
80000580:	02b56633          	rem	a2,a0,a1
80000584:	0ac0ae23          	sw	a2,188(ra)

80000588 <inst_68>:
80000588:	00000513          	li	a0,0
8000058c:	c00005b7          	lui	a1,0xc0000
80000590:	fff58593          	addi	a1,a1,-1 # bfffffff <imm12+0xc00007ff>
80000594:	02b56633          	rem	a2,a0,a1
80000598:	0cc0a023          	sw	a2,192(ra)

8000059c <inst_69>:
8000059c:	ff000537          	lui	a0,0xff000
800005a0:	fff50513          	addi	a0,a0,-1 # feffffff <imm12+0xff0007ff>
800005a4:	555555b7          	lui	a1,0x55555
800005a8:	55558593          	addi	a1,a1,1365 # 55555555 <absimm+0x55554d55>
800005ac:	02b56633          	rem	a2,a0,a1
800005b0:	0cc0a223          	sw	a2,196(ra)

800005b4 <inst_70>:
800005b4:	40000537          	lui	a0,0x40000
800005b8:	aaaab5b7          	lui	a1,0xaaaab
800005bc:	aaa58593          	addi	a1,a1,-1366 # aaaaaaaa <imm12+0xaaaab2aa>
800005c0:	02b56633          	rem	a2,a0,a1
800005c4:	0cc0a423          	sw	a2,200(ra)

800005c8 <inst_71>:
800005c8:	02000513          	li	a0,32
800005cc:	400005b7          	lui	a1,0x40000
800005d0:	02b56633          	rem	a2,a0,a1
800005d4:	0cc0a623          	sw	a2,204(ra)

800005d8 <inst_72>:
800005d8:	08000513          	li	a0,128
800005dc:	555555b7          	lui	a1,0x55555
800005e0:	55658593          	addi	a1,a1,1366 # 55555556 <absimm+0x55554d56>
800005e4:	02b56633          	rem	a2,a0,a1
800005e8:	0cc0a823          	sw	a2,208(ra)

800005ec <inst_73>:
800005ec:	40000513          	li	a0,1024
800005f0:	00100593          	li	a1,1
800005f4:	02b56633          	rem	a2,a0,a1
800005f8:	0cc0aa23          	sw	a2,212(ra)

800005fc <inst_74>:
800005fc:	00001537          	lui	a0,0x1
80000600:	80050513          	addi	a0,a0,-2048 # 800 <absimm>
80000604:	bff00593          	li	a1,-1025
80000608:	02b56633          	rem	a2,a0,a1
8000060c:	0cc0ac23          	sw	a2,216(ra)

80000610 <inst_75>:
80000610:	00004537          	lui	a0,0x4
80000614:	f7f00593          	li	a1,-129
80000618:	02b56633          	rem	a2,a0,a1
8000061c:	0cc0ae23          	sw	a2,220(ra)

80000620 <inst_76>:
80000620:	00010537          	lui	a0,0x10
80000624:	400005b7          	lui	a1,0x40000
80000628:	fff58593          	addi	a1,a1,-1 # 3fffffff <absimm+0x3ffff7ff>
8000062c:	02b56633          	rem	a2,a0,a1
80000630:	0ec0a023          	sw	a2,224(ra)

80000634 <inst_77>:
80000634:	00080537          	lui	a0,0x80
80000638:	fffe05b7          	lui	a1,0xfffe0
8000063c:	fff58593          	addi	a1,a1,-1 # fffdffff <imm12+0xfffe07ff>
80000640:	02b56633          	rem	a2,a0,a1
80000644:	0ec0a223          	sw	a2,228(ra)

80000648 <inst_78>:
80000648:	00400537          	lui	a0,0x400
8000064c:	00200593          	li	a1,2
80000650:	02b56633          	rem	a2,a0,a1
80000654:	0ec0a423          	sw	a2,232(ra)

80000658 <inst_79>:
80000658:	00800537          	lui	a0,0x800
8000065c:	0000b5b7          	lui	a1,0xb
80000660:	50558593          	addi	a1,a1,1285 # b505 <absimm+0xad05>
80000664:	02b56633          	rem	a2,a0,a1
80000668:	0ec0a623          	sw	a2,236(ra)

8000066c <inst_80>:
8000066c:	01000537          	lui	a0,0x1000
80000670:	04000593          	li	a1,64
80000674:	02b56633          	rem	a2,a0,a1
80000678:	0ec0a823          	sw	a2,240(ra)

8000067c <inst_81>:
8000067c:	02000537          	lui	a0,0x2000
80000680:	20000593          	li	a1,512
80000684:	02b56633          	rem	a2,a0,a1
80000688:	0ec0aa23          	sw	a2,244(ra)

8000068c <inst_82>:
8000068c:	04000537          	lui	a0,0x4000
80000690:	000205b7          	lui	a1,0x20
80000694:	02b56633          	rem	a2,a0,a1
80000698:	0ec0ac23          	sw	a2,248(ra)

8000069c <inst_83>:
8000069c:	08000537          	lui	a0,0x8000
800006a0:	f7f00593          	li	a1,-129
800006a4:	02b56633          	rem	a2,a0,a1
800006a8:	0ec0ae23          	sw	a2,252(ra)

800006ac <inst_84>:
800006ac:	20000537          	lui	a0,0x20000
800006b0:	00000593          	li	a1,0
800006b4:	02b56633          	rem	a2,a0,a1
800006b8:	10c0a023          	sw	a2,256(ra)

800006bc <inst_85>:
800006bc:	ffe00513          	li	a0,-2
800006c0:	dff00593          	li	a1,-513
800006c4:	02b56633          	rem	a2,a0,a1
800006c8:	10c0a223          	sw	a2,260(ra)

800006cc <inst_86>:
800006cc:	ffb00513          	li	a0,-5
800006d0:	ffd00593          	li	a1,-3
800006d4:	02b56633          	rem	a2,a0,a1
800006d8:	10c0a423          	sw	a2,264(ra)

800006dc <inst_87>:
800006dc:	ff700513          	li	a0,-9
800006e0:	666665b7          	lui	a1,0x66666
800006e4:	66658593          	addi	a1,a1,1638 # 66666666 <absimm+0x66665e66>
800006e8:	02b56633          	rem	a2,a0,a1
800006ec:	10c0a623          	sw	a2,268(ra)

800006f0 <inst_88>:
800006f0:	fdf00513          	li	a0,-33
800006f4:	00500593          	li	a1,5
800006f8:	02b56633          	rem	a2,a0,a1
800006fc:	10c0a823          	sw	a2,272(ra)

80000700 <inst_89>:
80000700:	f7f00513          	li	a0,-129
80000704:	ffe005b7          	lui	a1,0xffe00
80000708:	fff58593          	addi	a1,a1,-1 # ffdfffff <imm12+0xffe007ff>
8000070c:	02b56633          	rem	a2,a0,a1
80000710:	10c0aa23          	sw	a2,276(ra)

80000714 <inst_90>:
80000714:	bff00513          	li	a0,-1025
80000718:	00200593          	li	a1,2
8000071c:	02b56633          	rem	a2,a0,a1
80000720:	10c0ac23          	sw	a2,280(ra)

80000724 <inst_91>:
80000724:	fffff537          	lui	a0,0xfffff
80000728:	7ff50513          	addi	a0,a0,2047 # fffff7ff <imm12+0xffffffff>
8000072c:	02000593          	li	a1,32
80000730:	02b56633          	rem	a2,a0,a1
80000734:	10c0ae23          	sw	a2,284(ra)

80000738 <inst_92>:
80000738:	fffff537          	lui	a0,0xfffff
8000073c:	fff50513          	addi	a0,a0,-1 # ffffefff <imm12+0xfffff7ff>
80000740:	08000593          	li	a1,128
80000744:	02b56633          	rem	a2,a0,a1
80000748:	12c0a023          	sw	a2,288(ra)

8000074c <inst_93>:
8000074c:	ffffe537          	lui	a0,0xffffe
80000750:	fff50513          	addi	a0,a0,-1 # ffffdfff <imm12+0xffffe7ff>
80000754:	00300593          	li	a1,3
80000758:	02b56633          	rem	a2,a0,a1
8000075c:	12c0a223          	sw	a2,292(ra)

80000760 <inst_94>:
80000760:	ffff0537          	lui	a0,0xffff0
80000764:	fff50513          	addi	a0,a0,-1 # fffeffff <imm12+0xffff07ff>
80000768:	04000593          	li	a1,64
8000076c:	02b56633          	rem	a2,a0,a1
80000770:	12c0a423          	sw	a2,296(ra)

80000774 <inst_95>:
80000774:	fffc0537          	lui	a0,0xfffc0
80000778:	fff50513          	addi	a0,a0,-1 # fffbffff <imm12+0xfffc07ff>
8000077c:	e00005b7          	lui	a1,0xe0000
80000780:	fff58593          	addi	a1,a1,-1 # dfffffff <imm12+0xe00007ff>
80000784:	02b56633          	rem	a2,a0,a1
80000788:	12c0a623          	sw	a2,300(ra)

8000078c <inst_96>:
8000078c:	ffe00537          	lui	a0,0xffe00
80000790:	fff50513          	addi	a0,a0,-1 # ffdfffff <imm12+0xffe007ff>
80000794:	555555b7          	lui	a1,0x55555
80000798:	55558593          	addi	a1,a1,1365 # 55555555 <absimm+0x55554d55>
8000079c:	02b56633          	rem	a2,a0,a1
800007a0:	12c0a823          	sw	a2,304(ra)

800007a4 <inst_97>:
800007a4:	ffc00537          	lui	a0,0xffc00
800007a8:	fff50513          	addi	a0,a0,-1 # ffbfffff <imm12+0xffc007ff>
800007ac:	fef00593          	li	a1,-17
800007b0:	02b56633          	rem	a2,a0,a1
800007b4:	12c0aa23          	sw	a2,308(ra)

800007b8 <inst_98>:
800007b8:	fe000537          	lui	a0,0xfe000
800007bc:	fff50513          	addi	a0,a0,-1 # fdffffff <imm12+0xfe0007ff>
800007c0:	020005b7          	lui	a1,0x2000
800007c4:	02b56633          	rem	a2,a0,a1
800007c8:	12c0ac23          	sw	a2,312(ra)

800007cc <inst_99>:
800007cc:	e0000537          	lui	a0,0xe0000
800007d0:	fff50513          	addi	a0,a0,-1 # dfffffff <imm12+0xe00007ff>
800007d4:	020005b7          	lui	a1,0x2000
800007d8:	02b56633          	rem	a2,a0,a1
800007dc:	12c0ae23          	sw	a2,316(ra)

800007e0 <inst_100>:
800007e0:	c0000537          	lui	a0,0xc0000
800007e4:	fff50513          	addi	a0,a0,-1 # bfffffff <imm12+0xc00007ff>
800007e8:	200005b7          	lui	a1,0x20000
800007ec:	02b56633          	rem	a2,a0,a1
800007f0:	14c0a023          	sw	a2,320(ra)

800007f4 <inst_101>:
800007f4:	00300513          	li	a0,3
800007f8:	00300593          	li	a1,3
800007fc:	02b56633          	rem	a2,a0,a1
80000800:	14c0a223          	sw	a2,324(ra)

80000804 <inst_102>:
80000804:	00300513          	li	a0,3
80000808:	555555b7          	lui	a1,0x55555
8000080c:	55558593          	addi	a1,a1,1365 # 55555555 <absimm+0x55554d55>
80000810:	02b56633          	rem	a2,a0,a1
80000814:	14c0a423          	sw	a2,328(ra)

80000818 <inst_103>:
80000818:	00300513          	li	a0,3
8000081c:	aaaab5b7          	lui	a1,0xaaaab
80000820:	aaa58593          	addi	a1,a1,-1366 # aaaaaaaa <imm12+0xaaaab2aa>
80000824:	02b56633          	rem	a2,a0,a1
80000828:	14c0a623          	sw	a2,332(ra)

8000082c <inst_104>:
8000082c:	00300513          	li	a0,3
80000830:	00500593          	li	a1,5
80000834:	02b56633          	rem	a2,a0,a1
80000838:	14c0a823          	sw	a2,336(ra)

8000083c <inst_105>:
8000083c:	00300513          	li	a0,3
80000840:	333335b7          	lui	a1,0x33333
80000844:	33358593          	addi	a1,a1,819 # 33333333 <absimm+0x33332b33>
80000848:	02b56633          	rem	a2,a0,a1
8000084c:	14c0aa23          	sw	a2,340(ra)

80000850 <inst_106>:
80000850:	00300513          	li	a0,3
80000854:	666665b7          	lui	a1,0x66666
80000858:	66658593          	addi	a1,a1,1638 # 66666666 <absimm+0x66665e66>
8000085c:	02b56633          	rem	a2,a0,a1
80000860:	14c0ac23          	sw	a2,344(ra)

80000864 <inst_107>:
80000864:	00300513          	li	a0,3
80000868:	ffff55b7          	lui	a1,0xffff5
8000086c:	afc58593          	addi	a1,a1,-1284 # ffff4afc <imm12+0xffff52fc>
80000870:	02b56633          	rem	a2,a0,a1
80000874:	14c0ae23          	sw	a2,348(ra)

80000878 <inst_108>:
80000878:	00300513          	li	a0,3
8000087c:	0000b5b7          	lui	a1,0xb
80000880:	50458593          	addi	a1,a1,1284 # b504 <absimm+0xad04>
80000884:	02b56633          	rem	a2,a0,a1
80000888:	16c0a023          	sw	a2,352(ra)

8000088c <inst_109>:
8000088c:	00300513          	li	a0,3
80000890:	00200593          	li	a1,2
80000894:	02b56633          	rem	a2,a0,a1
80000898:	16c0a223          	sw	a2,356(ra)

8000089c <inst_110>:
8000089c:	00300513          	li	a0,3
800008a0:	555555b7          	lui	a1,0x55555
800008a4:	55458593          	addi	a1,a1,1364 # 55555554 <absimm+0x55554d54>
800008a8:	02b56633          	rem	a2,a0,a1
800008ac:	16c0a423          	sw	a2,360(ra)

800008b0 <inst_111>:
800008b0:	00300513          	li	a0,3
800008b4:	00000593          	li	a1,0
800008b8:	02b56633          	rem	a2,a0,a1
800008bc:	16c0a623          	sw	a2,364(ra)

800008c0 <inst_112>:
800008c0:	00300513          	li	a0,3
800008c4:	00400593          	li	a1,4
800008c8:	02b56633          	rem	a2,a0,a1
800008cc:	16c0a823          	sw	a2,368(ra)

800008d0 <inst_113>:
800008d0:	00300513          	li	a0,3
800008d4:	333335b7          	lui	a1,0x33333
800008d8:	33258593          	addi	a1,a1,818 # 33333332 <absimm+0x33332b32>
800008dc:	02b56633          	rem	a2,a0,a1
800008e0:	16c0aa23          	sw	a2,372(ra)

800008e4 <inst_114>:
800008e4:	00300513          	li	a0,3
800008e8:	666665b7          	lui	a1,0x66666
800008ec:	66558593          	addi	a1,a1,1637 # 66666665 <absimm+0x66665e65>
800008f0:	02b56633          	rem	a2,a0,a1
800008f4:	16c0ac23          	sw	a2,376(ra)

800008f8 <inst_115>:
800008f8:	00300513          	li	a0,3
800008fc:	0000b5b7          	lui	a1,0xb
80000900:	50358593          	addi	a1,a1,1283 # b503 <absimm+0xad03>
80000904:	02b56633          	rem	a2,a0,a1
80000908:	16c0ae23          	sw	a2,380(ra)

8000090c <inst_116>:
8000090c:	00300513          	li	a0,3
80000910:	555555b7          	lui	a1,0x55555
80000914:	55658593          	addi	a1,a1,1366 # 55555556 <absimm+0x55554d56>
80000918:	02b56633          	rem	a2,a0,a1
8000091c:	18c0a023          	sw	a2,384(ra)

80000920 <inst_117>:
80000920:	00300513          	li	a0,3
80000924:	aaaab5b7          	lui	a1,0xaaaab
80000928:	aab58593          	addi	a1,a1,-1365 # aaaaaaab <imm12+0xaaaab2ab>
8000092c:	02b56633          	rem	a2,a0,a1
80000930:	18c0a223          	sw	a2,388(ra)

80000934 <inst_118>:
80000934:	00300513          	li	a0,3
80000938:	00600593          	li	a1,6
8000093c:	02b56633          	rem	a2,a0,a1
80000940:	18c0a423          	sw	a2,392(ra)

80000944 <inst_119>:
80000944:	00300513          	li	a0,3
80000948:	333335b7          	lui	a1,0x33333
8000094c:	33458593          	addi	a1,a1,820 # 33333334 <absimm+0x33332b34>
80000950:	02b56633          	rem	a2,a0,a1
80000954:	18c0a623          	sw	a2,396(ra)

80000958 <inst_120>:
80000958:	00300513          	li	a0,3
8000095c:	666665b7          	lui	a1,0x66666
80000960:	66758593          	addi	a1,a1,1639 # 66666667 <absimm+0x66665e67>
80000964:	02b56633          	rem	a2,a0,a1
80000968:	18c0a823          	sw	a2,400(ra)

8000096c <inst_121>:
8000096c:	00300513          	li	a0,3
80000970:	ffff55b7          	lui	a1,0xffff5
80000974:	afd58593          	addi	a1,a1,-1283 # ffff4afd <imm12+0xffff52fd>
80000978:	02b56633          	rem	a2,a0,a1
8000097c:	18c0aa23          	sw	a2,404(ra)

80000980 <inst_122>:
80000980:	00300513          	li	a0,3
80000984:	0000b5b7          	lui	a1,0xb
80000988:	50558593          	addi	a1,a1,1285 # b505 <absimm+0xad05>
8000098c:	02b56633          	rem	a2,a0,a1
80000990:	18c0ac23          	sw	a2,408(ra)

80000994 <inst_123>:
80000994:	55555537          	lui	a0,0x55555
80000998:	55550513          	addi	a0,a0,1365 # 55555555 <absimm+0x55554d55>
8000099c:	00300593          	li	a1,3
800009a0:	02b56633          	rem	a2,a0,a1
800009a4:	18c0ae23          	sw	a2,412(ra)

800009a8 <inst_124>:
800009a8:	55555537          	lui	a0,0x55555
800009ac:	55550513          	addi	a0,a0,1365 # 55555555 <absimm+0x55554d55>
800009b0:	555555b7          	lui	a1,0x55555
800009b4:	55558593          	addi	a1,a1,1365 # 55555555 <absimm+0x55554d55>
800009b8:	02b56633          	rem	a2,a0,a1
800009bc:	1ac0a023          	sw	a2,416(ra)

800009c0 <inst_125>:
800009c0:	55555537          	lui	a0,0x55555
800009c4:	55550513          	addi	a0,a0,1365 # 55555555 <absimm+0x55554d55>
800009c8:	aaaab5b7          	lui	a1,0xaaaab
800009cc:	aaa58593          	addi	a1,a1,-1366 # aaaaaaaa <imm12+0xaaaab2aa>
800009d0:	02b56633          	rem	a2,a0,a1
800009d4:	1ac0a223          	sw	a2,420(ra)

800009d8 <inst_126>:
800009d8:	55555537          	lui	a0,0x55555
800009dc:	55550513          	addi	a0,a0,1365 # 55555555 <absimm+0x55554d55>
800009e0:	00500593          	li	a1,5
800009e4:	02b56633          	rem	a2,a0,a1
800009e8:	1ac0a423          	sw	a2,424(ra)

800009ec <inst_127>:
800009ec:	55555537          	lui	a0,0x55555
800009f0:	55550513          	addi	a0,a0,1365 # 55555555 <absimm+0x55554d55>
800009f4:	333335b7          	lui	a1,0x33333
800009f8:	33358593          	addi	a1,a1,819 # 33333333 <absimm+0x33332b33>
800009fc:	02b56633          	rem	a2,a0,a1
80000a00:	1ac0a623          	sw	a2,428(ra)

80000a04 <inst_128>:
80000a04:	55555537          	lui	a0,0x55555
80000a08:	55550513          	addi	a0,a0,1365 # 55555555 <absimm+0x55554d55>
80000a0c:	666665b7          	lui	a1,0x66666
80000a10:	66658593          	addi	a1,a1,1638 # 66666666 <absimm+0x66665e66>
80000a14:	02b56633          	rem	a2,a0,a1
80000a18:	1ac0a823          	sw	a2,432(ra)

80000a1c <inst_129>:
80000a1c:	55555537          	lui	a0,0x55555
80000a20:	55550513          	addi	a0,a0,1365 # 55555555 <absimm+0x55554d55>
80000a24:	ffff55b7          	lui	a1,0xffff5
80000a28:	afc58593          	addi	a1,a1,-1284 # ffff4afc <imm12+0xffff52fc>
80000a2c:	02b56633          	rem	a2,a0,a1
80000a30:	1ac0aa23          	sw	a2,436(ra)

80000a34 <inst_130>:
80000a34:	55555537          	lui	a0,0x55555
80000a38:	55550513          	addi	a0,a0,1365 # 55555555 <absimm+0x55554d55>
80000a3c:	0000b5b7          	lui	a1,0xb
80000a40:	50458593          	addi	a1,a1,1284 # b504 <absimm+0xad04>
80000a44:	02b56633          	rem	a2,a0,a1
80000a48:	1ac0ac23          	sw	a2,440(ra)

80000a4c <inst_131>:
80000a4c:	55555537          	lui	a0,0x55555
80000a50:	55550513          	addi	a0,a0,1365 # 55555555 <absimm+0x55554d55>
80000a54:	00200593          	li	a1,2
80000a58:	02b56633          	rem	a2,a0,a1
80000a5c:	1ac0ae23          	sw	a2,444(ra)

80000a60 <inst_132>:
80000a60:	55555537          	lui	a0,0x55555
80000a64:	55550513          	addi	a0,a0,1365 # 55555555 <absimm+0x55554d55>
80000a68:	555555b7          	lui	a1,0x55555
80000a6c:	55458593          	addi	a1,a1,1364 # 55555554 <absimm+0x55554d54>
80000a70:	02b56633          	rem	a2,a0,a1
80000a74:	1cc0a023          	sw	a2,448(ra)

80000a78 <inst_133>:
80000a78:	55555537          	lui	a0,0x55555
80000a7c:	55550513          	addi	a0,a0,1365 # 55555555 <absimm+0x55554d55>
80000a80:	00000593          	li	a1,0
80000a84:	02b56633          	rem	a2,a0,a1
80000a88:	1cc0a223          	sw	a2,452(ra)

80000a8c <inst_134>:
80000a8c:	55555537          	lui	a0,0x55555
80000a90:	55550513          	addi	a0,a0,1365 # 55555555 <absimm+0x55554d55>
80000a94:	00400593          	li	a1,4
80000a98:	02b56633          	rem	a2,a0,a1
80000a9c:	1cc0a423          	sw	a2,456(ra)

80000aa0 <inst_135>:
80000aa0:	55555537          	lui	a0,0x55555
80000aa4:	55550513          	addi	a0,a0,1365 # 55555555 <absimm+0x55554d55>
80000aa8:	333335b7          	lui	a1,0x33333
80000aac:	33258593          	addi	a1,a1,818 # 33333332 <absimm+0x33332b32>
80000ab0:	02b56633          	rem	a2,a0,a1
80000ab4:	1cc0a623          	sw	a2,460(ra)

80000ab8 <inst_136>:
80000ab8:	55555537          	lui	a0,0x55555
80000abc:	55550513          	addi	a0,a0,1365 # 55555555 <absimm+0x55554d55>
80000ac0:	666665b7          	lui	a1,0x66666
80000ac4:	66558593          	addi	a1,a1,1637 # 66666665 <absimm+0x66665e65>
80000ac8:	02b56633          	rem	a2,a0,a1
80000acc:	1cc0a823          	sw	a2,464(ra)

80000ad0 <inst_137>:
80000ad0:	55555537          	lui	a0,0x55555
80000ad4:	55550513          	addi	a0,a0,1365 # 55555555 <absimm+0x55554d55>
80000ad8:	0000b5b7          	lui	a1,0xb
80000adc:	50358593          	addi	a1,a1,1283 # b503 <absimm+0xad03>
80000ae0:	02b56633          	rem	a2,a0,a1
80000ae4:	1cc0aa23          	sw	a2,468(ra)

80000ae8 <inst_138>:
80000ae8:	55555537          	lui	a0,0x55555
80000aec:	55550513          	addi	a0,a0,1365 # 55555555 <absimm+0x55554d55>
80000af0:	555555b7          	lui	a1,0x55555
80000af4:	55658593          	addi	a1,a1,1366 # 55555556 <absimm+0x55554d56>
80000af8:	02b56633          	rem	a2,a0,a1
80000afc:	1cc0ac23          	sw	a2,472(ra)

80000b00 <inst_139>:
80000b00:	55555537          	lui	a0,0x55555
80000b04:	55550513          	addi	a0,a0,1365 # 55555555 <absimm+0x55554d55>
80000b08:	aaaab5b7          	lui	a1,0xaaaab
80000b0c:	aab58593          	addi	a1,a1,-1365 # aaaaaaab <imm12+0xaaaab2ab>
80000b10:	02b56633          	rem	a2,a0,a1
80000b14:	1cc0ae23          	sw	a2,476(ra)

80000b18 <inst_140>:
80000b18:	55555537          	lui	a0,0x55555
80000b1c:	55550513          	addi	a0,a0,1365 # 55555555 <absimm+0x55554d55>
80000b20:	00600593          	li	a1,6
80000b24:	02b56633          	rem	a2,a0,a1
80000b28:	1ec0a023          	sw	a2,480(ra)

80000b2c <inst_141>:
80000b2c:	55555537          	lui	a0,0x55555
80000b30:	55550513          	addi	a0,a0,1365 # 55555555 <absimm+0x55554d55>
80000b34:	333335b7          	lui	a1,0x33333
80000b38:	33458593          	addi	a1,a1,820 # 33333334 <absimm+0x33332b34>
80000b3c:	02b56633          	rem	a2,a0,a1
80000b40:	1ec0a223          	sw	a2,484(ra)

80000b44 <inst_142>:
80000b44:	55555537          	lui	a0,0x55555
80000b48:	55550513          	addi	a0,a0,1365 # 55555555 <absimm+0x55554d55>
80000b4c:	666665b7          	lui	a1,0x66666
80000b50:	66758593          	addi	a1,a1,1639 # 66666667 <absimm+0x66665e67>
80000b54:	02b56633          	rem	a2,a0,a1
80000b58:	1ec0a423          	sw	a2,488(ra)

80000b5c <inst_143>:
80000b5c:	55555537          	lui	a0,0x55555
80000b60:	55550513          	addi	a0,a0,1365 # 55555555 <absimm+0x55554d55>
80000b64:	ffff55b7          	lui	a1,0xffff5
80000b68:	afd58593          	addi	a1,a1,-1283 # ffff4afd <imm12+0xffff52fd>
80000b6c:	02b56633          	rem	a2,a0,a1
80000b70:	1ec0a623          	sw	a2,492(ra)

80000b74 <inst_144>:
80000b74:	55555537          	lui	a0,0x55555
80000b78:	55550513          	addi	a0,a0,1365 # 55555555 <absimm+0x55554d55>
80000b7c:	0000b5b7          	lui	a1,0xb
80000b80:	50558593          	addi	a1,a1,1285 # b505 <absimm+0xad05>
80000b84:	02b56633          	rem	a2,a0,a1
80000b88:	1ec0a823          	sw	a2,496(ra)

80000b8c <inst_145>:
80000b8c:	aaaab537          	lui	a0,0xaaaab
80000b90:	aaa50513          	addi	a0,a0,-1366 # aaaaaaaa <imm12+0xaaaab2aa>
80000b94:	00300593          	li	a1,3
80000b98:	02b56633          	rem	a2,a0,a1
80000b9c:	1ec0aa23          	sw	a2,500(ra)

80000ba0 <inst_146>:
80000ba0:	aaaab537          	lui	a0,0xaaaab
80000ba4:	aaa50513          	addi	a0,a0,-1366 # aaaaaaaa <imm12+0xaaaab2aa>
80000ba8:	555555b7          	lui	a1,0x55555
80000bac:	55558593          	addi	a1,a1,1365 # 55555555 <absimm+0x55554d55>
80000bb0:	02b56633          	rem	a2,a0,a1
80000bb4:	1ec0ac23          	sw	a2,504(ra)

80000bb8 <inst_147>:
80000bb8:	aaaab537          	lui	a0,0xaaaab
80000bbc:	aaa50513          	addi	a0,a0,-1366 # aaaaaaaa <imm12+0xaaaab2aa>
80000bc0:	aaaab5b7          	lui	a1,0xaaaab
80000bc4:	aaa58593          	addi	a1,a1,-1366 # aaaaaaaa <imm12+0xaaaab2aa>
80000bc8:	02b56633          	rem	a2,a0,a1
80000bcc:	1ec0ae23          	sw	a2,508(ra)

80000bd0 <inst_148>:
80000bd0:	aaaab537          	lui	a0,0xaaaab
80000bd4:	aaa50513          	addi	a0,a0,-1366 # aaaaaaaa <imm12+0xaaaab2aa>
80000bd8:	00500593          	li	a1,5
80000bdc:	02b56633          	rem	a2,a0,a1
80000be0:	20c0a023          	sw	a2,512(ra)

80000be4 <inst_149>:
80000be4:	aaaab537          	lui	a0,0xaaaab
80000be8:	aaa50513          	addi	a0,a0,-1366 # aaaaaaaa <imm12+0xaaaab2aa>
80000bec:	333335b7          	lui	a1,0x33333
80000bf0:	33358593          	addi	a1,a1,819 # 33333333 <absimm+0x33332b33>
80000bf4:	02b56633          	rem	a2,a0,a1
80000bf8:	20c0a223          	sw	a2,516(ra)

80000bfc <inst_150>:
80000bfc:	aaaab537          	lui	a0,0xaaaab
80000c00:	aaa50513          	addi	a0,a0,-1366 # aaaaaaaa <imm12+0xaaaab2aa>
80000c04:	666665b7          	lui	a1,0x66666
80000c08:	66658593          	addi	a1,a1,1638 # 66666666 <absimm+0x66665e66>
80000c0c:	02b56633          	rem	a2,a0,a1
80000c10:	20c0a423          	sw	a2,520(ra)

80000c14 <inst_151>:
80000c14:	aaaab537          	lui	a0,0xaaaab
80000c18:	aaa50513          	addi	a0,a0,-1366 # aaaaaaaa <imm12+0xaaaab2aa>
80000c1c:	ffff55b7          	lui	a1,0xffff5
80000c20:	afc58593          	addi	a1,a1,-1284 # ffff4afc <imm12+0xffff52fc>
80000c24:	02b56633          	rem	a2,a0,a1
80000c28:	20c0a623          	sw	a2,524(ra)

80000c2c <inst_152>:
80000c2c:	aaaab537          	lui	a0,0xaaaab
80000c30:	aaa50513          	addi	a0,a0,-1366 # aaaaaaaa <imm12+0xaaaab2aa>
80000c34:	0000b5b7          	lui	a1,0xb
80000c38:	50458593          	addi	a1,a1,1284 # b504 <absimm+0xad04>
80000c3c:	02b56633          	rem	a2,a0,a1
80000c40:	20c0a823          	sw	a2,528(ra)

80000c44 <inst_153>:
80000c44:	aaaab537          	lui	a0,0xaaaab
80000c48:	aaa50513          	addi	a0,a0,-1366 # aaaaaaaa <imm12+0xaaaab2aa>
80000c4c:	00200593          	li	a1,2
80000c50:	02b56633          	rem	a2,a0,a1
80000c54:	20c0aa23          	sw	a2,532(ra)

80000c58 <inst_154>:
80000c58:	aaaab537          	lui	a0,0xaaaab
80000c5c:	aaa50513          	addi	a0,a0,-1366 # aaaaaaaa <imm12+0xaaaab2aa>
80000c60:	555555b7          	lui	a1,0x55555
80000c64:	55458593          	addi	a1,a1,1364 # 55555554 <absimm+0x55554d54>
80000c68:	02b56633          	rem	a2,a0,a1
80000c6c:	20c0ac23          	sw	a2,536(ra)

80000c70 <inst_155>:
80000c70:	aaaab537          	lui	a0,0xaaaab
80000c74:	aaa50513          	addi	a0,a0,-1366 # aaaaaaaa <imm12+0xaaaab2aa>
80000c78:	00000593          	li	a1,0
80000c7c:	02b56633          	rem	a2,a0,a1
80000c80:	20c0ae23          	sw	a2,540(ra)

80000c84 <inst_156>:
80000c84:	aaaab537          	lui	a0,0xaaaab
80000c88:	aaa50513          	addi	a0,a0,-1366 # aaaaaaaa <imm12+0xaaaab2aa>
80000c8c:	00400593          	li	a1,4
80000c90:	02b56633          	rem	a2,a0,a1
80000c94:	22c0a023          	sw	a2,544(ra)

80000c98 <inst_157>:
80000c98:	aaaab537          	lui	a0,0xaaaab
80000c9c:	aaa50513          	addi	a0,a0,-1366 # aaaaaaaa <imm12+0xaaaab2aa>
80000ca0:	333335b7          	lui	a1,0x33333
80000ca4:	33258593          	addi	a1,a1,818 # 33333332 <absimm+0x33332b32>
80000ca8:	02b56633          	rem	a2,a0,a1
80000cac:	22c0a223          	sw	a2,548(ra)

80000cb0 <inst_158>:
80000cb0:	aaaab537          	lui	a0,0xaaaab
80000cb4:	aaa50513          	addi	a0,a0,-1366 # aaaaaaaa <imm12+0xaaaab2aa>
80000cb8:	666665b7          	lui	a1,0x66666
80000cbc:	66558593          	addi	a1,a1,1637 # 66666665 <absimm+0x66665e65>
80000cc0:	02b56633          	rem	a2,a0,a1
80000cc4:	22c0a423          	sw	a2,552(ra)

80000cc8 <inst_159>:
80000cc8:	aaaab537          	lui	a0,0xaaaab
80000ccc:	aaa50513          	addi	a0,a0,-1366 # aaaaaaaa <imm12+0xaaaab2aa>
80000cd0:	0000b5b7          	lui	a1,0xb
80000cd4:	50358593          	addi	a1,a1,1283 # b503 <absimm+0xad03>
80000cd8:	02b56633          	rem	a2,a0,a1
80000cdc:	22c0a623          	sw	a2,556(ra)

80000ce0 <inst_160>:
80000ce0:	aaaab537          	lui	a0,0xaaaab
80000ce4:	aaa50513          	addi	a0,a0,-1366 # aaaaaaaa <imm12+0xaaaab2aa>
80000ce8:	555555b7          	lui	a1,0x55555
80000cec:	55658593          	addi	a1,a1,1366 # 55555556 <absimm+0x55554d56>
80000cf0:	02b56633          	rem	a2,a0,a1
80000cf4:	22c0a823          	sw	a2,560(ra)

80000cf8 <inst_161>:
80000cf8:	aaaab537          	lui	a0,0xaaaab
80000cfc:	aaa50513          	addi	a0,a0,-1366 # aaaaaaaa <imm12+0xaaaab2aa>
80000d00:	aaaab5b7          	lui	a1,0xaaaab
80000d04:	aab58593          	addi	a1,a1,-1365 # aaaaaaab <imm12+0xaaaab2ab>
80000d08:	02b56633          	rem	a2,a0,a1
80000d0c:	22c0aa23          	sw	a2,564(ra)

80000d10 <inst_162>:
80000d10:	aaaab537          	lui	a0,0xaaaab
80000d14:	aaa50513          	addi	a0,a0,-1366 # aaaaaaaa <imm12+0xaaaab2aa>
80000d18:	00600593          	li	a1,6
80000d1c:	02b56633          	rem	a2,a0,a1
80000d20:	22c0ac23          	sw	a2,568(ra)

80000d24 <inst_163>:
80000d24:	aaaab537          	lui	a0,0xaaaab
80000d28:	aaa50513          	addi	a0,a0,-1366 # aaaaaaaa <imm12+0xaaaab2aa>
80000d2c:	333335b7          	lui	a1,0x33333
80000d30:	33458593          	addi	a1,a1,820 # 33333334 <absimm+0x33332b34>
80000d34:	02b56633          	rem	a2,a0,a1
80000d38:	22c0ae23          	sw	a2,572(ra)

80000d3c <inst_164>:
80000d3c:	aaaab537          	lui	a0,0xaaaab
80000d40:	aaa50513          	addi	a0,a0,-1366 # aaaaaaaa <imm12+0xaaaab2aa>
80000d44:	666665b7          	lui	a1,0x66666
80000d48:	66758593          	addi	a1,a1,1639 # 66666667 <absimm+0x66665e67>
80000d4c:	02b56633          	rem	a2,a0,a1
80000d50:	24c0a023          	sw	a2,576(ra)

80000d54 <inst_165>:
80000d54:	aaaab537          	lui	a0,0xaaaab
80000d58:	aaa50513          	addi	a0,a0,-1366 # aaaaaaaa <imm12+0xaaaab2aa>
80000d5c:	ffff55b7          	lui	a1,0xffff5
80000d60:	afd58593          	addi	a1,a1,-1283 # ffff4afd <imm12+0xffff52fd>
80000d64:	02b56633          	rem	a2,a0,a1
80000d68:	24c0a223          	sw	a2,580(ra)

80000d6c <inst_166>:
80000d6c:	aaaab537          	lui	a0,0xaaaab
80000d70:	aaa50513          	addi	a0,a0,-1366 # aaaaaaaa <imm12+0xaaaab2aa>
80000d74:	0000b5b7          	lui	a1,0xb
80000d78:	50558593          	addi	a1,a1,1285 # b505 <absimm+0xad05>
80000d7c:	02b56633          	rem	a2,a0,a1
80000d80:	24c0a423          	sw	a2,584(ra)

80000d84 <inst_167>:
80000d84:	00500513          	li	a0,5
80000d88:	00300593          	li	a1,3
80000d8c:	02b56633          	rem	a2,a0,a1
80000d90:	24c0a623          	sw	a2,588(ra)

80000d94 <inst_168>:
80000d94:	00500513          	li	a0,5
80000d98:	555555b7          	lui	a1,0x55555
80000d9c:	55558593          	addi	a1,a1,1365 # 55555555 <absimm+0x55554d55>
80000da0:	02b56633          	rem	a2,a0,a1
80000da4:	24c0a823          	sw	a2,592(ra)

80000da8 <inst_169>:
80000da8:	00500513          	li	a0,5
80000dac:	aaaab5b7          	lui	a1,0xaaaab
80000db0:	aaa58593          	addi	a1,a1,-1366 # aaaaaaaa <imm12+0xaaaab2aa>
80000db4:	02b56633          	rem	a2,a0,a1
80000db8:	24c0aa23          	sw	a2,596(ra)

80000dbc <inst_170>:
80000dbc:	00500513          	li	a0,5
80000dc0:	00500593          	li	a1,5
80000dc4:	02b56633          	rem	a2,a0,a1
80000dc8:	24c0ac23          	sw	a2,600(ra)

80000dcc <inst_171>:
80000dcc:	00500513          	li	a0,5
80000dd0:	333335b7          	lui	a1,0x33333
80000dd4:	33358593          	addi	a1,a1,819 # 33333333 <absimm+0x33332b33>
80000dd8:	02b56633          	rem	a2,a0,a1
80000ddc:	24c0ae23          	sw	a2,604(ra)

80000de0 <inst_172>:
80000de0:	00500513          	li	a0,5
80000de4:	666665b7          	lui	a1,0x66666
80000de8:	66658593          	addi	a1,a1,1638 # 66666666 <absimm+0x66665e66>
80000dec:	02b56633          	rem	a2,a0,a1
80000df0:	26c0a023          	sw	a2,608(ra)

80000df4 <inst_173>:
80000df4:	00500513          	li	a0,5
80000df8:	ffff55b7          	lui	a1,0xffff5
80000dfc:	afc58593          	addi	a1,a1,-1284 # ffff4afc <imm12+0xffff52fc>
80000e00:	02b56633          	rem	a2,a0,a1
80000e04:	26c0a223          	sw	a2,612(ra)

80000e08 <inst_174>:
80000e08:	00500513          	li	a0,5
80000e0c:	0000b5b7          	lui	a1,0xb
80000e10:	50458593          	addi	a1,a1,1284 # b504 <absimm+0xad04>
80000e14:	02b56633          	rem	a2,a0,a1
80000e18:	26c0a423          	sw	a2,616(ra)

80000e1c <inst_175>:
80000e1c:	00500513          	li	a0,5
80000e20:	00200593          	li	a1,2
80000e24:	02b56633          	rem	a2,a0,a1
80000e28:	26c0a623          	sw	a2,620(ra)

80000e2c <inst_176>:
80000e2c:	00500513          	li	a0,5
80000e30:	555555b7          	lui	a1,0x55555
80000e34:	55458593          	addi	a1,a1,1364 # 55555554 <absimm+0x55554d54>
80000e38:	02b56633          	rem	a2,a0,a1
80000e3c:	26c0a823          	sw	a2,624(ra)

80000e40 <inst_177>:
80000e40:	00500513          	li	a0,5
80000e44:	00000593          	li	a1,0
80000e48:	02b56633          	rem	a2,a0,a1
80000e4c:	26c0aa23          	sw	a2,628(ra)

80000e50 <inst_178>:
80000e50:	00500513          	li	a0,5
80000e54:	00400593          	li	a1,4
80000e58:	02b56633          	rem	a2,a0,a1
80000e5c:	26c0ac23          	sw	a2,632(ra)

80000e60 <inst_179>:
80000e60:	00500513          	li	a0,5
80000e64:	333335b7          	lui	a1,0x33333
80000e68:	33258593          	addi	a1,a1,818 # 33333332 <absimm+0x33332b32>
80000e6c:	02b56633          	rem	a2,a0,a1
80000e70:	26c0ae23          	sw	a2,636(ra)

80000e74 <inst_180>:
80000e74:	00500513          	li	a0,5
80000e78:	666665b7          	lui	a1,0x66666
80000e7c:	66558593          	addi	a1,a1,1637 # 66666665 <absimm+0x66665e65>
80000e80:	02b56633          	rem	a2,a0,a1
80000e84:	28c0a023          	sw	a2,640(ra)

80000e88 <inst_181>:
80000e88:	00500513          	li	a0,5
80000e8c:	0000b5b7          	lui	a1,0xb
80000e90:	50358593          	addi	a1,a1,1283 # b503 <absimm+0xad03>
80000e94:	02b56633          	rem	a2,a0,a1
80000e98:	28c0a223          	sw	a2,644(ra)

80000e9c <inst_182>:
80000e9c:	00500513          	li	a0,5
80000ea0:	555555b7          	lui	a1,0x55555
80000ea4:	55658593          	addi	a1,a1,1366 # 55555556 <absimm+0x55554d56>
80000ea8:	02b56633          	rem	a2,a0,a1
80000eac:	28c0a423          	sw	a2,648(ra)

80000eb0 <inst_183>:
80000eb0:	00500513          	li	a0,5
80000eb4:	aaaab5b7          	lui	a1,0xaaaab
80000eb8:	aab58593          	addi	a1,a1,-1365 # aaaaaaab <imm12+0xaaaab2ab>
80000ebc:	02b56633          	rem	a2,a0,a1
80000ec0:	28c0a623          	sw	a2,652(ra)

80000ec4 <inst_184>:
80000ec4:	00500513          	li	a0,5
80000ec8:	00600593          	li	a1,6
80000ecc:	02b56633          	rem	a2,a0,a1
80000ed0:	28c0a823          	sw	a2,656(ra)

80000ed4 <inst_185>:
80000ed4:	00500513          	li	a0,5
80000ed8:	333335b7          	lui	a1,0x33333
80000edc:	33458593          	addi	a1,a1,820 # 33333334 <absimm+0x33332b34>
80000ee0:	02b56633          	rem	a2,a0,a1
80000ee4:	28c0aa23          	sw	a2,660(ra)

80000ee8 <inst_186>:
80000ee8:	00500513          	li	a0,5
80000eec:	666665b7          	lui	a1,0x66666
80000ef0:	66758593          	addi	a1,a1,1639 # 66666667 <absimm+0x66665e67>
80000ef4:	02b56633          	rem	a2,a0,a1
80000ef8:	28c0ac23          	sw	a2,664(ra)

80000efc <inst_187>:
80000efc:	00500513          	li	a0,5
80000f00:	ffff55b7          	lui	a1,0xffff5
80000f04:	afd58593          	addi	a1,a1,-1283 # ffff4afd <imm12+0xffff52fd>
80000f08:	02b56633          	rem	a2,a0,a1
80000f0c:	28c0ae23          	sw	a2,668(ra)

80000f10 <inst_188>:
80000f10:	00500513          	li	a0,5
80000f14:	0000b5b7          	lui	a1,0xb
80000f18:	50558593          	addi	a1,a1,1285 # b505 <absimm+0xad05>
80000f1c:	02b56633          	rem	a2,a0,a1
80000f20:	2ac0a023          	sw	a2,672(ra)

80000f24 <inst_189>:
80000f24:	33333537          	lui	a0,0x33333
80000f28:	33350513          	addi	a0,a0,819 # 33333333 <absimm+0x33332b33>
80000f2c:	00300593          	li	a1,3
80000f30:	02b56633          	rem	a2,a0,a1
80000f34:	2ac0a223          	sw	a2,676(ra)

80000f38 <inst_190>:
80000f38:	33333537          	lui	a0,0x33333
80000f3c:	33350513          	addi	a0,a0,819 # 33333333 <absimm+0x33332b33>
80000f40:	555555b7          	lui	a1,0x55555
80000f44:	55558593          	addi	a1,a1,1365 # 55555555 <absimm+0x55554d55>
80000f48:	02b56633          	rem	a2,a0,a1
80000f4c:	2ac0a423          	sw	a2,680(ra)

80000f50 <inst_191>:
80000f50:	33333537          	lui	a0,0x33333
80000f54:	33350513          	addi	a0,a0,819 # 33333333 <absimm+0x33332b33>
80000f58:	aaaab5b7          	lui	a1,0xaaaab
80000f5c:	aaa58593          	addi	a1,a1,-1366 # aaaaaaaa <imm12+0xaaaab2aa>
80000f60:	02b56633          	rem	a2,a0,a1
80000f64:	2ac0a623          	sw	a2,684(ra)

80000f68 <inst_192>:
80000f68:	33333537          	lui	a0,0x33333
80000f6c:	33350513          	addi	a0,a0,819 # 33333333 <absimm+0x33332b33>
80000f70:	00500593          	li	a1,5
80000f74:	02b56633          	rem	a2,a0,a1
80000f78:	2ac0a823          	sw	a2,688(ra)

80000f7c <inst_193>:
80000f7c:	33333537          	lui	a0,0x33333
80000f80:	33350513          	addi	a0,a0,819 # 33333333 <absimm+0x33332b33>
80000f84:	333335b7          	lui	a1,0x33333
80000f88:	33358593          	addi	a1,a1,819 # 33333333 <absimm+0x33332b33>
80000f8c:	02b56633          	rem	a2,a0,a1
80000f90:	2ac0aa23          	sw	a2,692(ra)

80000f94 <inst_194>:
80000f94:	33333537          	lui	a0,0x33333
80000f98:	33350513          	addi	a0,a0,819 # 33333333 <absimm+0x33332b33>
80000f9c:	666665b7          	lui	a1,0x66666
80000fa0:	66658593          	addi	a1,a1,1638 # 66666666 <absimm+0x66665e66>
80000fa4:	02b56633          	rem	a2,a0,a1
80000fa8:	2ac0ac23          	sw	a2,696(ra)

80000fac <inst_195>:
80000fac:	33333537          	lui	a0,0x33333
80000fb0:	33350513          	addi	a0,a0,819 # 33333333 <absimm+0x33332b33>
80000fb4:	ffff55b7          	lui	a1,0xffff5
80000fb8:	afc58593          	addi	a1,a1,-1284 # ffff4afc <imm12+0xffff52fc>
80000fbc:	02b56633          	rem	a2,a0,a1
80000fc0:	2ac0ae23          	sw	a2,700(ra)

80000fc4 <inst_196>:
80000fc4:	33333537          	lui	a0,0x33333
80000fc8:	33350513          	addi	a0,a0,819 # 33333333 <absimm+0x33332b33>
80000fcc:	0000b5b7          	lui	a1,0xb
80000fd0:	50458593          	addi	a1,a1,1284 # b504 <absimm+0xad04>
80000fd4:	02b56633          	rem	a2,a0,a1
80000fd8:	2cc0a023          	sw	a2,704(ra)

80000fdc <inst_197>:
80000fdc:	33333537          	lui	a0,0x33333
80000fe0:	33350513          	addi	a0,a0,819 # 33333333 <absimm+0x33332b33>
80000fe4:	00200593          	li	a1,2
80000fe8:	02b56633          	rem	a2,a0,a1
80000fec:	2cc0a223          	sw	a2,708(ra)

80000ff0 <inst_198>:
80000ff0:	33333537          	lui	a0,0x33333
80000ff4:	33350513          	addi	a0,a0,819 # 33333333 <absimm+0x33332b33>
80000ff8:	555555b7          	lui	a1,0x55555
80000ffc:	55458593          	addi	a1,a1,1364 # 55555554 <absimm+0x55554d54>
80001000:	02b56633          	rem	a2,a0,a1
80001004:	2cc0a423          	sw	a2,712(ra)

80001008 <inst_199>:
80001008:	33333537          	lui	a0,0x33333
8000100c:	33350513          	addi	a0,a0,819 # 33333333 <absimm+0x33332b33>
80001010:	00000593          	li	a1,0
80001014:	02b56633          	rem	a2,a0,a1
80001018:	2cc0a623          	sw	a2,716(ra)

8000101c <inst_200>:
8000101c:	33333537          	lui	a0,0x33333
80001020:	33350513          	addi	a0,a0,819 # 33333333 <absimm+0x33332b33>
80001024:	00400593          	li	a1,4
80001028:	02b56633          	rem	a2,a0,a1
8000102c:	2cc0a823          	sw	a2,720(ra)

80001030 <inst_201>:
80001030:	33333537          	lui	a0,0x33333
80001034:	33350513          	addi	a0,a0,819 # 33333333 <absimm+0x33332b33>
80001038:	333335b7          	lui	a1,0x33333
8000103c:	33258593          	addi	a1,a1,818 # 33333332 <absimm+0x33332b32>
80001040:	02b56633          	rem	a2,a0,a1
80001044:	2cc0aa23          	sw	a2,724(ra)

80001048 <inst_202>:
80001048:	33333537          	lui	a0,0x33333
8000104c:	33350513          	addi	a0,a0,819 # 33333333 <absimm+0x33332b33>
80001050:	666665b7          	lui	a1,0x66666
80001054:	66558593          	addi	a1,a1,1637 # 66666665 <absimm+0x66665e65>
80001058:	02b56633          	rem	a2,a0,a1
8000105c:	2cc0ac23          	sw	a2,728(ra)

80001060 <inst_203>:
80001060:	33333537          	lui	a0,0x33333
80001064:	33350513          	addi	a0,a0,819 # 33333333 <absimm+0x33332b33>
80001068:	0000b5b7          	lui	a1,0xb
8000106c:	50358593          	addi	a1,a1,1283 # b503 <absimm+0xad03>
80001070:	02b56633          	rem	a2,a0,a1
80001074:	2cc0ae23          	sw	a2,732(ra)

80001078 <inst_204>:
80001078:	33333537          	lui	a0,0x33333
8000107c:	33350513          	addi	a0,a0,819 # 33333333 <absimm+0x33332b33>
80001080:	555555b7          	lui	a1,0x55555
80001084:	55658593          	addi	a1,a1,1366 # 55555556 <absimm+0x55554d56>
80001088:	02b56633          	rem	a2,a0,a1
8000108c:	2ec0a023          	sw	a2,736(ra)

80001090 <inst_205>:
80001090:	33333537          	lui	a0,0x33333
80001094:	33350513          	addi	a0,a0,819 # 33333333 <absimm+0x33332b33>
80001098:	aaaab5b7          	lui	a1,0xaaaab
8000109c:	aab58593          	addi	a1,a1,-1365 # aaaaaaab <imm12+0xaaaab2ab>
800010a0:	02b56633          	rem	a2,a0,a1
800010a4:	2ec0a223          	sw	a2,740(ra)

800010a8 <inst_206>:
800010a8:	33333537          	lui	a0,0x33333
800010ac:	33350513          	addi	a0,a0,819 # 33333333 <absimm+0x33332b33>
800010b0:	00600593          	li	a1,6
800010b4:	02b56633          	rem	a2,a0,a1
800010b8:	2ec0a423          	sw	a2,744(ra)

800010bc <inst_207>:
800010bc:	33333537          	lui	a0,0x33333
800010c0:	33350513          	addi	a0,a0,819 # 33333333 <absimm+0x33332b33>
800010c4:	333335b7          	lui	a1,0x33333
800010c8:	33458593          	addi	a1,a1,820 # 33333334 <absimm+0x33332b34>
800010cc:	02b56633          	rem	a2,a0,a1
800010d0:	2ec0a623          	sw	a2,748(ra)

800010d4 <inst_208>:
800010d4:	33333537          	lui	a0,0x33333
800010d8:	33350513          	addi	a0,a0,819 # 33333333 <absimm+0x33332b33>
800010dc:	666665b7          	lui	a1,0x66666
800010e0:	66758593          	addi	a1,a1,1639 # 66666667 <absimm+0x66665e67>
800010e4:	02b56633          	rem	a2,a0,a1
800010e8:	2ec0a823          	sw	a2,752(ra)

800010ec <inst_209>:
800010ec:	33333537          	lui	a0,0x33333
800010f0:	33350513          	addi	a0,a0,819 # 33333333 <absimm+0x33332b33>
800010f4:	ffff55b7          	lui	a1,0xffff5
800010f8:	afd58593          	addi	a1,a1,-1283 # ffff4afd <imm12+0xffff52fd>
800010fc:	02b56633          	rem	a2,a0,a1
80001100:	2ec0aa23          	sw	a2,756(ra)

80001104 <inst_210>:
80001104:	33333537          	lui	a0,0x33333
80001108:	33350513          	addi	a0,a0,819 # 33333333 <absimm+0x33332b33>
8000110c:	0000b5b7          	lui	a1,0xb
80001110:	50558593          	addi	a1,a1,1285 # b505 <absimm+0xad05>
80001114:	02b56633          	rem	a2,a0,a1
80001118:	2ec0ac23          	sw	a2,760(ra)

8000111c <inst_211>:
8000111c:	66666537          	lui	a0,0x66666
80001120:	66650513          	addi	a0,a0,1638 # 66666666 <absimm+0x66665e66>
80001124:	00300593          	li	a1,3
80001128:	02b56633          	rem	a2,a0,a1
8000112c:	2ec0ae23          	sw	a2,764(ra)

80001130 <inst_212>:
80001130:	66666537          	lui	a0,0x66666
80001134:	66650513          	addi	a0,a0,1638 # 66666666 <absimm+0x66665e66>
80001138:	555555b7          	lui	a1,0x55555
8000113c:	55558593          	addi	a1,a1,1365 # 55555555 <absimm+0x55554d55>
80001140:	02b56633          	rem	a2,a0,a1
80001144:	30c0a023          	sw	a2,768(ra)

80001148 <inst_213>:
80001148:	66666537          	lui	a0,0x66666
8000114c:	66650513          	addi	a0,a0,1638 # 66666666 <absimm+0x66665e66>
80001150:	aaaab5b7          	lui	a1,0xaaaab
80001154:	aaa58593          	addi	a1,a1,-1366 # aaaaaaaa <imm12+0xaaaab2aa>
80001158:	02b56633          	rem	a2,a0,a1
8000115c:	30c0a223          	sw	a2,772(ra)

80001160 <inst_214>:
80001160:	66666537          	lui	a0,0x66666
80001164:	66650513          	addi	a0,a0,1638 # 66666666 <absimm+0x66665e66>
80001168:	00500593          	li	a1,5
8000116c:	02b56633          	rem	a2,a0,a1
80001170:	30c0a423          	sw	a2,776(ra)

80001174 <inst_215>:
80001174:	66666537          	lui	a0,0x66666
80001178:	66650513          	addi	a0,a0,1638 # 66666666 <absimm+0x66665e66>
8000117c:	333335b7          	lui	a1,0x33333
80001180:	33358593          	addi	a1,a1,819 # 33333333 <absimm+0x33332b33>
80001184:	02b56633          	rem	a2,a0,a1
80001188:	30c0a623          	sw	a2,780(ra)

8000118c <inst_216>:
8000118c:	66666537          	lui	a0,0x66666
80001190:	66650513          	addi	a0,a0,1638 # 66666666 <absimm+0x66665e66>
80001194:	666665b7          	lui	a1,0x66666
80001198:	66658593          	addi	a1,a1,1638 # 66666666 <absimm+0x66665e66>
8000119c:	02b56633          	rem	a2,a0,a1
800011a0:	30c0a823          	sw	a2,784(ra)

800011a4 <inst_217>:
800011a4:	66666537          	lui	a0,0x66666
800011a8:	66650513          	addi	a0,a0,1638 # 66666666 <absimm+0x66665e66>
800011ac:	ffff55b7          	lui	a1,0xffff5
800011b0:	afc58593          	addi	a1,a1,-1284 # ffff4afc <imm12+0xffff52fc>
800011b4:	02b56633          	rem	a2,a0,a1
800011b8:	30c0aa23          	sw	a2,788(ra)

800011bc <inst_218>:
800011bc:	66666537          	lui	a0,0x66666
800011c0:	66650513          	addi	a0,a0,1638 # 66666666 <absimm+0x66665e66>
800011c4:	0000b5b7          	lui	a1,0xb
800011c8:	50458593          	addi	a1,a1,1284 # b504 <absimm+0xad04>
800011cc:	02b56633          	rem	a2,a0,a1
800011d0:	30c0ac23          	sw	a2,792(ra)

800011d4 <inst_219>:
800011d4:	66666537          	lui	a0,0x66666
800011d8:	66650513          	addi	a0,a0,1638 # 66666666 <absimm+0x66665e66>
800011dc:	00200593          	li	a1,2
800011e0:	02b56633          	rem	a2,a0,a1
800011e4:	30c0ae23          	sw	a2,796(ra)

800011e8 <inst_220>:
800011e8:	66666537          	lui	a0,0x66666
800011ec:	66650513          	addi	a0,a0,1638 # 66666666 <absimm+0x66665e66>
800011f0:	555555b7          	lui	a1,0x55555
800011f4:	55458593          	addi	a1,a1,1364 # 55555554 <absimm+0x55554d54>
800011f8:	02b56633          	rem	a2,a0,a1
800011fc:	32c0a023          	sw	a2,800(ra)

80001200 <inst_221>:
80001200:	66666537          	lui	a0,0x66666
80001204:	66650513          	addi	a0,a0,1638 # 66666666 <absimm+0x66665e66>
80001208:	00000593          	li	a1,0
8000120c:	02b56633          	rem	a2,a0,a1
80001210:	32c0a223          	sw	a2,804(ra)

80001214 <inst_222>:
80001214:	66666537          	lui	a0,0x66666
80001218:	66650513          	addi	a0,a0,1638 # 66666666 <absimm+0x66665e66>
8000121c:	00400593          	li	a1,4
80001220:	02b56633          	rem	a2,a0,a1
80001224:	32c0a423          	sw	a2,808(ra)

80001228 <inst_223>:
80001228:	66666537          	lui	a0,0x66666
8000122c:	66650513          	addi	a0,a0,1638 # 66666666 <absimm+0x66665e66>
80001230:	333335b7          	lui	a1,0x33333
80001234:	33258593          	addi	a1,a1,818 # 33333332 <absimm+0x33332b32>
80001238:	02b56633          	rem	a2,a0,a1
8000123c:	32c0a623          	sw	a2,812(ra)

80001240 <inst_224>:
80001240:	66666537          	lui	a0,0x66666
80001244:	66650513          	addi	a0,a0,1638 # 66666666 <absimm+0x66665e66>
80001248:	666665b7          	lui	a1,0x66666
8000124c:	66558593          	addi	a1,a1,1637 # 66666665 <absimm+0x66665e65>
80001250:	02b56633          	rem	a2,a0,a1
80001254:	32c0a823          	sw	a2,816(ra)

80001258 <inst_225>:
80001258:	66666537          	lui	a0,0x66666
8000125c:	66650513          	addi	a0,a0,1638 # 66666666 <absimm+0x66665e66>
80001260:	0000b5b7          	lui	a1,0xb
80001264:	50358593          	addi	a1,a1,1283 # b503 <absimm+0xad03>
80001268:	02b56633          	rem	a2,a0,a1
8000126c:	32c0aa23          	sw	a2,820(ra)

80001270 <inst_226>:
80001270:	66666537          	lui	a0,0x66666
80001274:	66650513          	addi	a0,a0,1638 # 66666666 <absimm+0x66665e66>
80001278:	555555b7          	lui	a1,0x55555
8000127c:	55658593          	addi	a1,a1,1366 # 55555556 <absimm+0x55554d56>
80001280:	02b56633          	rem	a2,a0,a1
80001284:	32c0ac23          	sw	a2,824(ra)

80001288 <inst_227>:
80001288:	66666537          	lui	a0,0x66666
8000128c:	66650513          	addi	a0,a0,1638 # 66666666 <absimm+0x66665e66>
80001290:	aaaab5b7          	lui	a1,0xaaaab
80001294:	aab58593          	addi	a1,a1,-1365 # aaaaaaab <imm12+0xaaaab2ab>
80001298:	02b56633          	rem	a2,a0,a1
8000129c:	32c0ae23          	sw	a2,828(ra)

800012a0 <inst_228>:
800012a0:	66666537          	lui	a0,0x66666
800012a4:	66650513          	addi	a0,a0,1638 # 66666666 <absimm+0x66665e66>
800012a8:	00600593          	li	a1,6
800012ac:	02b56633          	rem	a2,a0,a1
800012b0:	34c0a023          	sw	a2,832(ra)

800012b4 <inst_229>:
800012b4:	66666537          	lui	a0,0x66666
800012b8:	66650513          	addi	a0,a0,1638 # 66666666 <absimm+0x66665e66>
800012bc:	333335b7          	lui	a1,0x33333
800012c0:	33458593          	addi	a1,a1,820 # 33333334 <absimm+0x33332b34>
800012c4:	02b56633          	rem	a2,a0,a1
800012c8:	34c0a223          	sw	a2,836(ra)

800012cc <inst_230>:
800012cc:	66666537          	lui	a0,0x66666
800012d0:	66650513          	addi	a0,a0,1638 # 66666666 <absimm+0x66665e66>
800012d4:	666665b7          	lui	a1,0x66666
800012d8:	66758593          	addi	a1,a1,1639 # 66666667 <absimm+0x66665e67>
800012dc:	02b56633          	rem	a2,a0,a1
800012e0:	34c0a423          	sw	a2,840(ra)

800012e4 <inst_231>:
800012e4:	66666537          	lui	a0,0x66666
800012e8:	66650513          	addi	a0,a0,1638 # 66666666 <absimm+0x66665e66>
800012ec:	ffff55b7          	lui	a1,0xffff5
800012f0:	afd58593          	addi	a1,a1,-1283 # ffff4afd <imm12+0xffff52fd>
800012f4:	02b56633          	rem	a2,a0,a1
800012f8:	34c0a623          	sw	a2,844(ra)

800012fc <inst_232>:
800012fc:	66666537          	lui	a0,0x66666
80001300:	66650513          	addi	a0,a0,1638 # 66666666 <absimm+0x66665e66>
80001304:	0000b5b7          	lui	a1,0xb
80001308:	50558593          	addi	a1,a1,1285 # b505 <absimm+0xad05>
8000130c:	02b56633          	rem	a2,a0,a1
80001310:	34c0a823          	sw	a2,848(ra)

80001314 <inst_233>:
80001314:	ffff5537          	lui	a0,0xffff5
80001318:	afc50513          	addi	a0,a0,-1284 # ffff4afc <imm12+0xffff52fc>
8000131c:	00300593          	li	a1,3
80001320:	02b56633          	rem	a2,a0,a1
80001324:	34c0aa23          	sw	a2,852(ra)

80001328 <inst_234>:
80001328:	ffff5537          	lui	a0,0xffff5
8000132c:	afc50513          	addi	a0,a0,-1284 # ffff4afc <imm12+0xffff52fc>
80001330:	555555b7          	lui	a1,0x55555
80001334:	55558593          	addi	a1,a1,1365 # 55555555 <absimm+0x55554d55>
80001338:	02b56633          	rem	a2,a0,a1
8000133c:	34c0ac23          	sw	a2,856(ra)

80001340 <inst_235>:
80001340:	ffff5537          	lui	a0,0xffff5
80001344:	afc50513          	addi	a0,a0,-1284 # ffff4afc <imm12+0xffff52fc>
80001348:	aaaab5b7          	lui	a1,0xaaaab
8000134c:	aaa58593          	addi	a1,a1,-1366 # aaaaaaaa <imm12+0xaaaab2aa>
80001350:	02b56633          	rem	a2,a0,a1
80001354:	34c0ae23          	sw	a2,860(ra)

80001358 <inst_236>:
80001358:	ffff5537          	lui	a0,0xffff5
8000135c:	afc50513          	addi	a0,a0,-1284 # ffff4afc <imm12+0xffff52fc>
80001360:	00500593          	li	a1,5
80001364:	02b56633          	rem	a2,a0,a1
80001368:	36c0a023          	sw	a2,864(ra)

8000136c <inst_237>:
8000136c:	ffff5537          	lui	a0,0xffff5
80001370:	afc50513          	addi	a0,a0,-1284 # ffff4afc <imm12+0xffff52fc>
80001374:	333335b7          	lui	a1,0x33333
80001378:	33358593          	addi	a1,a1,819 # 33333333 <absimm+0x33332b33>
8000137c:	02b56633          	rem	a2,a0,a1
80001380:	36c0a223          	sw	a2,868(ra)

80001384 <inst_238>:
80001384:	ffff5537          	lui	a0,0xffff5
80001388:	afc50513          	addi	a0,a0,-1284 # ffff4afc <imm12+0xffff52fc>
8000138c:	666665b7          	lui	a1,0x66666
80001390:	66658593          	addi	a1,a1,1638 # 66666666 <absimm+0x66665e66>
80001394:	02b56633          	rem	a2,a0,a1
80001398:	36c0a423          	sw	a2,872(ra)

8000139c <inst_239>:
8000139c:	ffff5537          	lui	a0,0xffff5
800013a0:	afc50513          	addi	a0,a0,-1284 # ffff4afc <imm12+0xffff52fc>
800013a4:	ffff55b7          	lui	a1,0xffff5
800013a8:	afc58593          	addi	a1,a1,-1284 # ffff4afc <imm12+0xffff52fc>
800013ac:	02b56633          	rem	a2,a0,a1
800013b0:	36c0a623          	sw	a2,876(ra)

800013b4 <inst_240>:
800013b4:	ffff5537          	lui	a0,0xffff5
800013b8:	afc50513          	addi	a0,a0,-1284 # ffff4afc <imm12+0xffff52fc>
800013bc:	0000b5b7          	lui	a1,0xb
800013c0:	50458593          	addi	a1,a1,1284 # b504 <absimm+0xad04>
800013c4:	02b56633          	rem	a2,a0,a1
800013c8:	36c0a823          	sw	a2,880(ra)

800013cc <inst_241>:
800013cc:	ffff5537          	lui	a0,0xffff5
800013d0:	afc50513          	addi	a0,a0,-1284 # ffff4afc <imm12+0xffff52fc>
800013d4:	00200593          	li	a1,2
800013d8:	02b56633          	rem	a2,a0,a1
800013dc:	36c0aa23          	sw	a2,884(ra)

800013e0 <inst_242>:
800013e0:	ffff5537          	lui	a0,0xffff5
800013e4:	afc50513          	addi	a0,a0,-1284 # ffff4afc <imm12+0xffff52fc>
800013e8:	555555b7          	lui	a1,0x55555
800013ec:	55458593          	addi	a1,a1,1364 # 55555554 <absimm+0x55554d54>
800013f0:	02b56633          	rem	a2,a0,a1
800013f4:	36c0ac23          	sw	a2,888(ra)

800013f8 <inst_243>:
800013f8:	ffff5537          	lui	a0,0xffff5
800013fc:	afc50513          	addi	a0,a0,-1284 # ffff4afc <imm12+0xffff52fc>
80001400:	00000593          	li	a1,0
80001404:	02b56633          	rem	a2,a0,a1
80001408:	36c0ae23          	sw	a2,892(ra)

8000140c <inst_244>:
8000140c:	ffff5537          	lui	a0,0xffff5
80001410:	afc50513          	addi	a0,a0,-1284 # ffff4afc <imm12+0xffff52fc>
80001414:	00400593          	li	a1,4
80001418:	02b56633          	rem	a2,a0,a1
8000141c:	38c0a023          	sw	a2,896(ra)

80001420 <inst_245>:
80001420:	ffff5537          	lui	a0,0xffff5
80001424:	afc50513          	addi	a0,a0,-1284 # ffff4afc <imm12+0xffff52fc>
80001428:	333335b7          	lui	a1,0x33333
8000142c:	33258593          	addi	a1,a1,818 # 33333332 <absimm+0x33332b32>
80001430:	02b56633          	rem	a2,a0,a1
80001434:	38c0a223          	sw	a2,900(ra)

80001438 <inst_246>:
80001438:	ffff5537          	lui	a0,0xffff5
8000143c:	afc50513          	addi	a0,a0,-1284 # ffff4afc <imm12+0xffff52fc>
80001440:	666665b7          	lui	a1,0x66666
80001444:	66558593          	addi	a1,a1,1637 # 66666665 <absimm+0x66665e65>
80001448:	02b56633          	rem	a2,a0,a1
8000144c:	38c0a423          	sw	a2,904(ra)

80001450 <inst_247>:
80001450:	ffff5537          	lui	a0,0xffff5
80001454:	afc50513          	addi	a0,a0,-1284 # ffff4afc <imm12+0xffff52fc>
80001458:	0000b5b7          	lui	a1,0xb
8000145c:	50358593          	addi	a1,a1,1283 # b503 <absimm+0xad03>
80001460:	02b56633          	rem	a2,a0,a1
80001464:	38c0a623          	sw	a2,908(ra)

80001468 <inst_248>:
80001468:	ffff5537          	lui	a0,0xffff5
8000146c:	afc50513          	addi	a0,a0,-1284 # ffff4afc <imm12+0xffff52fc>
80001470:	555555b7          	lui	a1,0x55555
80001474:	55658593          	addi	a1,a1,1366 # 55555556 <absimm+0x55554d56>
80001478:	02b56633          	rem	a2,a0,a1
8000147c:	38c0a823          	sw	a2,912(ra)

80001480 <inst_249>:
80001480:	ffff5537          	lui	a0,0xffff5
80001484:	afc50513          	addi	a0,a0,-1284 # ffff4afc <imm12+0xffff52fc>
80001488:	aaaab5b7          	lui	a1,0xaaaab
8000148c:	aab58593          	addi	a1,a1,-1365 # aaaaaaab <imm12+0xaaaab2ab>
80001490:	02b56633          	rem	a2,a0,a1
80001494:	38c0aa23          	sw	a2,916(ra)

80001498 <inst_250>:
80001498:	ffff5537          	lui	a0,0xffff5
8000149c:	afc50513          	addi	a0,a0,-1284 # ffff4afc <imm12+0xffff52fc>
800014a0:	00600593          	li	a1,6
800014a4:	02b56633          	rem	a2,a0,a1
800014a8:	38c0ac23          	sw	a2,920(ra)

800014ac <inst_251>:
800014ac:	ffff5537          	lui	a0,0xffff5
800014b0:	afc50513          	addi	a0,a0,-1284 # ffff4afc <imm12+0xffff52fc>
800014b4:	333335b7          	lui	a1,0x33333
800014b8:	33458593          	addi	a1,a1,820 # 33333334 <absimm+0x33332b34>
800014bc:	02b56633          	rem	a2,a0,a1
800014c0:	38c0ae23          	sw	a2,924(ra)

800014c4 <inst_252>:
800014c4:	ffff5537          	lui	a0,0xffff5
800014c8:	afc50513          	addi	a0,a0,-1284 # ffff4afc <imm12+0xffff52fc>
800014cc:	666665b7          	lui	a1,0x66666
800014d0:	66758593          	addi	a1,a1,1639 # 66666667 <absimm+0x66665e67>
800014d4:	02b56633          	rem	a2,a0,a1
800014d8:	3ac0a023          	sw	a2,928(ra)

800014dc <inst_253>:
800014dc:	ffff5537          	lui	a0,0xffff5
800014e0:	afc50513          	addi	a0,a0,-1284 # ffff4afc <imm12+0xffff52fc>
800014e4:	ffff55b7          	lui	a1,0xffff5
800014e8:	afd58593          	addi	a1,a1,-1283 # ffff4afd <imm12+0xffff52fd>
800014ec:	02b56633          	rem	a2,a0,a1
800014f0:	3ac0a223          	sw	a2,932(ra)

800014f4 <inst_254>:
800014f4:	ffff5537          	lui	a0,0xffff5
800014f8:	afc50513          	addi	a0,a0,-1284 # ffff4afc <imm12+0xffff52fc>
800014fc:	0000b5b7          	lui	a1,0xb
80001500:	50558593          	addi	a1,a1,1285 # b505 <absimm+0xad05>
80001504:	02b56633          	rem	a2,a0,a1
80001508:	3ac0a423          	sw	a2,936(ra)

8000150c <inst_255>:
8000150c:	0000b537          	lui	a0,0xb
80001510:	50450513          	addi	a0,a0,1284 # b504 <absimm+0xad04>
80001514:	00300593          	li	a1,3
80001518:	02b56633          	rem	a2,a0,a1
8000151c:	3ac0a623          	sw	a2,940(ra)

80001520 <inst_256>:
80001520:	0000b537          	lui	a0,0xb
80001524:	50450513          	addi	a0,a0,1284 # b504 <absimm+0xad04>
80001528:	555555b7          	lui	a1,0x55555
8000152c:	55558593          	addi	a1,a1,1365 # 55555555 <absimm+0x55554d55>
80001530:	02b56633          	rem	a2,a0,a1
80001534:	3ac0a823          	sw	a2,944(ra)

80001538 <inst_257>:
80001538:	0000b537          	lui	a0,0xb
8000153c:	50450513          	addi	a0,a0,1284 # b504 <absimm+0xad04>
80001540:	aaaab5b7          	lui	a1,0xaaaab
80001544:	aaa58593          	addi	a1,a1,-1366 # aaaaaaaa <imm12+0xaaaab2aa>
80001548:	02b56633          	rem	a2,a0,a1
8000154c:	3ac0aa23          	sw	a2,948(ra)

80001550 <inst_258>:
80001550:	0000b537          	lui	a0,0xb
80001554:	50450513          	addi	a0,a0,1284 # b504 <absimm+0xad04>
80001558:	00500593          	li	a1,5
8000155c:	02b56633          	rem	a2,a0,a1
80001560:	3ac0ac23          	sw	a2,952(ra)

80001564 <inst_259>:
80001564:	0000b537          	lui	a0,0xb
80001568:	50450513          	addi	a0,a0,1284 # b504 <absimm+0xad04>
8000156c:	333335b7          	lui	a1,0x33333
80001570:	33358593          	addi	a1,a1,819 # 33333333 <absimm+0x33332b33>
80001574:	02b56633          	rem	a2,a0,a1
80001578:	3ac0ae23          	sw	a2,956(ra)

8000157c <inst_260>:
8000157c:	0000b537          	lui	a0,0xb
80001580:	50450513          	addi	a0,a0,1284 # b504 <absimm+0xad04>
80001584:	666665b7          	lui	a1,0x66666
80001588:	66658593          	addi	a1,a1,1638 # 66666666 <absimm+0x66665e66>
8000158c:	02b56633          	rem	a2,a0,a1
80001590:	3cc0a023          	sw	a2,960(ra)

80001594 <inst_261>:
80001594:	0000b537          	lui	a0,0xb
80001598:	50450513          	addi	a0,a0,1284 # b504 <absimm+0xad04>
8000159c:	ffff55b7          	lui	a1,0xffff5
800015a0:	afc58593          	addi	a1,a1,-1284 # ffff4afc <imm12+0xffff52fc>
800015a4:	02b56633          	rem	a2,a0,a1
800015a8:	3cc0a223          	sw	a2,964(ra)

800015ac <inst_262>:
800015ac:	0000b537          	lui	a0,0xb
800015b0:	50450513          	addi	a0,a0,1284 # b504 <absimm+0xad04>
800015b4:	00200593          	li	a1,2
800015b8:	02b56633          	rem	a2,a0,a1
800015bc:	3cc0a423          	sw	a2,968(ra)

800015c0 <inst_263>:
800015c0:	0000b537          	lui	a0,0xb
800015c4:	50450513          	addi	a0,a0,1284 # b504 <absimm+0xad04>
800015c8:	555555b7          	lui	a1,0x55555
800015cc:	55458593          	addi	a1,a1,1364 # 55555554 <absimm+0x55554d54>
800015d0:	02b56633          	rem	a2,a0,a1
800015d4:	3cc0a623          	sw	a2,972(ra)

800015d8 <inst_264>:
800015d8:	0000b537          	lui	a0,0xb
800015dc:	50450513          	addi	a0,a0,1284 # b504 <absimm+0xad04>
800015e0:	00000593          	li	a1,0
800015e4:	02b56633          	rem	a2,a0,a1
800015e8:	3cc0a823          	sw	a2,976(ra)

800015ec <inst_265>:
800015ec:	0000b537          	lui	a0,0xb
800015f0:	50450513          	addi	a0,a0,1284 # b504 <absimm+0xad04>
800015f4:	00400593          	li	a1,4
800015f8:	02b56633          	rem	a2,a0,a1
800015fc:	3cc0aa23          	sw	a2,980(ra)

80001600 <inst_266>:
80001600:	0000b537          	lui	a0,0xb
80001604:	50450513          	addi	a0,a0,1284 # b504 <absimm+0xad04>
80001608:	333335b7          	lui	a1,0x33333
8000160c:	33258593          	addi	a1,a1,818 # 33333332 <absimm+0x33332b32>
80001610:	02b56633          	rem	a2,a0,a1
80001614:	3cc0ac23          	sw	a2,984(ra)

80001618 <inst_267>:
80001618:	0000b537          	lui	a0,0xb
8000161c:	50450513          	addi	a0,a0,1284 # b504 <absimm+0xad04>
80001620:	666665b7          	lui	a1,0x66666
80001624:	66558593          	addi	a1,a1,1637 # 66666665 <absimm+0x66665e65>
80001628:	02b56633          	rem	a2,a0,a1
8000162c:	3cc0ae23          	sw	a2,988(ra)

80001630 <inst_268>:
80001630:	0000b537          	lui	a0,0xb
80001634:	50450513          	addi	a0,a0,1284 # b504 <absimm+0xad04>
80001638:	0000b5b7          	lui	a1,0xb
8000163c:	50358593          	addi	a1,a1,1283 # b503 <absimm+0xad03>
80001640:	02b56633          	rem	a2,a0,a1
80001644:	3ec0a023          	sw	a2,992(ra)

80001648 <inst_269>:
80001648:	0000b537          	lui	a0,0xb
8000164c:	50450513          	addi	a0,a0,1284 # b504 <absimm+0xad04>
80001650:	555555b7          	lui	a1,0x55555
80001654:	55658593          	addi	a1,a1,1366 # 55555556 <absimm+0x55554d56>
80001658:	02b56633          	rem	a2,a0,a1
8000165c:	3ec0a223          	sw	a2,996(ra)

80001660 <inst_270>:
80001660:	0000b537          	lui	a0,0xb
80001664:	50450513          	addi	a0,a0,1284 # b504 <absimm+0xad04>
80001668:	aaaab5b7          	lui	a1,0xaaaab
8000166c:	aab58593          	addi	a1,a1,-1365 # aaaaaaab <imm12+0xaaaab2ab>
80001670:	02b56633          	rem	a2,a0,a1
80001674:	3ec0a423          	sw	a2,1000(ra)

80001678 <inst_271>:
80001678:	0000b537          	lui	a0,0xb
8000167c:	50450513          	addi	a0,a0,1284 # b504 <absimm+0xad04>
80001680:	00600593          	li	a1,6
80001684:	02b56633          	rem	a2,a0,a1
80001688:	3ec0a623          	sw	a2,1004(ra)

8000168c <inst_272>:
8000168c:	0000b537          	lui	a0,0xb
80001690:	50450513          	addi	a0,a0,1284 # b504 <absimm+0xad04>
80001694:	333335b7          	lui	a1,0x33333
80001698:	33458593          	addi	a1,a1,820 # 33333334 <absimm+0x33332b34>
8000169c:	02b56633          	rem	a2,a0,a1
800016a0:	3ec0a823          	sw	a2,1008(ra)

800016a4 <inst_273>:
800016a4:	0000b537          	lui	a0,0xb
800016a8:	50450513          	addi	a0,a0,1284 # b504 <absimm+0xad04>
800016ac:	666665b7          	lui	a1,0x66666
800016b0:	66758593          	addi	a1,a1,1639 # 66666667 <absimm+0x66665e67>
800016b4:	02b56633          	rem	a2,a0,a1
800016b8:	3ec0aa23          	sw	a2,1012(ra)

800016bc <inst_274>:
800016bc:	0000b537          	lui	a0,0xb
800016c0:	50450513          	addi	a0,a0,1284 # b504 <absimm+0xad04>
800016c4:	ffff55b7          	lui	a1,0xffff5
800016c8:	afd58593          	addi	a1,a1,-1283 # ffff4afd <imm12+0xffff52fd>
800016cc:	02b56633          	rem	a2,a0,a1
800016d0:	3ec0ac23          	sw	a2,1016(ra)

800016d4 <inst_275>:
800016d4:	0000b537          	lui	a0,0xb
800016d8:	50450513          	addi	a0,a0,1284 # b504 <absimm+0xad04>
800016dc:	0000b5b7          	lui	a1,0xb
800016e0:	50558593          	addi	a1,a1,1285 # b505 <absimm+0xad05>
800016e4:	02b56633          	rem	a2,a0,a1
800016e8:	3ec0ae23          	sw	a2,1020(ra)

800016ec <inst_276>:
800016ec:	00200513          	li	a0,2
800016f0:	00300593          	li	a1,3
800016f4:	02b56633          	rem	a2,a0,a1
800016f8:	40c0a023          	sw	a2,1024(ra)

800016fc <inst_277>:
800016fc:	00200513          	li	a0,2
80001700:	555555b7          	lui	a1,0x55555
80001704:	55558593          	addi	a1,a1,1365 # 55555555 <absimm+0x55554d55>
80001708:	02b56633          	rem	a2,a0,a1
8000170c:	40c0a223          	sw	a2,1028(ra)

80001710 <inst_278>:
80001710:	00200513          	li	a0,2
80001714:	aaaab5b7          	lui	a1,0xaaaab
80001718:	aaa58593          	addi	a1,a1,-1366 # aaaaaaaa <imm12+0xaaaab2aa>
8000171c:	02b56633          	rem	a2,a0,a1
80001720:	40c0a423          	sw	a2,1032(ra)

80001724 <inst_279>:
80001724:	00200513          	li	a0,2
80001728:	00500593          	li	a1,5
8000172c:	02b56633          	rem	a2,a0,a1
80001730:	40c0a623          	sw	a2,1036(ra)

80001734 <inst_280>:
80001734:	00200513          	li	a0,2
80001738:	333335b7          	lui	a1,0x33333
8000173c:	33358593          	addi	a1,a1,819 # 33333333 <absimm+0x33332b33>
80001740:	02b56633          	rem	a2,a0,a1
80001744:	40c0a823          	sw	a2,1040(ra)

80001748 <inst_281>:
80001748:	00200513          	li	a0,2
8000174c:	666665b7          	lui	a1,0x66666
80001750:	66658593          	addi	a1,a1,1638 # 66666666 <absimm+0x66665e66>
80001754:	02b56633          	rem	a2,a0,a1
80001758:	40c0aa23          	sw	a2,1044(ra)

8000175c <inst_282>:
8000175c:	00200513          	li	a0,2
80001760:	ffff55b7          	lui	a1,0xffff5
80001764:	afc58593          	addi	a1,a1,-1284 # ffff4afc <imm12+0xffff52fc>
80001768:	02b56633          	rem	a2,a0,a1
8000176c:	40c0ac23          	sw	a2,1048(ra)

80001770 <inst_283>:
80001770:	00200513          	li	a0,2
80001774:	0000b5b7          	lui	a1,0xb
80001778:	50458593          	addi	a1,a1,1284 # b504 <absimm+0xad04>
8000177c:	02b56633          	rem	a2,a0,a1
80001780:	40c0ae23          	sw	a2,1052(ra)

80001784 <inst_284>:
80001784:	00200513          	li	a0,2
80001788:	00200593          	li	a1,2
8000178c:	02b56633          	rem	a2,a0,a1
80001790:	42c0a023          	sw	a2,1056(ra)

80001794 <inst_285>:
80001794:	00200513          	li	a0,2
80001798:	555555b7          	lui	a1,0x55555
8000179c:	55458593          	addi	a1,a1,1364 # 55555554 <absimm+0x55554d54>
800017a0:	02b56633          	rem	a2,a0,a1
800017a4:	42c0a223          	sw	a2,1060(ra)

800017a8 <inst_286>:
800017a8:	00200513          	li	a0,2
800017ac:	00000593          	li	a1,0
800017b0:	02b56633          	rem	a2,a0,a1
800017b4:	42c0a423          	sw	a2,1064(ra)

800017b8 <inst_287>:
800017b8:	00200513          	li	a0,2
800017bc:	00400593          	li	a1,4
800017c0:	02b56633          	rem	a2,a0,a1
800017c4:	42c0a623          	sw	a2,1068(ra)

800017c8 <inst_288>:
800017c8:	00200513          	li	a0,2
800017cc:	333335b7          	lui	a1,0x33333
800017d0:	33258593          	addi	a1,a1,818 # 33333332 <absimm+0x33332b32>
800017d4:	02b56633          	rem	a2,a0,a1
800017d8:	42c0a823          	sw	a2,1072(ra)

800017dc <inst_289>:
800017dc:	00200513          	li	a0,2
800017e0:	666665b7          	lui	a1,0x66666
800017e4:	66558593          	addi	a1,a1,1637 # 66666665 <absimm+0x66665e65>
800017e8:	02b56633          	rem	a2,a0,a1
800017ec:	42c0aa23          	sw	a2,1076(ra)

800017f0 <inst_290>:
800017f0:	00200513          	li	a0,2
800017f4:	0000b5b7          	lui	a1,0xb
800017f8:	50358593          	addi	a1,a1,1283 # b503 <absimm+0xad03>
800017fc:	02b56633          	rem	a2,a0,a1
80001800:	42c0ac23          	sw	a2,1080(ra)

80001804 <inst_291>:
80001804:	00200513          	li	a0,2
80001808:	555555b7          	lui	a1,0x55555
8000180c:	55658593          	addi	a1,a1,1366 # 55555556 <absimm+0x55554d56>
80001810:	02b56633          	rem	a2,a0,a1
80001814:	42c0ae23          	sw	a2,1084(ra)

80001818 <inst_292>:
80001818:	00200513          	li	a0,2
8000181c:	aaaab5b7          	lui	a1,0xaaaab
80001820:	aab58593          	addi	a1,a1,-1365 # aaaaaaab <imm12+0xaaaab2ab>
80001824:	02b56633          	rem	a2,a0,a1
80001828:	44c0a023          	sw	a2,1088(ra)

8000182c <inst_293>:
8000182c:	00200513          	li	a0,2
80001830:	00600593          	li	a1,6
80001834:	02b56633          	rem	a2,a0,a1
80001838:	44c0a223          	sw	a2,1092(ra)

8000183c <inst_294>:
8000183c:	00200513          	li	a0,2
80001840:	333335b7          	lui	a1,0x33333
80001844:	33458593          	addi	a1,a1,820 # 33333334 <absimm+0x33332b34>
80001848:	02b56633          	rem	a2,a0,a1
8000184c:	44c0a423          	sw	a2,1096(ra)

80001850 <inst_295>:
80001850:	00200513          	li	a0,2
80001854:	666665b7          	lui	a1,0x66666
80001858:	66758593          	addi	a1,a1,1639 # 66666667 <absimm+0x66665e67>
8000185c:	02b56633          	rem	a2,a0,a1
80001860:	44c0a623          	sw	a2,1100(ra)

80001864 <inst_296>:
80001864:	00200513          	li	a0,2
80001868:	ffff55b7          	lui	a1,0xffff5
8000186c:	afd58593          	addi	a1,a1,-1283 # ffff4afd <imm12+0xffff52fd>
80001870:	02b56633          	rem	a2,a0,a1
80001874:	44c0a823          	sw	a2,1104(ra)

80001878 <inst_297>:
80001878:	00200513          	li	a0,2
8000187c:	0000b5b7          	lui	a1,0xb
80001880:	50558593          	addi	a1,a1,1285 # b505 <absimm+0xad05>
80001884:	02b56633          	rem	a2,a0,a1
80001888:	44c0aa23          	sw	a2,1108(ra)

8000188c <inst_298>:
8000188c:	55555537          	lui	a0,0x55555
80001890:	55450513          	addi	a0,a0,1364 # 55555554 <absimm+0x55554d54>
80001894:	00300593          	li	a1,3
80001898:	02b56633          	rem	a2,a0,a1
8000189c:	44c0ac23          	sw	a2,1112(ra)

800018a0 <inst_299>:
800018a0:	55555537          	lui	a0,0x55555
800018a4:	55450513          	addi	a0,a0,1364 # 55555554 <absimm+0x55554d54>
800018a8:	555555b7          	lui	a1,0x55555
800018ac:	55558593          	addi	a1,a1,1365 # 55555555 <absimm+0x55554d55>
800018b0:	02b56633          	rem	a2,a0,a1
800018b4:	44c0ae23          	sw	a2,1116(ra)

800018b8 <inst_300>:
800018b8:	55555537          	lui	a0,0x55555
800018bc:	55450513          	addi	a0,a0,1364 # 55555554 <absimm+0x55554d54>
800018c0:	aaaab5b7          	lui	a1,0xaaaab
800018c4:	aaa58593          	addi	a1,a1,-1366 # aaaaaaaa <imm12+0xaaaab2aa>
800018c8:	02b56633          	rem	a2,a0,a1
800018cc:	46c0a023          	sw	a2,1120(ra)

800018d0 <inst_301>:
800018d0:	55555537          	lui	a0,0x55555
800018d4:	55450513          	addi	a0,a0,1364 # 55555554 <absimm+0x55554d54>
800018d8:	00500593          	li	a1,5
800018dc:	02b56633          	rem	a2,a0,a1
800018e0:	46c0a223          	sw	a2,1124(ra)

800018e4 <inst_302>:
800018e4:	55555537          	lui	a0,0x55555
800018e8:	55450513          	addi	a0,a0,1364 # 55555554 <absimm+0x55554d54>
800018ec:	333335b7          	lui	a1,0x33333
800018f0:	33358593          	addi	a1,a1,819 # 33333333 <absimm+0x33332b33>
800018f4:	02b56633          	rem	a2,a0,a1
800018f8:	46c0a423          	sw	a2,1128(ra)

800018fc <inst_303>:
800018fc:	55555537          	lui	a0,0x55555
80001900:	55450513          	addi	a0,a0,1364 # 55555554 <absimm+0x55554d54>
80001904:	666665b7          	lui	a1,0x66666
80001908:	66658593          	addi	a1,a1,1638 # 66666666 <absimm+0x66665e66>
8000190c:	02b56633          	rem	a2,a0,a1
80001910:	46c0a623          	sw	a2,1132(ra)

80001914 <inst_304>:
80001914:	55555537          	lui	a0,0x55555
80001918:	55450513          	addi	a0,a0,1364 # 55555554 <absimm+0x55554d54>
8000191c:	ffff55b7          	lui	a1,0xffff5
80001920:	afc58593          	addi	a1,a1,-1284 # ffff4afc <imm12+0xffff52fc>
80001924:	02b56633          	rem	a2,a0,a1
80001928:	46c0a823          	sw	a2,1136(ra)

8000192c <inst_305>:
8000192c:	55555537          	lui	a0,0x55555
80001930:	55450513          	addi	a0,a0,1364 # 55555554 <absimm+0x55554d54>
80001934:	0000b5b7          	lui	a1,0xb
80001938:	50458593          	addi	a1,a1,1284 # b504 <absimm+0xad04>
8000193c:	02b56633          	rem	a2,a0,a1
80001940:	46c0aa23          	sw	a2,1140(ra)

80001944 <inst_306>:
80001944:	55555537          	lui	a0,0x55555
80001948:	55450513          	addi	a0,a0,1364 # 55555554 <absimm+0x55554d54>
8000194c:	00200593          	li	a1,2
80001950:	02b56633          	rem	a2,a0,a1
80001954:	46c0ac23          	sw	a2,1144(ra)

80001958 <inst_307>:
80001958:	55555537          	lui	a0,0x55555
8000195c:	55450513          	addi	a0,a0,1364 # 55555554 <absimm+0x55554d54>
80001960:	555555b7          	lui	a1,0x55555
80001964:	55458593          	addi	a1,a1,1364 # 55555554 <absimm+0x55554d54>
80001968:	02b56633          	rem	a2,a0,a1
8000196c:	46c0ae23          	sw	a2,1148(ra)

80001970 <inst_308>:
80001970:	55555537          	lui	a0,0x55555
80001974:	55450513          	addi	a0,a0,1364 # 55555554 <absimm+0x55554d54>
80001978:	00000593          	li	a1,0
8000197c:	02b56633          	rem	a2,a0,a1
80001980:	48c0a023          	sw	a2,1152(ra)

80001984 <inst_309>:
80001984:	55555537          	lui	a0,0x55555
80001988:	55450513          	addi	a0,a0,1364 # 55555554 <absimm+0x55554d54>
8000198c:	00400593          	li	a1,4
80001990:	02b56633          	rem	a2,a0,a1
80001994:	48c0a223          	sw	a2,1156(ra)

80001998 <inst_310>:
80001998:	55555537          	lui	a0,0x55555
8000199c:	55450513          	addi	a0,a0,1364 # 55555554 <absimm+0x55554d54>
800019a0:	333335b7          	lui	a1,0x33333
800019a4:	33258593          	addi	a1,a1,818 # 33333332 <absimm+0x33332b32>
800019a8:	02b56633          	rem	a2,a0,a1
800019ac:	48c0a423          	sw	a2,1160(ra)

800019b0 <inst_311>:
800019b0:	55555537          	lui	a0,0x55555
800019b4:	55450513          	addi	a0,a0,1364 # 55555554 <absimm+0x55554d54>
800019b8:	666665b7          	lui	a1,0x66666
800019bc:	66558593          	addi	a1,a1,1637 # 66666665 <absimm+0x66665e65>
800019c0:	02b56633          	rem	a2,a0,a1
800019c4:	48c0a623          	sw	a2,1164(ra)

800019c8 <inst_312>:
800019c8:	55555537          	lui	a0,0x55555
800019cc:	55450513          	addi	a0,a0,1364 # 55555554 <absimm+0x55554d54>
800019d0:	0000b5b7          	lui	a1,0xb
800019d4:	50358593          	addi	a1,a1,1283 # b503 <absimm+0xad03>
800019d8:	02b56633          	rem	a2,a0,a1
800019dc:	48c0a823          	sw	a2,1168(ra)

800019e0 <inst_313>:
800019e0:	55555537          	lui	a0,0x55555
800019e4:	55450513          	addi	a0,a0,1364 # 55555554 <absimm+0x55554d54>
800019e8:	555555b7          	lui	a1,0x55555
800019ec:	55658593          	addi	a1,a1,1366 # 55555556 <absimm+0x55554d56>
800019f0:	02b56633          	rem	a2,a0,a1
800019f4:	48c0aa23          	sw	a2,1172(ra)

800019f8 <inst_314>:
800019f8:	55555537          	lui	a0,0x55555
800019fc:	55450513          	addi	a0,a0,1364 # 55555554 <absimm+0x55554d54>
80001a00:	aaaab5b7          	lui	a1,0xaaaab
80001a04:	aab58593          	addi	a1,a1,-1365 # aaaaaaab <imm12+0xaaaab2ab>
80001a08:	02b56633          	rem	a2,a0,a1
80001a0c:	48c0ac23          	sw	a2,1176(ra)

80001a10 <inst_315>:
80001a10:	55555537          	lui	a0,0x55555
80001a14:	55450513          	addi	a0,a0,1364 # 55555554 <absimm+0x55554d54>
80001a18:	00600593          	li	a1,6
80001a1c:	02b56633          	rem	a2,a0,a1
80001a20:	48c0ae23          	sw	a2,1180(ra)

80001a24 <inst_316>:
80001a24:	55555537          	lui	a0,0x55555
80001a28:	55450513          	addi	a0,a0,1364 # 55555554 <absimm+0x55554d54>
80001a2c:	333335b7          	lui	a1,0x33333
80001a30:	33458593          	addi	a1,a1,820 # 33333334 <absimm+0x33332b34>
80001a34:	02b56633          	rem	a2,a0,a1
80001a38:	4ac0a023          	sw	a2,1184(ra)

80001a3c <inst_317>:
80001a3c:	55555537          	lui	a0,0x55555
80001a40:	55450513          	addi	a0,a0,1364 # 55555554 <absimm+0x55554d54>
80001a44:	666665b7          	lui	a1,0x66666
80001a48:	66758593          	addi	a1,a1,1639 # 66666667 <absimm+0x66665e67>
80001a4c:	02b56633          	rem	a2,a0,a1
80001a50:	4ac0a223          	sw	a2,1188(ra)

80001a54 <inst_318>:
80001a54:	55555537          	lui	a0,0x55555
80001a58:	55450513          	addi	a0,a0,1364 # 55555554 <absimm+0x55554d54>
80001a5c:	ffff55b7          	lui	a1,0xffff5
80001a60:	afd58593          	addi	a1,a1,-1283 # ffff4afd <imm12+0xffff52fd>
80001a64:	02b56633          	rem	a2,a0,a1
80001a68:	4ac0a423          	sw	a2,1192(ra)

80001a6c <inst_319>:
80001a6c:	55555537          	lui	a0,0x55555
80001a70:	55450513          	addi	a0,a0,1364 # 55555554 <absimm+0x55554d54>
80001a74:	0000b5b7          	lui	a1,0xb
80001a78:	50558593          	addi	a1,a1,1285 # b505 <absimm+0xad05>
80001a7c:	02b56633          	rem	a2,a0,a1
80001a80:	4ac0a623          	sw	a2,1196(ra)

80001a84 <inst_320>:
80001a84:	00000513          	li	a0,0
80001a88:	00300593          	li	a1,3
80001a8c:	02b56633          	rem	a2,a0,a1
80001a90:	4ac0a823          	sw	a2,1200(ra)

80001a94 <inst_321>:
80001a94:	00000513          	li	a0,0
80001a98:	555555b7          	lui	a1,0x55555
80001a9c:	55558593          	addi	a1,a1,1365 # 55555555 <absimm+0x55554d55>
80001aa0:	02b56633          	rem	a2,a0,a1
80001aa4:	4ac0aa23          	sw	a2,1204(ra)

80001aa8 <inst_322>:
80001aa8:	00000513          	li	a0,0
80001aac:	aaaab5b7          	lui	a1,0xaaaab
80001ab0:	aaa58593          	addi	a1,a1,-1366 # aaaaaaaa <imm12+0xaaaab2aa>
80001ab4:	02b56633          	rem	a2,a0,a1
80001ab8:	4ac0ac23          	sw	a2,1208(ra)

80001abc <inst_323>:
80001abc:	00000513          	li	a0,0
80001ac0:	00500593          	li	a1,5
80001ac4:	02b56633          	rem	a2,a0,a1
80001ac8:	4ac0ae23          	sw	a2,1212(ra)

80001acc <inst_324>:
80001acc:	00000513          	li	a0,0
80001ad0:	333335b7          	lui	a1,0x33333
80001ad4:	33358593          	addi	a1,a1,819 # 33333333 <absimm+0x33332b33>
80001ad8:	02b56633          	rem	a2,a0,a1
80001adc:	4cc0a023          	sw	a2,1216(ra)

80001ae0 <inst_325>:
80001ae0:	00000513          	li	a0,0
80001ae4:	666665b7          	lui	a1,0x66666
80001ae8:	66658593          	addi	a1,a1,1638 # 66666666 <absimm+0x66665e66>
80001aec:	02b56633          	rem	a2,a0,a1
80001af0:	4cc0a223          	sw	a2,1220(ra)

80001af4 <inst_326>:
80001af4:	00000513          	li	a0,0
80001af8:	ffff55b7          	lui	a1,0xffff5
80001afc:	afc58593          	addi	a1,a1,-1284 # ffff4afc <imm12+0xffff52fc>
80001b00:	02b56633          	rem	a2,a0,a1
80001b04:	4cc0a423          	sw	a2,1224(ra)

80001b08 <inst_327>:
80001b08:	aaaab537          	lui	a0,0xaaaab
80001b0c:	aab50513          	addi	a0,a0,-1365 # aaaaaaab <imm12+0xaaaab2ab>
80001b10:	aaaab5b7          	lui	a1,0xaaaab
80001b14:	aab58593          	addi	a1,a1,-1365 # aaaaaaab <imm12+0xaaaab2ab>
80001b18:	02b56633          	rem	a2,a0,a1
80001b1c:	4cc0a623          	sw	a2,1228(ra)

80001b20 <inst_328>:
80001b20:	aaaab537          	lui	a0,0xaaaab
80001b24:	aab50513          	addi	a0,a0,-1365 # aaaaaaab <imm12+0xaaaab2ab>
80001b28:	00600593          	li	a1,6
80001b2c:	02b56633          	rem	a2,a0,a1
80001b30:	4cc0a823          	sw	a2,1232(ra)

80001b34 <inst_329>:
80001b34:	aaaab537          	lui	a0,0xaaaab
80001b38:	aab50513          	addi	a0,a0,-1365 # aaaaaaab <imm12+0xaaaab2ab>
80001b3c:	333335b7          	lui	a1,0x33333
80001b40:	33458593          	addi	a1,a1,820 # 33333334 <absimm+0x33332b34>
80001b44:	02b56633          	rem	a2,a0,a1
80001b48:	4cc0aa23          	sw	a2,1236(ra)

80001b4c <inst_330>:
80001b4c:	aaaab537          	lui	a0,0xaaaab
80001b50:	aab50513          	addi	a0,a0,-1365 # aaaaaaab <imm12+0xaaaab2ab>
80001b54:	666665b7          	lui	a1,0x66666
80001b58:	66758593          	addi	a1,a1,1639 # 66666667 <absimm+0x66665e67>
80001b5c:	02b56633          	rem	a2,a0,a1
80001b60:	4cc0ac23          	sw	a2,1240(ra)

80001b64 <inst_331>:
80001b64:	aaaab537          	lui	a0,0xaaaab
80001b68:	aab50513          	addi	a0,a0,-1365 # aaaaaaab <imm12+0xaaaab2ab>
80001b6c:	ffff55b7          	lui	a1,0xffff5
80001b70:	afd58593          	addi	a1,a1,-1283 # ffff4afd <imm12+0xffff52fd>
80001b74:	02b56633          	rem	a2,a0,a1
80001b78:	4cc0ae23          	sw	a2,1244(ra)

80001b7c <inst_332>:
80001b7c:	aaaab537          	lui	a0,0xaaaab
80001b80:	aab50513          	addi	a0,a0,-1365 # aaaaaaab <imm12+0xaaaab2ab>
80001b84:	0000b5b7          	lui	a1,0xb
80001b88:	50558593          	addi	a1,a1,1285 # b505 <absimm+0xad05>
80001b8c:	02b56633          	rem	a2,a0,a1
80001b90:	4ec0a023          	sw	a2,1248(ra)

80001b94 <inst_333>:
80001b94:	00600513          	li	a0,6
80001b98:	00300593          	li	a1,3
80001b9c:	02b56633          	rem	a2,a0,a1
80001ba0:	4ec0a223          	sw	a2,1252(ra)

80001ba4 <inst_334>:
80001ba4:	00600513          	li	a0,6
80001ba8:	555555b7          	lui	a1,0x55555
80001bac:	55558593          	addi	a1,a1,1365 # 55555555 <absimm+0x55554d55>
80001bb0:	02b56633          	rem	a2,a0,a1
80001bb4:	4ec0a423          	sw	a2,1256(ra)

80001bb8 <inst_335>:
80001bb8:	00600513          	li	a0,6
80001bbc:	aaaab5b7          	lui	a1,0xaaaab
80001bc0:	aaa58593          	addi	a1,a1,-1366 # aaaaaaaa <imm12+0xaaaab2aa>
80001bc4:	02b56633          	rem	a2,a0,a1
80001bc8:	4ec0a623          	sw	a2,1260(ra)

80001bcc <inst_336>:
80001bcc:	00600513          	li	a0,6
80001bd0:	00500593          	li	a1,5
80001bd4:	02b56633          	rem	a2,a0,a1
80001bd8:	4ec0a823          	sw	a2,1264(ra)

80001bdc <inst_337>:
80001bdc:	00600513          	li	a0,6
80001be0:	333335b7          	lui	a1,0x33333
80001be4:	33358593          	addi	a1,a1,819 # 33333333 <absimm+0x33332b33>
80001be8:	02b56633          	rem	a2,a0,a1
80001bec:	4ec0aa23          	sw	a2,1268(ra)

80001bf0 <inst_338>:
80001bf0:	00600513          	li	a0,6
80001bf4:	666665b7          	lui	a1,0x66666
80001bf8:	66658593          	addi	a1,a1,1638 # 66666666 <absimm+0x66665e66>
80001bfc:	02b56633          	rem	a2,a0,a1
80001c00:	4ec0ac23          	sw	a2,1272(ra)

80001c04 <inst_339>:
80001c04:	00600513          	li	a0,6
80001c08:	ffff55b7          	lui	a1,0xffff5
80001c0c:	afc58593          	addi	a1,a1,-1284 # ffff4afc <imm12+0xffff52fc>
80001c10:	02b56633          	rem	a2,a0,a1
80001c14:	4ec0ae23          	sw	a2,1276(ra)

80001c18 <inst_340>:
80001c18:	00600513          	li	a0,6
80001c1c:	0000b5b7          	lui	a1,0xb
80001c20:	50458593          	addi	a1,a1,1284 # b504 <absimm+0xad04>
80001c24:	02b56633          	rem	a2,a0,a1
80001c28:	50c0a023          	sw	a2,1280(ra)

80001c2c <inst_341>:
80001c2c:	00600513          	li	a0,6
80001c30:	00200593          	li	a1,2
80001c34:	02b56633          	rem	a2,a0,a1
80001c38:	50c0a223          	sw	a2,1284(ra)

80001c3c <inst_342>:
80001c3c:	00600513          	li	a0,6
80001c40:	555555b7          	lui	a1,0x55555
80001c44:	55458593          	addi	a1,a1,1364 # 55555554 <absimm+0x55554d54>
80001c48:	02b56633          	rem	a2,a0,a1
80001c4c:	50c0a423          	sw	a2,1288(ra)

80001c50 <inst_343>:
80001c50:	00600513          	li	a0,6
80001c54:	00000593          	li	a1,0
80001c58:	02b56633          	rem	a2,a0,a1
80001c5c:	50c0a623          	sw	a2,1292(ra)

80001c60 <inst_344>:
80001c60:	00600513          	li	a0,6
80001c64:	00400593          	li	a1,4
80001c68:	02b56633          	rem	a2,a0,a1
80001c6c:	50c0a823          	sw	a2,1296(ra)

80001c70 <inst_345>:
80001c70:	00600513          	li	a0,6
80001c74:	333335b7          	lui	a1,0x33333
80001c78:	33258593          	addi	a1,a1,818 # 33333332 <absimm+0x33332b32>
80001c7c:	02b56633          	rem	a2,a0,a1
80001c80:	50c0aa23          	sw	a2,1300(ra)

80001c84 <inst_346>:
80001c84:	00600513          	li	a0,6
80001c88:	666665b7          	lui	a1,0x66666
80001c8c:	66558593          	addi	a1,a1,1637 # 66666665 <absimm+0x66665e65>
80001c90:	02b56633          	rem	a2,a0,a1
80001c94:	50c0ac23          	sw	a2,1304(ra)

80001c98 <inst_347>:
80001c98:	00600513          	li	a0,6
80001c9c:	0000b5b7          	lui	a1,0xb
80001ca0:	50358593          	addi	a1,a1,1283 # b503 <absimm+0xad03>
80001ca4:	02b56633          	rem	a2,a0,a1
80001ca8:	50c0ae23          	sw	a2,1308(ra)

80001cac <inst_348>:
80001cac:	00600513          	li	a0,6
80001cb0:	555555b7          	lui	a1,0x55555
80001cb4:	55658593          	addi	a1,a1,1366 # 55555556 <absimm+0x55554d56>
80001cb8:	02b56633          	rem	a2,a0,a1
80001cbc:	52c0a023          	sw	a2,1312(ra)

80001cc0 <inst_349>:
80001cc0:	00600513          	li	a0,6
80001cc4:	aaaab5b7          	lui	a1,0xaaaab
80001cc8:	aab58593          	addi	a1,a1,-1365 # aaaaaaab <imm12+0xaaaab2ab>
80001ccc:	02b56633          	rem	a2,a0,a1
80001cd0:	52c0a223          	sw	a2,1316(ra)

80001cd4 <inst_350>:
80001cd4:	00600513          	li	a0,6
80001cd8:	00600593          	li	a1,6
80001cdc:	02b56633          	rem	a2,a0,a1
80001ce0:	52c0a423          	sw	a2,1320(ra)

80001ce4 <inst_351>:
80001ce4:	00600513          	li	a0,6
80001ce8:	333335b7          	lui	a1,0x33333
80001cec:	33458593          	addi	a1,a1,820 # 33333334 <absimm+0x33332b34>
80001cf0:	02b56633          	rem	a2,a0,a1
80001cf4:	52c0a623          	sw	a2,1324(ra)

80001cf8 <inst_352>:
80001cf8:	00600513          	li	a0,6
80001cfc:	666665b7          	lui	a1,0x66666
80001d00:	66758593          	addi	a1,a1,1639 # 66666667 <absimm+0x66665e67>
80001d04:	02b56633          	rem	a2,a0,a1
80001d08:	52c0a823          	sw	a2,1328(ra)

80001d0c <inst_353>:
80001d0c:	00600513          	li	a0,6
80001d10:	ffff55b7          	lui	a1,0xffff5
80001d14:	afd58593          	addi	a1,a1,-1283 # ffff4afd <imm12+0xffff52fd>
80001d18:	02b56633          	rem	a2,a0,a1
80001d1c:	52c0aa23          	sw	a2,1332(ra)

80001d20 <inst_354>:
80001d20:	00600513          	li	a0,6
80001d24:	0000b5b7          	lui	a1,0xb
80001d28:	50558593          	addi	a1,a1,1285 # b505 <absimm+0xad05>
80001d2c:	02b56633          	rem	a2,a0,a1
80001d30:	52c0ac23          	sw	a2,1336(ra)

80001d34 <inst_355>:
80001d34:	33333537          	lui	a0,0x33333
80001d38:	33450513          	addi	a0,a0,820 # 33333334 <absimm+0x33332b34>
80001d3c:	00300593          	li	a1,3
80001d40:	02b56633          	rem	a2,a0,a1
80001d44:	52c0ae23          	sw	a2,1340(ra)

80001d48 <inst_356>:
80001d48:	33333537          	lui	a0,0x33333
80001d4c:	33450513          	addi	a0,a0,820 # 33333334 <absimm+0x33332b34>
80001d50:	555555b7          	lui	a1,0x55555
80001d54:	55558593          	addi	a1,a1,1365 # 55555555 <absimm+0x55554d55>
80001d58:	02b56633          	rem	a2,a0,a1
80001d5c:	54c0a023          	sw	a2,1344(ra)

80001d60 <inst_357>:
80001d60:	33333537          	lui	a0,0x33333
80001d64:	33450513          	addi	a0,a0,820 # 33333334 <absimm+0x33332b34>
80001d68:	aaaab5b7          	lui	a1,0xaaaab
80001d6c:	aaa58593          	addi	a1,a1,-1366 # aaaaaaaa <imm12+0xaaaab2aa>
80001d70:	02b56633          	rem	a2,a0,a1
80001d74:	54c0a223          	sw	a2,1348(ra)

80001d78 <inst_358>:
80001d78:	33333537          	lui	a0,0x33333
80001d7c:	33450513          	addi	a0,a0,820 # 33333334 <absimm+0x33332b34>
80001d80:	00500593          	li	a1,5
80001d84:	02b56633          	rem	a2,a0,a1
80001d88:	54c0a423          	sw	a2,1352(ra)

80001d8c <inst_359>:
80001d8c:	33333537          	lui	a0,0x33333
80001d90:	33450513          	addi	a0,a0,820 # 33333334 <absimm+0x33332b34>
80001d94:	333335b7          	lui	a1,0x33333
80001d98:	33358593          	addi	a1,a1,819 # 33333333 <absimm+0x33332b33>
80001d9c:	02b56633          	rem	a2,a0,a1
80001da0:	54c0a623          	sw	a2,1356(ra)

80001da4 <inst_360>:
80001da4:	33333537          	lui	a0,0x33333
80001da8:	33450513          	addi	a0,a0,820 # 33333334 <absimm+0x33332b34>
80001dac:	666665b7          	lui	a1,0x66666
80001db0:	66658593          	addi	a1,a1,1638 # 66666666 <absimm+0x66665e66>
80001db4:	02b56633          	rem	a2,a0,a1
80001db8:	54c0a823          	sw	a2,1360(ra)

80001dbc <inst_361>:
80001dbc:	33333537          	lui	a0,0x33333
80001dc0:	33450513          	addi	a0,a0,820 # 33333334 <absimm+0x33332b34>
80001dc4:	ffff55b7          	lui	a1,0xffff5
80001dc8:	afc58593          	addi	a1,a1,-1284 # ffff4afc <imm12+0xffff52fc>
80001dcc:	02b56633          	rem	a2,a0,a1
80001dd0:	54c0aa23          	sw	a2,1364(ra)

80001dd4 <inst_362>:
80001dd4:	33333537          	lui	a0,0x33333
80001dd8:	33450513          	addi	a0,a0,820 # 33333334 <absimm+0x33332b34>
80001ddc:	0000b5b7          	lui	a1,0xb
80001de0:	50458593          	addi	a1,a1,1284 # b504 <absimm+0xad04>
80001de4:	02b56633          	rem	a2,a0,a1
80001de8:	54c0ac23          	sw	a2,1368(ra)

80001dec <inst_363>:
80001dec:	33333537          	lui	a0,0x33333
80001df0:	33450513          	addi	a0,a0,820 # 33333334 <absimm+0x33332b34>
80001df4:	00200593          	li	a1,2
80001df8:	02b56633          	rem	a2,a0,a1
80001dfc:	54c0ae23          	sw	a2,1372(ra)

80001e00 <inst_364>:
80001e00:	33333537          	lui	a0,0x33333
80001e04:	33450513          	addi	a0,a0,820 # 33333334 <absimm+0x33332b34>
80001e08:	555555b7          	lui	a1,0x55555
80001e0c:	55458593          	addi	a1,a1,1364 # 55555554 <absimm+0x55554d54>
80001e10:	02b56633          	rem	a2,a0,a1
80001e14:	56c0a023          	sw	a2,1376(ra)

80001e18 <inst_365>:
80001e18:	33333537          	lui	a0,0x33333
80001e1c:	33450513          	addi	a0,a0,820 # 33333334 <absimm+0x33332b34>
80001e20:	00000593          	li	a1,0
80001e24:	02b56633          	rem	a2,a0,a1
80001e28:	56c0a223          	sw	a2,1380(ra)

80001e2c <inst_366>:
80001e2c:	33333537          	lui	a0,0x33333
80001e30:	33450513          	addi	a0,a0,820 # 33333334 <absimm+0x33332b34>
80001e34:	00400593          	li	a1,4
80001e38:	02b56633          	rem	a2,a0,a1
80001e3c:	56c0a423          	sw	a2,1384(ra)

80001e40 <inst_367>:
80001e40:	33333537          	lui	a0,0x33333
80001e44:	33450513          	addi	a0,a0,820 # 33333334 <absimm+0x33332b34>
80001e48:	333335b7          	lui	a1,0x33333
80001e4c:	33258593          	addi	a1,a1,818 # 33333332 <absimm+0x33332b32>
80001e50:	02b56633          	rem	a2,a0,a1
80001e54:	56c0a623          	sw	a2,1388(ra)

80001e58 <inst_368>:
80001e58:	33333537          	lui	a0,0x33333
80001e5c:	33450513          	addi	a0,a0,820 # 33333334 <absimm+0x33332b34>
80001e60:	666665b7          	lui	a1,0x66666
80001e64:	66558593          	addi	a1,a1,1637 # 66666665 <absimm+0x66665e65>
80001e68:	02b56633          	rem	a2,a0,a1
80001e6c:	56c0a823          	sw	a2,1392(ra)

80001e70 <inst_369>:
80001e70:	33333537          	lui	a0,0x33333
80001e74:	33450513          	addi	a0,a0,820 # 33333334 <absimm+0x33332b34>
80001e78:	0000b5b7          	lui	a1,0xb
80001e7c:	50358593          	addi	a1,a1,1283 # b503 <absimm+0xad03>
80001e80:	02b56633          	rem	a2,a0,a1
80001e84:	56c0aa23          	sw	a2,1396(ra)

80001e88 <inst_370>:
80001e88:	33333537          	lui	a0,0x33333
80001e8c:	33450513          	addi	a0,a0,820 # 33333334 <absimm+0x33332b34>
80001e90:	555555b7          	lui	a1,0x55555
80001e94:	55658593          	addi	a1,a1,1366 # 55555556 <absimm+0x55554d56>
80001e98:	02b56633          	rem	a2,a0,a1
80001e9c:	56c0ac23          	sw	a2,1400(ra)

80001ea0 <inst_371>:
80001ea0:	33333537          	lui	a0,0x33333
80001ea4:	33450513          	addi	a0,a0,820 # 33333334 <absimm+0x33332b34>
80001ea8:	aaaab5b7          	lui	a1,0xaaaab
80001eac:	aab58593          	addi	a1,a1,-1365 # aaaaaaab <imm12+0xaaaab2ab>
80001eb0:	02b56633          	rem	a2,a0,a1
80001eb4:	56c0ae23          	sw	a2,1404(ra)

80001eb8 <inst_372>:
80001eb8:	33333537          	lui	a0,0x33333
80001ebc:	33450513          	addi	a0,a0,820 # 33333334 <absimm+0x33332b34>
80001ec0:	00600593          	li	a1,6
80001ec4:	02b56633          	rem	a2,a0,a1
80001ec8:	58c0a023          	sw	a2,1408(ra)

80001ecc <inst_373>:
80001ecc:	33333537          	lui	a0,0x33333
80001ed0:	33450513          	addi	a0,a0,820 # 33333334 <absimm+0x33332b34>
80001ed4:	333335b7          	lui	a1,0x33333
80001ed8:	33458593          	addi	a1,a1,820 # 33333334 <absimm+0x33332b34>
80001edc:	02b56633          	rem	a2,a0,a1
80001ee0:	58c0a223          	sw	a2,1412(ra)

80001ee4 <inst_374>:
80001ee4:	33333537          	lui	a0,0x33333
80001ee8:	33450513          	addi	a0,a0,820 # 33333334 <absimm+0x33332b34>
80001eec:	666665b7          	lui	a1,0x66666
80001ef0:	66758593          	addi	a1,a1,1639 # 66666667 <absimm+0x66665e67>
80001ef4:	02b56633          	rem	a2,a0,a1
80001ef8:	58c0a423          	sw	a2,1416(ra)

80001efc <inst_375>:
80001efc:	33333537          	lui	a0,0x33333
80001f00:	33450513          	addi	a0,a0,820 # 33333334 <absimm+0x33332b34>
80001f04:	ffff55b7          	lui	a1,0xffff5
80001f08:	afd58593          	addi	a1,a1,-1283 # ffff4afd <imm12+0xffff52fd>
80001f0c:	02b56633          	rem	a2,a0,a1
80001f10:	58c0a623          	sw	a2,1420(ra)

80001f14 <inst_376>:
80001f14:	33333537          	lui	a0,0x33333
80001f18:	33450513          	addi	a0,a0,820 # 33333334 <absimm+0x33332b34>
80001f1c:	0000b5b7          	lui	a1,0xb
80001f20:	50558593          	addi	a1,a1,1285 # b505 <absimm+0xad05>
80001f24:	02b56633          	rem	a2,a0,a1
80001f28:	58c0a823          	sw	a2,1424(ra)

80001f2c <inst_377>:
80001f2c:	66666537          	lui	a0,0x66666
80001f30:	66750513          	addi	a0,a0,1639 # 66666667 <absimm+0x66665e67>
80001f34:	00300593          	li	a1,3
80001f38:	02b56633          	rem	a2,a0,a1
80001f3c:	58c0aa23          	sw	a2,1428(ra)

80001f40 <inst_378>:
80001f40:	66666537          	lui	a0,0x66666
80001f44:	66750513          	addi	a0,a0,1639 # 66666667 <absimm+0x66665e67>
80001f48:	555555b7          	lui	a1,0x55555
80001f4c:	55558593          	addi	a1,a1,1365 # 55555555 <absimm+0x55554d55>
80001f50:	02b56633          	rem	a2,a0,a1
80001f54:	58c0ac23          	sw	a2,1432(ra)

80001f58 <inst_379>:
80001f58:	66666537          	lui	a0,0x66666
80001f5c:	66750513          	addi	a0,a0,1639 # 66666667 <absimm+0x66665e67>
80001f60:	aaaab5b7          	lui	a1,0xaaaab
80001f64:	aaa58593          	addi	a1,a1,-1366 # aaaaaaaa <imm12+0xaaaab2aa>
80001f68:	02b56633          	rem	a2,a0,a1
80001f6c:	58c0ae23          	sw	a2,1436(ra)

80001f70 <inst_380>:
80001f70:	66666537          	lui	a0,0x66666
80001f74:	66750513          	addi	a0,a0,1639 # 66666667 <absimm+0x66665e67>
80001f78:	00500593          	li	a1,5
80001f7c:	02b56633          	rem	a2,a0,a1
80001f80:	5ac0a023          	sw	a2,1440(ra)

80001f84 <inst_381>:
80001f84:	66666537          	lui	a0,0x66666
80001f88:	66750513          	addi	a0,a0,1639 # 66666667 <absimm+0x66665e67>
80001f8c:	333335b7          	lui	a1,0x33333
80001f90:	33358593          	addi	a1,a1,819 # 33333333 <absimm+0x33332b33>
80001f94:	02b56633          	rem	a2,a0,a1
80001f98:	5ac0a223          	sw	a2,1444(ra)

80001f9c <inst_382>:
80001f9c:	66666537          	lui	a0,0x66666
80001fa0:	66750513          	addi	a0,a0,1639 # 66666667 <absimm+0x66665e67>
80001fa4:	666665b7          	lui	a1,0x66666
80001fa8:	66658593          	addi	a1,a1,1638 # 66666666 <absimm+0x66665e66>
80001fac:	02b56633          	rem	a2,a0,a1
80001fb0:	5ac0a423          	sw	a2,1448(ra)

80001fb4 <inst_383>:
80001fb4:	66666537          	lui	a0,0x66666
80001fb8:	66750513          	addi	a0,a0,1639 # 66666667 <absimm+0x66665e67>
80001fbc:	ffff55b7          	lui	a1,0xffff5
80001fc0:	afc58593          	addi	a1,a1,-1284 # ffff4afc <imm12+0xffff52fc>
80001fc4:	02b56633          	rem	a2,a0,a1
80001fc8:	5ac0a623          	sw	a2,1452(ra)

80001fcc <inst_384>:
80001fcc:	66666537          	lui	a0,0x66666
80001fd0:	66750513          	addi	a0,a0,1639 # 66666667 <absimm+0x66665e67>
80001fd4:	0000b5b7          	lui	a1,0xb
80001fd8:	50458593          	addi	a1,a1,1284 # b504 <absimm+0xad04>
80001fdc:	02b56633          	rem	a2,a0,a1
80001fe0:	5ac0a823          	sw	a2,1456(ra)

80001fe4 <inst_385>:
80001fe4:	66666537          	lui	a0,0x66666
80001fe8:	66750513          	addi	a0,a0,1639 # 66666667 <absimm+0x66665e67>
80001fec:	00200593          	li	a1,2
80001ff0:	02b56633          	rem	a2,a0,a1
80001ff4:	5ac0aa23          	sw	a2,1460(ra)

80001ff8 <inst_386>:
80001ff8:	66666537          	lui	a0,0x66666
80001ffc:	66750513          	addi	a0,a0,1639 # 66666667 <absimm+0x66665e67>
80002000:	555555b7          	lui	a1,0x55555
80002004:	55458593          	addi	a1,a1,1364 # 55555554 <absimm+0x55554d54>
80002008:	02b56633          	rem	a2,a0,a1
8000200c:	5ac0ac23          	sw	a2,1464(ra)

80002010 <inst_387>:
80002010:	66666537          	lui	a0,0x66666
80002014:	66750513          	addi	a0,a0,1639 # 66666667 <absimm+0x66665e67>
80002018:	00000593          	li	a1,0
8000201c:	02b56633          	rem	a2,a0,a1
80002020:	5ac0ae23          	sw	a2,1468(ra)

80002024 <inst_388>:
80002024:	66666537          	lui	a0,0x66666
80002028:	66750513          	addi	a0,a0,1639 # 66666667 <absimm+0x66665e67>
8000202c:	00400593          	li	a1,4
80002030:	02b56633          	rem	a2,a0,a1
80002034:	5cc0a023          	sw	a2,1472(ra)

80002038 <inst_389>:
80002038:	66666537          	lui	a0,0x66666
8000203c:	66750513          	addi	a0,a0,1639 # 66666667 <absimm+0x66665e67>
80002040:	333335b7          	lui	a1,0x33333
80002044:	33258593          	addi	a1,a1,818 # 33333332 <absimm+0x33332b32>
80002048:	02b56633          	rem	a2,a0,a1
8000204c:	5cc0a223          	sw	a2,1476(ra)

80002050 <inst_390>:
80002050:	66666537          	lui	a0,0x66666
80002054:	66750513          	addi	a0,a0,1639 # 66666667 <absimm+0x66665e67>
80002058:	666665b7          	lui	a1,0x66666
8000205c:	66558593          	addi	a1,a1,1637 # 66666665 <absimm+0x66665e65>
80002060:	02b56633          	rem	a2,a0,a1
80002064:	5cc0a423          	sw	a2,1480(ra)

80002068 <inst_391>:
80002068:	66666537          	lui	a0,0x66666
8000206c:	66750513          	addi	a0,a0,1639 # 66666667 <absimm+0x66665e67>
80002070:	0000b5b7          	lui	a1,0xb
80002074:	50358593          	addi	a1,a1,1283 # b503 <absimm+0xad03>
80002078:	02b56633          	rem	a2,a0,a1
8000207c:	5cc0a623          	sw	a2,1484(ra)

80002080 <inst_392>:
80002080:	66666537          	lui	a0,0x66666
80002084:	66750513          	addi	a0,a0,1639 # 66666667 <absimm+0x66665e67>
80002088:	555555b7          	lui	a1,0x55555
8000208c:	55658593          	addi	a1,a1,1366 # 55555556 <absimm+0x55554d56>
80002090:	02b56633          	rem	a2,a0,a1
80002094:	5cc0a823          	sw	a2,1488(ra)

80002098 <inst_393>:
80002098:	66666537          	lui	a0,0x66666
8000209c:	66750513          	addi	a0,a0,1639 # 66666667 <absimm+0x66665e67>
800020a0:	aaaab5b7          	lui	a1,0xaaaab
800020a4:	aab58593          	addi	a1,a1,-1365 # aaaaaaab <imm12+0xaaaab2ab>
800020a8:	02b56633          	rem	a2,a0,a1
800020ac:	5cc0aa23          	sw	a2,1492(ra)

800020b0 <inst_394>:
800020b0:	66666537          	lui	a0,0x66666
800020b4:	66750513          	addi	a0,a0,1639 # 66666667 <absimm+0x66665e67>
800020b8:	00600593          	li	a1,6
800020bc:	02b56633          	rem	a2,a0,a1
800020c0:	5cc0ac23          	sw	a2,1496(ra)

800020c4 <inst_395>:
800020c4:	66666537          	lui	a0,0x66666
800020c8:	66750513          	addi	a0,a0,1639 # 66666667 <absimm+0x66665e67>
800020cc:	333335b7          	lui	a1,0x33333
800020d0:	33458593          	addi	a1,a1,820 # 33333334 <absimm+0x33332b34>
800020d4:	02b56633          	rem	a2,a0,a1
800020d8:	5cc0ae23          	sw	a2,1500(ra)

800020dc <inst_396>:
800020dc:	66666537          	lui	a0,0x66666
800020e0:	66750513          	addi	a0,a0,1639 # 66666667 <absimm+0x66665e67>
800020e4:	666665b7          	lui	a1,0x66666
800020e8:	66758593          	addi	a1,a1,1639 # 66666667 <absimm+0x66665e67>
800020ec:	02b56633          	rem	a2,a0,a1
800020f0:	5ec0a023          	sw	a2,1504(ra)

800020f4 <inst_397>:
800020f4:	66666537          	lui	a0,0x66666
800020f8:	66750513          	addi	a0,a0,1639 # 66666667 <absimm+0x66665e67>
800020fc:	ffff55b7          	lui	a1,0xffff5
80002100:	afd58593          	addi	a1,a1,-1283 # ffff4afd <imm12+0xffff52fd>
80002104:	02b56633          	rem	a2,a0,a1
80002108:	5ec0a223          	sw	a2,1508(ra)

8000210c <inst_398>:
8000210c:	66666537          	lui	a0,0x66666
80002110:	66750513          	addi	a0,a0,1639 # 66666667 <absimm+0x66665e67>
80002114:	0000b5b7          	lui	a1,0xb
80002118:	50558593          	addi	a1,a1,1285 # b505 <absimm+0xad05>
8000211c:	02b56633          	rem	a2,a0,a1
80002120:	5ec0a423          	sw	a2,1512(ra)

80002124 <inst_399>:
80002124:	ffff5537          	lui	a0,0xffff5
80002128:	afd50513          	addi	a0,a0,-1283 # ffff4afd <imm12+0xffff52fd>
8000212c:	00300593          	li	a1,3
80002130:	02b56633          	rem	a2,a0,a1
80002134:	5ec0a623          	sw	a2,1516(ra)

80002138 <inst_400>:
80002138:	ffff5537          	lui	a0,0xffff5
8000213c:	afd50513          	addi	a0,a0,-1283 # ffff4afd <imm12+0xffff52fd>
80002140:	555555b7          	lui	a1,0x55555
80002144:	55558593          	addi	a1,a1,1365 # 55555555 <absimm+0x55554d55>
80002148:	02b56633          	rem	a2,a0,a1
8000214c:	5ec0a823          	sw	a2,1520(ra)

80002150 <inst_401>:
80002150:	ffff5537          	lui	a0,0xffff5
80002154:	afd50513          	addi	a0,a0,-1283 # ffff4afd <imm12+0xffff52fd>
80002158:	aaaab5b7          	lui	a1,0xaaaab
8000215c:	aaa58593          	addi	a1,a1,-1366 # aaaaaaaa <imm12+0xaaaab2aa>
80002160:	02b56633          	rem	a2,a0,a1
80002164:	5ec0aa23          	sw	a2,1524(ra)

80002168 <inst_402>:
80002168:	ffff5537          	lui	a0,0xffff5
8000216c:	afd50513          	addi	a0,a0,-1283 # ffff4afd <imm12+0xffff52fd>
80002170:	00500593          	li	a1,5
80002174:	02b56633          	rem	a2,a0,a1
80002178:	5ec0ac23          	sw	a2,1528(ra)

8000217c <inst_403>:
8000217c:	ffff5537          	lui	a0,0xffff5
80002180:	afd50513          	addi	a0,a0,-1283 # ffff4afd <imm12+0xffff52fd>
80002184:	333335b7          	lui	a1,0x33333
80002188:	33358593          	addi	a1,a1,819 # 33333333 <absimm+0x33332b33>
8000218c:	02b56633          	rem	a2,a0,a1
80002190:	5ec0ae23          	sw	a2,1532(ra)

80002194 <inst_404>:
80002194:	ffff5537          	lui	a0,0xffff5
80002198:	afd50513          	addi	a0,a0,-1283 # ffff4afd <imm12+0xffff52fd>
8000219c:	666665b7          	lui	a1,0x66666
800021a0:	66658593          	addi	a1,a1,1638 # 66666666 <absimm+0x66665e66>
800021a4:	02b56633          	rem	a2,a0,a1
800021a8:	60c0a023          	sw	a2,1536(ra)

800021ac <inst_405>:
800021ac:	ffff5537          	lui	a0,0xffff5
800021b0:	afd50513          	addi	a0,a0,-1283 # ffff4afd <imm12+0xffff52fd>
800021b4:	ffff55b7          	lui	a1,0xffff5
800021b8:	afc58593          	addi	a1,a1,-1284 # ffff4afc <imm12+0xffff52fc>
800021bc:	02b56633          	rem	a2,a0,a1
800021c0:	60c0a223          	sw	a2,1540(ra)

800021c4 <inst_406>:
800021c4:	ffff5537          	lui	a0,0xffff5
800021c8:	afd50513          	addi	a0,a0,-1283 # ffff4afd <imm12+0xffff52fd>
800021cc:	0000b5b7          	lui	a1,0xb
800021d0:	50458593          	addi	a1,a1,1284 # b504 <absimm+0xad04>
800021d4:	02b56633          	rem	a2,a0,a1
800021d8:	60c0a423          	sw	a2,1544(ra)

800021dc <inst_407>:
800021dc:	ffff5537          	lui	a0,0xffff5
800021e0:	afd50513          	addi	a0,a0,-1283 # ffff4afd <imm12+0xffff52fd>
800021e4:	00200593          	li	a1,2
800021e8:	02b56633          	rem	a2,a0,a1
800021ec:	60c0a623          	sw	a2,1548(ra)

800021f0 <inst_408>:
800021f0:	ffff5537          	lui	a0,0xffff5
800021f4:	afd50513          	addi	a0,a0,-1283 # ffff4afd <imm12+0xffff52fd>
800021f8:	555555b7          	lui	a1,0x55555
800021fc:	55458593          	addi	a1,a1,1364 # 55555554 <absimm+0x55554d54>
80002200:	02b56633          	rem	a2,a0,a1
80002204:	60c0a823          	sw	a2,1552(ra)

80002208 <inst_409>:
80002208:	ffff5537          	lui	a0,0xffff5
8000220c:	afd50513          	addi	a0,a0,-1283 # ffff4afd <imm12+0xffff52fd>
80002210:	00000593          	li	a1,0
80002214:	02b56633          	rem	a2,a0,a1
80002218:	60c0aa23          	sw	a2,1556(ra)

8000221c <inst_410>:
8000221c:	ffff5537          	lui	a0,0xffff5
80002220:	afd50513          	addi	a0,a0,-1283 # ffff4afd <imm12+0xffff52fd>
80002224:	00400593          	li	a1,4
80002228:	02b56633          	rem	a2,a0,a1
8000222c:	60c0ac23          	sw	a2,1560(ra)

80002230 <inst_411>:
80002230:	ffff5537          	lui	a0,0xffff5
80002234:	afd50513          	addi	a0,a0,-1283 # ffff4afd <imm12+0xffff52fd>
80002238:	333335b7          	lui	a1,0x33333
8000223c:	33258593          	addi	a1,a1,818 # 33333332 <absimm+0x33332b32>
80002240:	02b56633          	rem	a2,a0,a1
80002244:	60c0ae23          	sw	a2,1564(ra)

80002248 <inst_412>:
80002248:	ffff5537          	lui	a0,0xffff5
8000224c:	afd50513          	addi	a0,a0,-1283 # ffff4afd <imm12+0xffff52fd>
80002250:	666665b7          	lui	a1,0x66666
80002254:	66558593          	addi	a1,a1,1637 # 66666665 <absimm+0x66665e65>
80002258:	02b56633          	rem	a2,a0,a1
8000225c:	62c0a023          	sw	a2,1568(ra)

80002260 <inst_413>:
80002260:	ffff5537          	lui	a0,0xffff5
80002264:	afd50513          	addi	a0,a0,-1283 # ffff4afd <imm12+0xffff52fd>
80002268:	0000b5b7          	lui	a1,0xb
8000226c:	50358593          	addi	a1,a1,1283 # b503 <absimm+0xad03>
80002270:	02b56633          	rem	a2,a0,a1
80002274:	62c0a223          	sw	a2,1572(ra)

80002278 <inst_414>:
80002278:	ffff5537          	lui	a0,0xffff5
8000227c:	afd50513          	addi	a0,a0,-1283 # ffff4afd <imm12+0xffff52fd>
80002280:	555555b7          	lui	a1,0x55555
80002284:	55658593          	addi	a1,a1,1366 # 55555556 <absimm+0x55554d56>
80002288:	02b56633          	rem	a2,a0,a1
8000228c:	62c0a423          	sw	a2,1576(ra)

80002290 <inst_415>:
80002290:	ffff5537          	lui	a0,0xffff5
80002294:	afd50513          	addi	a0,a0,-1283 # ffff4afd <imm12+0xffff52fd>
80002298:	aaaab5b7          	lui	a1,0xaaaab
8000229c:	aab58593          	addi	a1,a1,-1365 # aaaaaaab <imm12+0xaaaab2ab>
800022a0:	02b56633          	rem	a2,a0,a1
800022a4:	62c0a623          	sw	a2,1580(ra)

800022a8 <inst_416>:
800022a8:	ffff5537          	lui	a0,0xffff5
800022ac:	afd50513          	addi	a0,a0,-1283 # ffff4afd <imm12+0xffff52fd>
800022b0:	00600593          	li	a1,6
800022b4:	02b56633          	rem	a2,a0,a1
800022b8:	62c0a823          	sw	a2,1584(ra)

800022bc <inst_417>:
800022bc:	ffff5537          	lui	a0,0xffff5
800022c0:	afd50513          	addi	a0,a0,-1283 # ffff4afd <imm12+0xffff52fd>
800022c4:	333335b7          	lui	a1,0x33333
800022c8:	33458593          	addi	a1,a1,820 # 33333334 <absimm+0x33332b34>
800022cc:	02b56633          	rem	a2,a0,a1
800022d0:	62c0aa23          	sw	a2,1588(ra)

800022d4 <inst_418>:
800022d4:	ffff5537          	lui	a0,0xffff5
800022d8:	afd50513          	addi	a0,a0,-1283 # ffff4afd <imm12+0xffff52fd>
800022dc:	666665b7          	lui	a1,0x66666
800022e0:	66758593          	addi	a1,a1,1639 # 66666667 <absimm+0x66665e67>
800022e4:	02b56633          	rem	a2,a0,a1
800022e8:	62c0ac23          	sw	a2,1592(ra)

800022ec <inst_419>:
800022ec:	ffff5537          	lui	a0,0xffff5
800022f0:	afd50513          	addi	a0,a0,-1283 # ffff4afd <imm12+0xffff52fd>
800022f4:	ffff55b7          	lui	a1,0xffff5
800022f8:	afd58593          	addi	a1,a1,-1283 # ffff4afd <imm12+0xffff52fd>
800022fc:	02b56633          	rem	a2,a0,a1
80002300:	62c0ae23          	sw	a2,1596(ra)

80002304 <inst_420>:
80002304:	ffff5537          	lui	a0,0xffff5
80002308:	afd50513          	addi	a0,a0,-1283 # ffff4afd <imm12+0xffff52fd>
8000230c:	0000b5b7          	lui	a1,0xb
80002310:	50558593          	addi	a1,a1,1285 # b505 <absimm+0xad05>
80002314:	02b56633          	rem	a2,a0,a1
80002318:	64c0a023          	sw	a2,1600(ra)

8000231c <inst_421>:
8000231c:	0000b537          	lui	a0,0xb
80002320:	50550513          	addi	a0,a0,1285 # b505 <absimm+0xad05>
80002324:	00300593          	li	a1,3
80002328:	02b56633          	rem	a2,a0,a1
8000232c:	64c0a223          	sw	a2,1604(ra)

80002330 <inst_422>:
80002330:	0000b537          	lui	a0,0xb
80002334:	50550513          	addi	a0,a0,1285 # b505 <absimm+0xad05>
80002338:	555555b7          	lui	a1,0x55555
8000233c:	55558593          	addi	a1,a1,1365 # 55555555 <absimm+0x55554d55>
80002340:	02b56633          	rem	a2,a0,a1
80002344:	64c0a423          	sw	a2,1608(ra)

80002348 <inst_423>:
80002348:	0000b537          	lui	a0,0xb
8000234c:	50550513          	addi	a0,a0,1285 # b505 <absimm+0xad05>
80002350:	aaaab5b7          	lui	a1,0xaaaab
80002354:	aaa58593          	addi	a1,a1,-1366 # aaaaaaaa <imm12+0xaaaab2aa>
80002358:	02b56633          	rem	a2,a0,a1
8000235c:	64c0a623          	sw	a2,1612(ra)

80002360 <inst_424>:
80002360:	0000b537          	lui	a0,0xb
80002364:	50550513          	addi	a0,a0,1285 # b505 <absimm+0xad05>
80002368:	00500593          	li	a1,5
8000236c:	02b56633          	rem	a2,a0,a1
80002370:	64c0a823          	sw	a2,1616(ra)

80002374 <inst_425>:
80002374:	0000b537          	lui	a0,0xb
80002378:	50550513          	addi	a0,a0,1285 # b505 <absimm+0xad05>
8000237c:	333335b7          	lui	a1,0x33333
80002380:	33358593          	addi	a1,a1,819 # 33333333 <absimm+0x33332b33>
80002384:	02b56633          	rem	a2,a0,a1
80002388:	64c0aa23          	sw	a2,1620(ra)

8000238c <inst_426>:
8000238c:	0000b537          	lui	a0,0xb
80002390:	50550513          	addi	a0,a0,1285 # b505 <absimm+0xad05>
80002394:	666665b7          	lui	a1,0x66666
80002398:	66658593          	addi	a1,a1,1638 # 66666666 <absimm+0x66665e66>
8000239c:	02b56633          	rem	a2,a0,a1
800023a0:	64c0ac23          	sw	a2,1624(ra)

800023a4 <inst_427>:
800023a4:	0000b537          	lui	a0,0xb
800023a8:	50550513          	addi	a0,a0,1285 # b505 <absimm+0xad05>
800023ac:	ffff55b7          	lui	a1,0xffff5
800023b0:	afc58593          	addi	a1,a1,-1284 # ffff4afc <imm12+0xffff52fc>
800023b4:	02b56633          	rem	a2,a0,a1
800023b8:	64c0ae23          	sw	a2,1628(ra)

800023bc <inst_428>:
800023bc:	0000b537          	lui	a0,0xb
800023c0:	50550513          	addi	a0,a0,1285 # b505 <absimm+0xad05>
800023c4:	0000b5b7          	lui	a1,0xb
800023c8:	50458593          	addi	a1,a1,1284 # b504 <absimm+0xad04>
800023cc:	02b56633          	rem	a2,a0,a1
800023d0:	66c0a023          	sw	a2,1632(ra)

800023d4 <inst_429>:
800023d4:	0000b537          	lui	a0,0xb
800023d8:	50550513          	addi	a0,a0,1285 # b505 <absimm+0xad05>
800023dc:	00200593          	li	a1,2
800023e0:	02b56633          	rem	a2,a0,a1
800023e4:	66c0a223          	sw	a2,1636(ra)

800023e8 <inst_430>:
800023e8:	0000b537          	lui	a0,0xb
800023ec:	50550513          	addi	a0,a0,1285 # b505 <absimm+0xad05>
800023f0:	555555b7          	lui	a1,0x55555
800023f4:	55458593          	addi	a1,a1,1364 # 55555554 <absimm+0x55554d54>
800023f8:	02b56633          	rem	a2,a0,a1
800023fc:	66c0a423          	sw	a2,1640(ra)

80002400 <inst_431>:
80002400:	0000b537          	lui	a0,0xb
80002404:	50550513          	addi	a0,a0,1285 # b505 <absimm+0xad05>
80002408:	00000593          	li	a1,0
8000240c:	02b56633          	rem	a2,a0,a1
80002410:	66c0a623          	sw	a2,1644(ra)

80002414 <inst_432>:
80002414:	0000b537          	lui	a0,0xb
80002418:	50550513          	addi	a0,a0,1285 # b505 <absimm+0xad05>
8000241c:	00400593          	li	a1,4
80002420:	02b56633          	rem	a2,a0,a1
80002424:	66c0a823          	sw	a2,1648(ra)

80002428 <inst_433>:
80002428:	0000b537          	lui	a0,0xb
8000242c:	50550513          	addi	a0,a0,1285 # b505 <absimm+0xad05>
80002430:	333335b7          	lui	a1,0x33333
80002434:	33258593          	addi	a1,a1,818 # 33333332 <absimm+0x33332b32>
80002438:	02b56633          	rem	a2,a0,a1
8000243c:	66c0aa23          	sw	a2,1652(ra)

80002440 <inst_434>:
80002440:	0000b537          	lui	a0,0xb
80002444:	50550513          	addi	a0,a0,1285 # b505 <absimm+0xad05>
80002448:	666665b7          	lui	a1,0x66666
8000244c:	66558593          	addi	a1,a1,1637 # 66666665 <absimm+0x66665e65>
80002450:	02b56633          	rem	a2,a0,a1
80002454:	66c0ac23          	sw	a2,1656(ra)

80002458 <inst_435>:
80002458:	0000b537          	lui	a0,0xb
8000245c:	50550513          	addi	a0,a0,1285 # b505 <absimm+0xad05>
80002460:	0000b5b7          	lui	a1,0xb
80002464:	50358593          	addi	a1,a1,1283 # b503 <absimm+0xad03>
80002468:	02b56633          	rem	a2,a0,a1
8000246c:	66c0ae23          	sw	a2,1660(ra)

80002470 <inst_436>:
80002470:	0000b537          	lui	a0,0xb
80002474:	50550513          	addi	a0,a0,1285 # b505 <absimm+0xad05>
80002478:	555555b7          	lui	a1,0x55555
8000247c:	55658593          	addi	a1,a1,1366 # 55555556 <absimm+0x55554d56>
80002480:	02b56633          	rem	a2,a0,a1
80002484:	68c0a023          	sw	a2,1664(ra)

80002488 <inst_437>:
80002488:	0000b537          	lui	a0,0xb
8000248c:	50550513          	addi	a0,a0,1285 # b505 <absimm+0xad05>
80002490:	aaaab5b7          	lui	a1,0xaaaab
80002494:	aab58593          	addi	a1,a1,-1365 # aaaaaaab <imm12+0xaaaab2ab>
80002498:	02b56633          	rem	a2,a0,a1
8000249c:	68c0a223          	sw	a2,1668(ra)

800024a0 <inst_438>:
800024a0:	0000b537          	lui	a0,0xb
800024a4:	50550513          	addi	a0,a0,1285 # b505 <absimm+0xad05>
800024a8:	00600593          	li	a1,6
800024ac:	02b56633          	rem	a2,a0,a1
800024b0:	68c0a423          	sw	a2,1672(ra)

800024b4 <inst_439>:
800024b4:	0000b537          	lui	a0,0xb
800024b8:	50550513          	addi	a0,a0,1285 # b505 <absimm+0xad05>
800024bc:	333335b7          	lui	a1,0x33333
800024c0:	33458593          	addi	a1,a1,820 # 33333334 <absimm+0x33332b34>
800024c4:	02b56633          	rem	a2,a0,a1
800024c8:	68c0a623          	sw	a2,1676(ra)

800024cc <inst_440>:
800024cc:	0000b537          	lui	a0,0xb
800024d0:	50550513          	addi	a0,a0,1285 # b505 <absimm+0xad05>
800024d4:	666665b7          	lui	a1,0x66666
800024d8:	66758593          	addi	a1,a1,1639 # 66666667 <absimm+0x66665e67>
800024dc:	02b56633          	rem	a2,a0,a1
800024e0:	68c0a823          	sw	a2,1680(ra)

800024e4 <inst_441>:
800024e4:	0000b537          	lui	a0,0xb
800024e8:	50550513          	addi	a0,a0,1285 # b505 <absimm+0xad05>
800024ec:	ffff55b7          	lui	a1,0xffff5
800024f0:	afd58593          	addi	a1,a1,-1283 # ffff4afd <imm12+0xffff52fd>
800024f4:	02b56633          	rem	a2,a0,a1
800024f8:	68c0aa23          	sw	a2,1684(ra)

800024fc <inst_442>:
800024fc:	0000b537          	lui	a0,0xb
80002500:	50550513          	addi	a0,a0,1285 # b505 <absimm+0xad05>
80002504:	0000b5b7          	lui	a1,0xb
80002508:	50558593          	addi	a1,a1,1285 # b505 <absimm+0xad05>
8000250c:	02b56633          	rem	a2,a0,a1
80002510:	68c0ac23          	sw	a2,1688(ra)

80002514 <inst_443>:
80002514:	00000513          	li	a0,0
80002518:	0000b5b7          	lui	a1,0xb
8000251c:	50458593          	addi	a1,a1,1284 # b504 <absimm+0xad04>
80002520:	02b56633          	rem	a2,a0,a1
80002524:	68c0ae23          	sw	a2,1692(ra)

80002528 <inst_444>:
80002528:	00000513          	li	a0,0
8000252c:	00200593          	li	a1,2
80002530:	02b56633          	rem	a2,a0,a1
80002534:	6ac0a023          	sw	a2,1696(ra)

80002538 <inst_445>:
80002538:	00000513          	li	a0,0
8000253c:	555555b7          	lui	a1,0x55555
80002540:	55458593          	addi	a1,a1,1364 # 55555554 <absimm+0x55554d54>
80002544:	02b56633          	rem	a2,a0,a1
80002548:	6ac0a223          	sw	a2,1700(ra)

8000254c <inst_446>:
8000254c:	00000513          	li	a0,0
80002550:	00000593          	li	a1,0
80002554:	02b56633          	rem	a2,a0,a1
80002558:	6ac0a423          	sw	a2,1704(ra)

8000255c <inst_447>:
8000255c:	00000513          	li	a0,0
80002560:	333335b7          	lui	a1,0x33333
80002564:	33258593          	addi	a1,a1,818 # 33333332 <absimm+0x33332b32>
80002568:	02b56633          	rem	a2,a0,a1
8000256c:	6ac0a623          	sw	a2,1708(ra)

80002570 <inst_448>:
80002570:	00000513          	li	a0,0
80002574:	666665b7          	lui	a1,0x66666
80002578:	66558593          	addi	a1,a1,1637 # 66666665 <absimm+0x66665e65>
8000257c:	02b56633          	rem	a2,a0,a1
80002580:	6ac0a823          	sw	a2,1712(ra)

80002584 <inst_449>:
80002584:	00000513          	li	a0,0
80002588:	0000b5b7          	lui	a1,0xb
8000258c:	50358593          	addi	a1,a1,1283 # b503 <absimm+0xad03>
80002590:	02b56633          	rem	a2,a0,a1
80002594:	6ac0aa23          	sw	a2,1716(ra)

80002598 <inst_450>:
80002598:	00000513          	li	a0,0
8000259c:	555555b7          	lui	a1,0x55555
800025a0:	55658593          	addi	a1,a1,1366 # 55555556 <absimm+0x55554d56>
800025a4:	02b56633          	rem	a2,a0,a1
800025a8:	6ac0ac23          	sw	a2,1720(ra)

800025ac <inst_451>:
800025ac:	00000513          	li	a0,0
800025b0:	aaaab5b7          	lui	a1,0xaaaab
800025b4:	aab58593          	addi	a1,a1,-1365 # aaaaaaab <imm12+0xaaaab2ab>
800025b8:	02b56633          	rem	a2,a0,a1
800025bc:	6ac0ae23          	sw	a2,1724(ra)

800025c0 <inst_452>:
800025c0:	00000513          	li	a0,0
800025c4:	00600593          	li	a1,6
800025c8:	02b56633          	rem	a2,a0,a1
800025cc:	6cc0a023          	sw	a2,1728(ra)

800025d0 <inst_453>:
800025d0:	00000513          	li	a0,0
800025d4:	333335b7          	lui	a1,0x33333
800025d8:	33458593          	addi	a1,a1,820 # 33333334 <absimm+0x33332b34>
800025dc:	02b56633          	rem	a2,a0,a1
800025e0:	6cc0a223          	sw	a2,1732(ra)

800025e4 <inst_454>:
800025e4:	00000513          	li	a0,0
800025e8:	666665b7          	lui	a1,0x66666
800025ec:	66758593          	addi	a1,a1,1639 # 66666667 <absimm+0x66665e67>
800025f0:	02b56633          	rem	a2,a0,a1
800025f4:	6cc0a423          	sw	a2,1736(ra)

800025f8 <inst_455>:
800025f8:	00000513          	li	a0,0
800025fc:	ffff55b7          	lui	a1,0xffff5
80002600:	afd58593          	addi	a1,a1,-1283 # ffff4afd <imm12+0xffff52fd>
80002604:	02b56633          	rem	a2,a0,a1
80002608:	6cc0a623          	sw	a2,1740(ra)

8000260c <inst_456>:
8000260c:	00000513          	li	a0,0
80002610:	0000b5b7          	lui	a1,0xb
80002614:	50558593          	addi	a1,a1,1285 # b505 <absimm+0xad05>
80002618:	02b56633          	rem	a2,a0,a1
8000261c:	6cc0a823          	sw	a2,1744(ra)

80002620 <inst_457>:
80002620:	00400513          	li	a0,4
80002624:	00300593          	li	a1,3
80002628:	02b56633          	rem	a2,a0,a1
8000262c:	6cc0aa23          	sw	a2,1748(ra)

80002630 <inst_458>:
80002630:	00400513          	li	a0,4
80002634:	555555b7          	lui	a1,0x55555
80002638:	55558593          	addi	a1,a1,1365 # 55555555 <absimm+0x55554d55>
8000263c:	02b56633          	rem	a2,a0,a1
80002640:	6cc0ac23          	sw	a2,1752(ra)

80002644 <inst_459>:
80002644:	00400513          	li	a0,4
80002648:	aaaab5b7          	lui	a1,0xaaaab
8000264c:	aaa58593          	addi	a1,a1,-1366 # aaaaaaaa <imm12+0xaaaab2aa>
80002650:	02b56633          	rem	a2,a0,a1
80002654:	6cc0ae23          	sw	a2,1756(ra)

80002658 <inst_460>:
80002658:	00400513          	li	a0,4
8000265c:	00500593          	li	a1,5
80002660:	02b56633          	rem	a2,a0,a1
80002664:	6ec0a023          	sw	a2,1760(ra)

80002668 <inst_461>:
80002668:	00400513          	li	a0,4
8000266c:	333335b7          	lui	a1,0x33333
80002670:	33358593          	addi	a1,a1,819 # 33333333 <absimm+0x33332b33>
80002674:	02b56633          	rem	a2,a0,a1
80002678:	6ec0a223          	sw	a2,1764(ra)

8000267c <inst_462>:
8000267c:	00400513          	li	a0,4
80002680:	666665b7          	lui	a1,0x66666
80002684:	66658593          	addi	a1,a1,1638 # 66666666 <absimm+0x66665e66>
80002688:	02b56633          	rem	a2,a0,a1
8000268c:	6ec0a423          	sw	a2,1768(ra)

80002690 <inst_463>:
80002690:	00400513          	li	a0,4
80002694:	ffff55b7          	lui	a1,0xffff5
80002698:	afc58593          	addi	a1,a1,-1284 # ffff4afc <imm12+0xffff52fc>
8000269c:	02b56633          	rem	a2,a0,a1
800026a0:	6ec0a623          	sw	a2,1772(ra)

800026a4 <inst_464>:
800026a4:	00400513          	li	a0,4
800026a8:	0000b5b7          	lui	a1,0xb
800026ac:	50458593          	addi	a1,a1,1284 # b504 <absimm+0xad04>
800026b0:	02b56633          	rem	a2,a0,a1
800026b4:	6ec0a823          	sw	a2,1776(ra)

800026b8 <inst_465>:
800026b8:	00400513          	li	a0,4
800026bc:	00200593          	li	a1,2
800026c0:	02b56633          	rem	a2,a0,a1
800026c4:	6ec0aa23          	sw	a2,1780(ra)

800026c8 <inst_466>:
800026c8:	00400513          	li	a0,4
800026cc:	555555b7          	lui	a1,0x55555
800026d0:	55458593          	addi	a1,a1,1364 # 55555554 <absimm+0x55554d54>
800026d4:	02b56633          	rem	a2,a0,a1
800026d8:	6ec0ac23          	sw	a2,1784(ra)

800026dc <inst_467>:
800026dc:	00400513          	li	a0,4
800026e0:	00000593          	li	a1,0
800026e4:	02b56633          	rem	a2,a0,a1
800026e8:	6ec0ae23          	sw	a2,1788(ra)

800026ec <inst_468>:
800026ec:	00400513          	li	a0,4
800026f0:	00400593          	li	a1,4
800026f4:	02b56633          	rem	a2,a0,a1
800026f8:	70c0a023          	sw	a2,1792(ra)

800026fc <inst_469>:
800026fc:	00400513          	li	a0,4
80002700:	333335b7          	lui	a1,0x33333
80002704:	33258593          	addi	a1,a1,818 # 33333332 <absimm+0x33332b32>
80002708:	02b56633          	rem	a2,a0,a1
8000270c:	70c0a223          	sw	a2,1796(ra)

80002710 <inst_470>:
80002710:	00400513          	li	a0,4
80002714:	666665b7          	lui	a1,0x66666
80002718:	66558593          	addi	a1,a1,1637 # 66666665 <absimm+0x66665e65>
8000271c:	02b56633          	rem	a2,a0,a1
80002720:	70c0a423          	sw	a2,1800(ra)

80002724 <inst_471>:
80002724:	00400513          	li	a0,4
80002728:	0000b5b7          	lui	a1,0xb
8000272c:	50358593          	addi	a1,a1,1283 # b503 <absimm+0xad03>
80002730:	02b56633          	rem	a2,a0,a1
80002734:	70c0a623          	sw	a2,1804(ra)

80002738 <inst_472>:
80002738:	00400513          	li	a0,4
8000273c:	555555b7          	lui	a1,0x55555
80002740:	55658593          	addi	a1,a1,1366 # 55555556 <absimm+0x55554d56>
80002744:	02b56633          	rem	a2,a0,a1
80002748:	70c0a823          	sw	a2,1808(ra)

8000274c <inst_473>:
8000274c:	00400513          	li	a0,4
80002750:	aaaab5b7          	lui	a1,0xaaaab
80002754:	aab58593          	addi	a1,a1,-1365 # aaaaaaab <imm12+0xaaaab2ab>
80002758:	02b56633          	rem	a2,a0,a1
8000275c:	70c0aa23          	sw	a2,1812(ra)

80002760 <inst_474>:
80002760:	00400513          	li	a0,4
80002764:	00600593          	li	a1,6
80002768:	02b56633          	rem	a2,a0,a1
8000276c:	70c0ac23          	sw	a2,1816(ra)

80002770 <inst_475>:
80002770:	00400513          	li	a0,4
80002774:	333335b7          	lui	a1,0x33333
80002778:	33458593          	addi	a1,a1,820 # 33333334 <absimm+0x33332b34>
8000277c:	02b56633          	rem	a2,a0,a1
80002780:	70c0ae23          	sw	a2,1820(ra)

80002784 <inst_476>:
80002784:	00400513          	li	a0,4
80002788:	666665b7          	lui	a1,0x66666
8000278c:	66758593          	addi	a1,a1,1639 # 66666667 <absimm+0x66665e67>
80002790:	02b56633          	rem	a2,a0,a1
80002794:	72c0a023          	sw	a2,1824(ra)

80002798 <inst_477>:
80002798:	00400513          	li	a0,4
8000279c:	ffff55b7          	lui	a1,0xffff5
800027a0:	afd58593          	addi	a1,a1,-1283 # ffff4afd <imm12+0xffff52fd>
800027a4:	02b56633          	rem	a2,a0,a1
800027a8:	72c0a223          	sw	a2,1828(ra)

800027ac <inst_478>:
800027ac:	00400513          	li	a0,4
800027b0:	0000b5b7          	lui	a1,0xb
800027b4:	50558593          	addi	a1,a1,1285 # b505 <absimm+0xad05>
800027b8:	02b56633          	rem	a2,a0,a1
800027bc:	72c0a423          	sw	a2,1832(ra)

800027c0 <inst_479>:
800027c0:	33333537          	lui	a0,0x33333
800027c4:	33250513          	addi	a0,a0,818 # 33333332 <absimm+0x33332b32>
800027c8:	00300593          	li	a1,3
800027cc:	02b56633          	rem	a2,a0,a1
800027d0:	72c0a623          	sw	a2,1836(ra)

800027d4 <inst_480>:
800027d4:	33333537          	lui	a0,0x33333
800027d8:	33250513          	addi	a0,a0,818 # 33333332 <absimm+0x33332b32>
800027dc:	555555b7          	lui	a1,0x55555
800027e0:	55558593          	addi	a1,a1,1365 # 55555555 <absimm+0x55554d55>
800027e4:	02b56633          	rem	a2,a0,a1
800027e8:	72c0a823          	sw	a2,1840(ra)

800027ec <inst_481>:
800027ec:	33333537          	lui	a0,0x33333
800027f0:	33250513          	addi	a0,a0,818 # 33333332 <absimm+0x33332b32>
800027f4:	aaaab5b7          	lui	a1,0xaaaab
800027f8:	aaa58593          	addi	a1,a1,-1366 # aaaaaaaa <imm12+0xaaaab2aa>
800027fc:	02b56633          	rem	a2,a0,a1
80002800:	72c0aa23          	sw	a2,1844(ra)

80002804 <inst_482>:
80002804:	33333537          	lui	a0,0x33333
80002808:	33250513          	addi	a0,a0,818 # 33333332 <absimm+0x33332b32>
8000280c:	00500593          	li	a1,5
80002810:	02b56633          	rem	a2,a0,a1
80002814:	72c0ac23          	sw	a2,1848(ra)

80002818 <inst_483>:
80002818:	33333537          	lui	a0,0x33333
8000281c:	33250513          	addi	a0,a0,818 # 33333332 <absimm+0x33332b32>
80002820:	333335b7          	lui	a1,0x33333
80002824:	33358593          	addi	a1,a1,819 # 33333333 <absimm+0x33332b33>
80002828:	02b56633          	rem	a2,a0,a1
8000282c:	72c0ae23          	sw	a2,1852(ra)

80002830 <inst_484>:
80002830:	33333537          	lui	a0,0x33333
80002834:	33250513          	addi	a0,a0,818 # 33333332 <absimm+0x33332b32>
80002838:	666665b7          	lui	a1,0x66666
8000283c:	66658593          	addi	a1,a1,1638 # 66666666 <absimm+0x66665e66>
80002840:	02b56633          	rem	a2,a0,a1
80002844:	74c0a023          	sw	a2,1856(ra)

80002848 <inst_485>:
80002848:	33333537          	lui	a0,0x33333
8000284c:	33250513          	addi	a0,a0,818 # 33333332 <absimm+0x33332b32>
80002850:	ffff55b7          	lui	a1,0xffff5
80002854:	afc58593          	addi	a1,a1,-1284 # ffff4afc <imm12+0xffff52fc>
80002858:	02b56633          	rem	a2,a0,a1
8000285c:	74c0a223          	sw	a2,1860(ra)

80002860 <inst_486>:
80002860:	33333537          	lui	a0,0x33333
80002864:	33250513          	addi	a0,a0,818 # 33333332 <absimm+0x33332b32>
80002868:	0000b5b7          	lui	a1,0xb
8000286c:	50458593          	addi	a1,a1,1284 # b504 <absimm+0xad04>
80002870:	02b56633          	rem	a2,a0,a1
80002874:	74c0a423          	sw	a2,1864(ra)

80002878 <inst_487>:
80002878:	33333537          	lui	a0,0x33333
8000287c:	33250513          	addi	a0,a0,818 # 33333332 <absimm+0x33332b32>
80002880:	00200593          	li	a1,2
80002884:	02b56633          	rem	a2,a0,a1
80002888:	74c0a623          	sw	a2,1868(ra)

8000288c <inst_488>:
8000288c:	33333537          	lui	a0,0x33333
80002890:	33250513          	addi	a0,a0,818 # 33333332 <absimm+0x33332b32>
80002894:	555555b7          	lui	a1,0x55555
80002898:	55458593          	addi	a1,a1,1364 # 55555554 <absimm+0x55554d54>
8000289c:	02b56633          	rem	a2,a0,a1
800028a0:	74c0a823          	sw	a2,1872(ra)

800028a4 <inst_489>:
800028a4:	33333537          	lui	a0,0x33333
800028a8:	33250513          	addi	a0,a0,818 # 33333332 <absimm+0x33332b32>
800028ac:	00000593          	li	a1,0
800028b0:	02b56633          	rem	a2,a0,a1
800028b4:	74c0aa23          	sw	a2,1876(ra)

800028b8 <inst_490>:
800028b8:	33333537          	lui	a0,0x33333
800028bc:	33250513          	addi	a0,a0,818 # 33333332 <absimm+0x33332b32>
800028c0:	00400593          	li	a1,4
800028c4:	02b56633          	rem	a2,a0,a1
800028c8:	74c0ac23          	sw	a2,1880(ra)

800028cc <inst_491>:
800028cc:	33333537          	lui	a0,0x33333
800028d0:	33250513          	addi	a0,a0,818 # 33333332 <absimm+0x33332b32>
800028d4:	333335b7          	lui	a1,0x33333
800028d8:	33258593          	addi	a1,a1,818 # 33333332 <absimm+0x33332b32>
800028dc:	02b56633          	rem	a2,a0,a1
800028e0:	74c0ae23          	sw	a2,1884(ra)

800028e4 <inst_492>:
800028e4:	33333537          	lui	a0,0x33333
800028e8:	33250513          	addi	a0,a0,818 # 33333332 <absimm+0x33332b32>
800028ec:	666665b7          	lui	a1,0x66666
800028f0:	66558593          	addi	a1,a1,1637 # 66666665 <absimm+0x66665e65>
800028f4:	02b56633          	rem	a2,a0,a1
800028f8:	76c0a023          	sw	a2,1888(ra)

800028fc <inst_493>:
800028fc:	33333537          	lui	a0,0x33333
80002900:	33250513          	addi	a0,a0,818 # 33333332 <absimm+0x33332b32>
80002904:	0000b5b7          	lui	a1,0xb
80002908:	50358593          	addi	a1,a1,1283 # b503 <absimm+0xad03>
8000290c:	02b56633          	rem	a2,a0,a1
80002910:	76c0a223          	sw	a2,1892(ra)

80002914 <inst_494>:
80002914:	33333537          	lui	a0,0x33333
80002918:	33250513          	addi	a0,a0,818 # 33333332 <absimm+0x33332b32>
8000291c:	555555b7          	lui	a1,0x55555
80002920:	55658593          	addi	a1,a1,1366 # 55555556 <absimm+0x55554d56>
80002924:	02b56633          	rem	a2,a0,a1
80002928:	76c0a423          	sw	a2,1896(ra)

8000292c <inst_495>:
8000292c:	33333537          	lui	a0,0x33333
80002930:	33250513          	addi	a0,a0,818 # 33333332 <absimm+0x33332b32>
80002934:	aaaab5b7          	lui	a1,0xaaaab
80002938:	aab58593          	addi	a1,a1,-1365 # aaaaaaab <imm12+0xaaaab2ab>
8000293c:	02b56633          	rem	a2,a0,a1
80002940:	76c0a623          	sw	a2,1900(ra)

80002944 <inst_496>:
80002944:	33333537          	lui	a0,0x33333
80002948:	33250513          	addi	a0,a0,818 # 33333332 <absimm+0x33332b32>
8000294c:	00600593          	li	a1,6
80002950:	02b56633          	rem	a2,a0,a1
80002954:	76c0a823          	sw	a2,1904(ra)

80002958 <inst_497>:
80002958:	33333537          	lui	a0,0x33333
8000295c:	33250513          	addi	a0,a0,818 # 33333332 <absimm+0x33332b32>
80002960:	333335b7          	lui	a1,0x33333
80002964:	33458593          	addi	a1,a1,820 # 33333334 <absimm+0x33332b34>
80002968:	02b56633          	rem	a2,a0,a1
8000296c:	76c0aa23          	sw	a2,1908(ra)

80002970 <inst_498>:
80002970:	33333537          	lui	a0,0x33333
80002974:	33250513          	addi	a0,a0,818 # 33333332 <absimm+0x33332b32>
80002978:	666665b7          	lui	a1,0x66666
8000297c:	66758593          	addi	a1,a1,1639 # 66666667 <absimm+0x66665e67>
80002980:	02b56633          	rem	a2,a0,a1
80002984:	76c0ac23          	sw	a2,1912(ra)

80002988 <inst_499>:
80002988:	33333537          	lui	a0,0x33333
8000298c:	33250513          	addi	a0,a0,818 # 33333332 <absimm+0x33332b32>
80002990:	ffff55b7          	lui	a1,0xffff5
80002994:	afd58593          	addi	a1,a1,-1283 # ffff4afd <imm12+0xffff52fd>
80002998:	02b56633          	rem	a2,a0,a1
8000299c:	76c0ae23          	sw	a2,1916(ra)

800029a0 <inst_500>:
800029a0:	33333537          	lui	a0,0x33333
800029a4:	33250513          	addi	a0,a0,818 # 33333332 <absimm+0x33332b32>
800029a8:	0000b5b7          	lui	a1,0xb
800029ac:	50558593          	addi	a1,a1,1285 # b505 <absimm+0xad05>
800029b0:	02b56633          	rem	a2,a0,a1
800029b4:	78c0a023          	sw	a2,1920(ra)

800029b8 <inst_501>:
800029b8:	66666537          	lui	a0,0x66666
800029bc:	66550513          	addi	a0,a0,1637 # 66666665 <absimm+0x66665e65>
800029c0:	00300593          	li	a1,3
800029c4:	02b56633          	rem	a2,a0,a1
800029c8:	78c0a223          	sw	a2,1924(ra)

800029cc <inst_502>:
800029cc:	66666537          	lui	a0,0x66666
800029d0:	66550513          	addi	a0,a0,1637 # 66666665 <absimm+0x66665e65>
800029d4:	555555b7          	lui	a1,0x55555
800029d8:	55558593          	addi	a1,a1,1365 # 55555555 <absimm+0x55554d55>
800029dc:	02b56633          	rem	a2,a0,a1
800029e0:	78c0a423          	sw	a2,1928(ra)

800029e4 <inst_503>:
800029e4:	66666537          	lui	a0,0x66666
800029e8:	66550513          	addi	a0,a0,1637 # 66666665 <absimm+0x66665e65>
800029ec:	aaaab5b7          	lui	a1,0xaaaab
800029f0:	aaa58593          	addi	a1,a1,-1366 # aaaaaaaa <imm12+0xaaaab2aa>
800029f4:	02b56633          	rem	a2,a0,a1
800029f8:	78c0a623          	sw	a2,1932(ra)

800029fc <inst_504>:
800029fc:	66666537          	lui	a0,0x66666
80002a00:	66550513          	addi	a0,a0,1637 # 66666665 <absimm+0x66665e65>
80002a04:	00500593          	li	a1,5
80002a08:	02b56633          	rem	a2,a0,a1
80002a0c:	78c0a823          	sw	a2,1936(ra)

80002a10 <inst_505>:
80002a10:	66666537          	lui	a0,0x66666
80002a14:	66550513          	addi	a0,a0,1637 # 66666665 <absimm+0x66665e65>
80002a18:	333335b7          	lui	a1,0x33333
80002a1c:	33358593          	addi	a1,a1,819 # 33333333 <absimm+0x33332b33>
80002a20:	02b56633          	rem	a2,a0,a1
80002a24:	78c0aa23          	sw	a2,1940(ra)

80002a28 <inst_506>:
80002a28:	66666537          	lui	a0,0x66666
80002a2c:	66550513          	addi	a0,a0,1637 # 66666665 <absimm+0x66665e65>
80002a30:	666665b7          	lui	a1,0x66666
80002a34:	66658593          	addi	a1,a1,1638 # 66666666 <absimm+0x66665e66>
80002a38:	02b56633          	rem	a2,a0,a1
80002a3c:	78c0ac23          	sw	a2,1944(ra)

80002a40 <inst_507>:
80002a40:	66666537          	lui	a0,0x66666
80002a44:	66550513          	addi	a0,a0,1637 # 66666665 <absimm+0x66665e65>
80002a48:	ffff55b7          	lui	a1,0xffff5
80002a4c:	afc58593          	addi	a1,a1,-1284 # ffff4afc <imm12+0xffff52fc>
80002a50:	02b56633          	rem	a2,a0,a1
80002a54:	78c0ae23          	sw	a2,1948(ra)

80002a58 <inst_508>:
80002a58:	66666537          	lui	a0,0x66666
80002a5c:	66550513          	addi	a0,a0,1637 # 66666665 <absimm+0x66665e65>
80002a60:	0000b5b7          	lui	a1,0xb
80002a64:	50458593          	addi	a1,a1,1284 # b504 <absimm+0xad04>
80002a68:	02b56633          	rem	a2,a0,a1
80002a6c:	7ac0a023          	sw	a2,1952(ra)

80002a70 <inst_509>:
80002a70:	66666537          	lui	a0,0x66666
80002a74:	66550513          	addi	a0,a0,1637 # 66666665 <absimm+0x66665e65>
80002a78:	00200593          	li	a1,2
80002a7c:	02b56633          	rem	a2,a0,a1
80002a80:	7ac0a223          	sw	a2,1956(ra)

80002a84 <inst_510>:
80002a84:	66666537          	lui	a0,0x66666
80002a88:	66550513          	addi	a0,a0,1637 # 66666665 <absimm+0x66665e65>
80002a8c:	555555b7          	lui	a1,0x55555
80002a90:	55458593          	addi	a1,a1,1364 # 55555554 <absimm+0x55554d54>
80002a94:	02b56633          	rem	a2,a0,a1
80002a98:	7ac0a423          	sw	a2,1960(ra)

80002a9c <inst_511>:
80002a9c:	66666537          	lui	a0,0x66666
80002aa0:	66550513          	addi	a0,a0,1637 # 66666665 <absimm+0x66665e65>
80002aa4:	00000593          	li	a1,0
80002aa8:	02b56633          	rem	a2,a0,a1
80002aac:	7ac0a623          	sw	a2,1964(ra)

80002ab0 <inst_512>:
80002ab0:	66666537          	lui	a0,0x66666
80002ab4:	66550513          	addi	a0,a0,1637 # 66666665 <absimm+0x66665e65>
80002ab8:	00400593          	li	a1,4
80002abc:	02b56633          	rem	a2,a0,a1
80002ac0:	7ac0a823          	sw	a2,1968(ra)

80002ac4 <inst_513>:
80002ac4:	66666537          	lui	a0,0x66666
80002ac8:	66550513          	addi	a0,a0,1637 # 66666665 <absimm+0x66665e65>
80002acc:	333335b7          	lui	a1,0x33333
80002ad0:	33258593          	addi	a1,a1,818 # 33333332 <absimm+0x33332b32>
80002ad4:	02b56633          	rem	a2,a0,a1
80002ad8:	7ac0aa23          	sw	a2,1972(ra)

80002adc <inst_514>:
80002adc:	66666537          	lui	a0,0x66666
80002ae0:	66550513          	addi	a0,a0,1637 # 66666665 <absimm+0x66665e65>
80002ae4:	666665b7          	lui	a1,0x66666
80002ae8:	66558593          	addi	a1,a1,1637 # 66666665 <absimm+0x66665e65>
80002aec:	02b56633          	rem	a2,a0,a1
80002af0:	7ac0ac23          	sw	a2,1976(ra)

80002af4 <inst_515>:
80002af4:	66666537          	lui	a0,0x66666
80002af8:	66550513          	addi	a0,a0,1637 # 66666665 <absimm+0x66665e65>
80002afc:	0000b5b7          	lui	a1,0xb
80002b00:	50358593          	addi	a1,a1,1283 # b503 <absimm+0xad03>
80002b04:	02b56633          	rem	a2,a0,a1
80002b08:	7ac0ae23          	sw	a2,1980(ra)

80002b0c <inst_516>:
80002b0c:	66666537          	lui	a0,0x66666
80002b10:	66550513          	addi	a0,a0,1637 # 66666665 <absimm+0x66665e65>
80002b14:	555555b7          	lui	a1,0x55555
80002b18:	55658593          	addi	a1,a1,1366 # 55555556 <absimm+0x55554d56>
80002b1c:	02b56633          	rem	a2,a0,a1
80002b20:	7cc0a023          	sw	a2,1984(ra)

80002b24 <inst_517>:
80002b24:	66666537          	lui	a0,0x66666
80002b28:	66550513          	addi	a0,a0,1637 # 66666665 <absimm+0x66665e65>
80002b2c:	aaaab5b7          	lui	a1,0xaaaab
80002b30:	aab58593          	addi	a1,a1,-1365 # aaaaaaab <imm12+0xaaaab2ab>
80002b34:	02b56633          	rem	a2,a0,a1
80002b38:	7cc0a223          	sw	a2,1988(ra)

80002b3c <inst_518>:
80002b3c:	66666537          	lui	a0,0x66666
80002b40:	66550513          	addi	a0,a0,1637 # 66666665 <absimm+0x66665e65>
80002b44:	00600593          	li	a1,6
80002b48:	02b56633          	rem	a2,a0,a1
80002b4c:	7cc0a423          	sw	a2,1992(ra)

80002b50 <inst_519>:
80002b50:	66666537          	lui	a0,0x66666
80002b54:	66550513          	addi	a0,a0,1637 # 66666665 <absimm+0x66665e65>
80002b58:	333335b7          	lui	a1,0x33333
80002b5c:	33458593          	addi	a1,a1,820 # 33333334 <absimm+0x33332b34>
80002b60:	02b56633          	rem	a2,a0,a1
80002b64:	7cc0a623          	sw	a2,1996(ra)

80002b68 <inst_520>:
80002b68:	66666537          	lui	a0,0x66666
80002b6c:	66550513          	addi	a0,a0,1637 # 66666665 <absimm+0x66665e65>
80002b70:	666665b7          	lui	a1,0x66666
80002b74:	66758593          	addi	a1,a1,1639 # 66666667 <absimm+0x66665e67>
80002b78:	02b56633          	rem	a2,a0,a1
80002b7c:	7cc0a823          	sw	a2,2000(ra)

80002b80 <inst_521>:
80002b80:	66666537          	lui	a0,0x66666
80002b84:	66550513          	addi	a0,a0,1637 # 66666665 <absimm+0x66665e65>
80002b88:	ffff55b7          	lui	a1,0xffff5
80002b8c:	afd58593          	addi	a1,a1,-1283 # ffff4afd <imm12+0xffff52fd>
80002b90:	02b56633          	rem	a2,a0,a1
80002b94:	7cc0aa23          	sw	a2,2004(ra)

80002b98 <inst_522>:
80002b98:	66666537          	lui	a0,0x66666
80002b9c:	66550513          	addi	a0,a0,1637 # 66666665 <absimm+0x66665e65>
80002ba0:	0000b5b7          	lui	a1,0xb
80002ba4:	50558593          	addi	a1,a1,1285 # b505 <absimm+0xad05>
80002ba8:	02b56633          	rem	a2,a0,a1
80002bac:	7cc0ac23          	sw	a2,2008(ra)

80002bb0 <inst_523>:
80002bb0:	0000b537          	lui	a0,0xb
80002bb4:	50350513          	addi	a0,a0,1283 # b503 <absimm+0xad03>
80002bb8:	00300593          	li	a1,3
80002bbc:	02b56633          	rem	a2,a0,a1
80002bc0:	7cc0ae23          	sw	a2,2012(ra)

80002bc4 <inst_524>:
80002bc4:	0000b537          	lui	a0,0xb
80002bc8:	50350513          	addi	a0,a0,1283 # b503 <absimm+0xad03>
80002bcc:	555555b7          	lui	a1,0x55555
80002bd0:	55558593          	addi	a1,a1,1365 # 55555555 <absimm+0x55554d55>
80002bd4:	02b56633          	rem	a2,a0,a1
80002bd8:	7ec0a023          	sw	a2,2016(ra)

80002bdc <inst_525>:
80002bdc:	0000b537          	lui	a0,0xb
80002be0:	50350513          	addi	a0,a0,1283 # b503 <absimm+0xad03>
80002be4:	aaaab5b7          	lui	a1,0xaaaab
80002be8:	aaa58593          	addi	a1,a1,-1366 # aaaaaaaa <imm12+0xaaaab2aa>
80002bec:	02b56633          	rem	a2,a0,a1
80002bf0:	7ec0a223          	sw	a2,2020(ra)

80002bf4 <inst_526>:
80002bf4:	0000b537          	lui	a0,0xb
80002bf8:	50350513          	addi	a0,a0,1283 # b503 <absimm+0xad03>
80002bfc:	00500593          	li	a1,5
80002c00:	02b56633          	rem	a2,a0,a1
80002c04:	7ec0a423          	sw	a2,2024(ra)

80002c08 <inst_527>:
80002c08:	0000b537          	lui	a0,0xb
80002c0c:	50350513          	addi	a0,a0,1283 # b503 <absimm+0xad03>
80002c10:	333335b7          	lui	a1,0x33333
80002c14:	33358593          	addi	a1,a1,819 # 33333333 <absimm+0x33332b33>
80002c18:	02b56633          	rem	a2,a0,a1
80002c1c:	7ec0a623          	sw	a2,2028(ra)

80002c20 <inst_528>:
80002c20:	0000b537          	lui	a0,0xb
80002c24:	50350513          	addi	a0,a0,1283 # b503 <absimm+0xad03>
80002c28:	666665b7          	lui	a1,0x66666
80002c2c:	66658593          	addi	a1,a1,1638 # 66666666 <absimm+0x66665e66>
80002c30:	02b56633          	rem	a2,a0,a1
80002c34:	7ec0a823          	sw	a2,2032(ra)

80002c38 <inst_529>:
80002c38:	0000b537          	lui	a0,0xb
80002c3c:	50350513          	addi	a0,a0,1283 # b503 <absimm+0xad03>
80002c40:	ffff55b7          	lui	a1,0xffff5
80002c44:	afc58593          	addi	a1,a1,-1284 # ffff4afc <imm12+0xffff52fc>
80002c48:	02b56633          	rem	a2,a0,a1
80002c4c:	7ec0aa23          	sw	a2,2036(ra)

80002c50 <inst_530>:
80002c50:	0000b537          	lui	a0,0xb
80002c54:	50350513          	addi	a0,a0,1283 # b503 <absimm+0xad03>
80002c58:	0000b5b7          	lui	a1,0xb
80002c5c:	50458593          	addi	a1,a1,1284 # b504 <absimm+0xad04>
80002c60:	02b56633          	rem	a2,a0,a1
80002c64:	7ec0ac23          	sw	a2,2040(ra)

80002c68 <inst_531>:
80002c68:	0000b537          	lui	a0,0xb
80002c6c:	50350513          	addi	a0,a0,1283 # b503 <absimm+0xad03>
80002c70:	00200593          	li	a1,2
80002c74:	02b56633          	rem	a2,a0,a1
80002c78:	7ec0ae23          	sw	a2,2044(ra)
80002c7c:	00004097          	auipc	ra,0x4
80002c80:	ce808093          	addi	ra,ra,-792 # 80006964 <signature_x1_1>

80002c84 <inst_532>:
80002c84:	0000b537          	lui	a0,0xb
80002c88:	50350513          	addi	a0,a0,1283 # b503 <absimm+0xad03>
80002c8c:	555555b7          	lui	a1,0x55555
80002c90:	55458593          	addi	a1,a1,1364 # 55555554 <absimm+0x55554d54>
80002c94:	02b56633          	rem	a2,a0,a1
80002c98:	00c0a023          	sw	a2,0(ra)

80002c9c <inst_533>:
80002c9c:	0000b537          	lui	a0,0xb
80002ca0:	50350513          	addi	a0,a0,1283 # b503 <absimm+0xad03>
80002ca4:	00000593          	li	a1,0
80002ca8:	02b56633          	rem	a2,a0,a1
80002cac:	00c0a223          	sw	a2,4(ra)

80002cb0 <inst_534>:
80002cb0:	0000b537          	lui	a0,0xb
80002cb4:	50350513          	addi	a0,a0,1283 # b503 <absimm+0xad03>
80002cb8:	00400593          	li	a1,4
80002cbc:	02b56633          	rem	a2,a0,a1
80002cc0:	00c0a423          	sw	a2,8(ra)

80002cc4 <inst_535>:
80002cc4:	0000b537          	lui	a0,0xb
80002cc8:	50350513          	addi	a0,a0,1283 # b503 <absimm+0xad03>
80002ccc:	333335b7          	lui	a1,0x33333
80002cd0:	33258593          	addi	a1,a1,818 # 33333332 <absimm+0x33332b32>
80002cd4:	02b56633          	rem	a2,a0,a1
80002cd8:	00c0a623          	sw	a2,12(ra)

80002cdc <inst_536>:
80002cdc:	0000b537          	lui	a0,0xb
80002ce0:	50350513          	addi	a0,a0,1283 # b503 <absimm+0xad03>
80002ce4:	666665b7          	lui	a1,0x66666
80002ce8:	66558593          	addi	a1,a1,1637 # 66666665 <absimm+0x66665e65>
80002cec:	02b56633          	rem	a2,a0,a1
80002cf0:	00c0a823          	sw	a2,16(ra)

80002cf4 <inst_537>:
80002cf4:	0000b537          	lui	a0,0xb
80002cf8:	50350513          	addi	a0,a0,1283 # b503 <absimm+0xad03>
80002cfc:	0000b5b7          	lui	a1,0xb
80002d00:	50358593          	addi	a1,a1,1283 # b503 <absimm+0xad03>
80002d04:	02b56633          	rem	a2,a0,a1
80002d08:	00c0aa23          	sw	a2,20(ra)

80002d0c <inst_538>:
80002d0c:	0000b537          	lui	a0,0xb
80002d10:	50350513          	addi	a0,a0,1283 # b503 <absimm+0xad03>
80002d14:	555555b7          	lui	a1,0x55555
80002d18:	55658593          	addi	a1,a1,1366 # 55555556 <absimm+0x55554d56>
80002d1c:	02b56633          	rem	a2,a0,a1
80002d20:	00c0ac23          	sw	a2,24(ra)

80002d24 <inst_539>:
80002d24:	0000b537          	lui	a0,0xb
80002d28:	50350513          	addi	a0,a0,1283 # b503 <absimm+0xad03>
80002d2c:	aaaab5b7          	lui	a1,0xaaaab
80002d30:	aab58593          	addi	a1,a1,-1365 # aaaaaaab <imm12+0xaaaab2ab>
80002d34:	02b56633          	rem	a2,a0,a1
80002d38:	00c0ae23          	sw	a2,28(ra)

80002d3c <inst_540>:
80002d3c:	0000b537          	lui	a0,0xb
80002d40:	50350513          	addi	a0,a0,1283 # b503 <absimm+0xad03>
80002d44:	00600593          	li	a1,6
80002d48:	02b56633          	rem	a2,a0,a1
80002d4c:	02c0a023          	sw	a2,32(ra)

80002d50 <inst_541>:
80002d50:	0000b537          	lui	a0,0xb
80002d54:	50350513          	addi	a0,a0,1283 # b503 <absimm+0xad03>
80002d58:	333335b7          	lui	a1,0x33333
80002d5c:	33458593          	addi	a1,a1,820 # 33333334 <absimm+0x33332b34>
80002d60:	02b56633          	rem	a2,a0,a1
80002d64:	02c0a223          	sw	a2,36(ra)

80002d68 <inst_542>:
80002d68:	0000b537          	lui	a0,0xb
80002d6c:	50350513          	addi	a0,a0,1283 # b503 <absimm+0xad03>
80002d70:	666665b7          	lui	a1,0x66666
80002d74:	66758593          	addi	a1,a1,1639 # 66666667 <absimm+0x66665e67>
80002d78:	02b56633          	rem	a2,a0,a1
80002d7c:	02c0a423          	sw	a2,40(ra)

80002d80 <inst_543>:
80002d80:	0000b537          	lui	a0,0xb
80002d84:	50350513          	addi	a0,a0,1283 # b503 <absimm+0xad03>
80002d88:	ffff55b7          	lui	a1,0xffff5
80002d8c:	afd58593          	addi	a1,a1,-1283 # ffff4afd <imm12+0xffff52fd>
80002d90:	02b56633          	rem	a2,a0,a1
80002d94:	02c0a623          	sw	a2,44(ra)

80002d98 <inst_544>:
80002d98:	0000b537          	lui	a0,0xb
80002d9c:	50350513          	addi	a0,a0,1283 # b503 <absimm+0xad03>
80002da0:	0000b5b7          	lui	a1,0xb
80002da4:	50558593          	addi	a1,a1,1285 # b505 <absimm+0xad05>
80002da8:	02b56633          	rem	a2,a0,a1
80002dac:	02c0a823          	sw	a2,48(ra)

80002db0 <inst_545>:
80002db0:	55555537          	lui	a0,0x55555
80002db4:	55650513          	addi	a0,a0,1366 # 55555556 <absimm+0x55554d56>
80002db8:	00300593          	li	a1,3
80002dbc:	02b56633          	rem	a2,a0,a1
80002dc0:	02c0aa23          	sw	a2,52(ra)

80002dc4 <inst_546>:
80002dc4:	55555537          	lui	a0,0x55555
80002dc8:	55650513          	addi	a0,a0,1366 # 55555556 <absimm+0x55554d56>
80002dcc:	555555b7          	lui	a1,0x55555
80002dd0:	55558593          	addi	a1,a1,1365 # 55555555 <absimm+0x55554d55>
80002dd4:	02b56633          	rem	a2,a0,a1
80002dd8:	02c0ac23          	sw	a2,56(ra)

80002ddc <inst_547>:
80002ddc:	55555537          	lui	a0,0x55555
80002de0:	55650513          	addi	a0,a0,1366 # 55555556 <absimm+0x55554d56>
80002de4:	aaaab5b7          	lui	a1,0xaaaab
80002de8:	aaa58593          	addi	a1,a1,-1366 # aaaaaaaa <imm12+0xaaaab2aa>
80002dec:	02b56633          	rem	a2,a0,a1
80002df0:	02c0ae23          	sw	a2,60(ra)

80002df4 <inst_548>:
80002df4:	55555537          	lui	a0,0x55555
80002df8:	55650513          	addi	a0,a0,1366 # 55555556 <absimm+0x55554d56>
80002dfc:	00500593          	li	a1,5
80002e00:	02b56633          	rem	a2,a0,a1
80002e04:	04c0a023          	sw	a2,64(ra)

80002e08 <inst_549>:
80002e08:	55555537          	lui	a0,0x55555
80002e0c:	55650513          	addi	a0,a0,1366 # 55555556 <absimm+0x55554d56>
80002e10:	333335b7          	lui	a1,0x33333
80002e14:	33358593          	addi	a1,a1,819 # 33333333 <absimm+0x33332b33>
80002e18:	02b56633          	rem	a2,a0,a1
80002e1c:	04c0a223          	sw	a2,68(ra)

80002e20 <inst_550>:
80002e20:	55555537          	lui	a0,0x55555
80002e24:	55650513          	addi	a0,a0,1366 # 55555556 <absimm+0x55554d56>
80002e28:	666665b7          	lui	a1,0x66666
80002e2c:	66658593          	addi	a1,a1,1638 # 66666666 <absimm+0x66665e66>
80002e30:	02b56633          	rem	a2,a0,a1
80002e34:	04c0a423          	sw	a2,72(ra)

80002e38 <inst_551>:
80002e38:	55555537          	lui	a0,0x55555
80002e3c:	55650513          	addi	a0,a0,1366 # 55555556 <absimm+0x55554d56>
80002e40:	ffff55b7          	lui	a1,0xffff5
80002e44:	afc58593          	addi	a1,a1,-1284 # ffff4afc <imm12+0xffff52fc>
80002e48:	02b56633          	rem	a2,a0,a1
80002e4c:	04c0a623          	sw	a2,76(ra)

80002e50 <inst_552>:
80002e50:	55555537          	lui	a0,0x55555
80002e54:	55650513          	addi	a0,a0,1366 # 55555556 <absimm+0x55554d56>
80002e58:	0000b5b7          	lui	a1,0xb
80002e5c:	50458593          	addi	a1,a1,1284 # b504 <absimm+0xad04>
80002e60:	02b56633          	rem	a2,a0,a1
80002e64:	04c0a823          	sw	a2,80(ra)

80002e68 <inst_553>:
80002e68:	55555537          	lui	a0,0x55555
80002e6c:	55650513          	addi	a0,a0,1366 # 55555556 <absimm+0x55554d56>
80002e70:	555555b7          	lui	a1,0x55555
80002e74:	55458593          	addi	a1,a1,1364 # 55555554 <absimm+0x55554d54>
80002e78:	02b56633          	rem	a2,a0,a1
80002e7c:	04c0aa23          	sw	a2,84(ra)

80002e80 <inst_554>:
80002e80:	55555537          	lui	a0,0x55555
80002e84:	55650513          	addi	a0,a0,1366 # 55555556 <absimm+0x55554d56>
80002e88:	00000593          	li	a1,0
80002e8c:	02b56633          	rem	a2,a0,a1
80002e90:	04c0ac23          	sw	a2,88(ra)

80002e94 <inst_555>:
80002e94:	55555537          	lui	a0,0x55555
80002e98:	55650513          	addi	a0,a0,1366 # 55555556 <absimm+0x55554d56>
80002e9c:	00400593          	li	a1,4
80002ea0:	02b56633          	rem	a2,a0,a1
80002ea4:	04c0ae23          	sw	a2,92(ra)

80002ea8 <inst_556>:
80002ea8:	55555537          	lui	a0,0x55555
80002eac:	55650513          	addi	a0,a0,1366 # 55555556 <absimm+0x55554d56>
80002eb0:	333335b7          	lui	a1,0x33333
80002eb4:	33258593          	addi	a1,a1,818 # 33333332 <absimm+0x33332b32>
80002eb8:	02b56633          	rem	a2,a0,a1
80002ebc:	06c0a023          	sw	a2,96(ra)

80002ec0 <inst_557>:
80002ec0:	55555537          	lui	a0,0x55555
80002ec4:	55650513          	addi	a0,a0,1366 # 55555556 <absimm+0x55554d56>
80002ec8:	666665b7          	lui	a1,0x66666
80002ecc:	66558593          	addi	a1,a1,1637 # 66666665 <absimm+0x66665e65>
80002ed0:	02b56633          	rem	a2,a0,a1
80002ed4:	06c0a223          	sw	a2,100(ra)

80002ed8 <inst_558>:
80002ed8:	55555537          	lui	a0,0x55555
80002edc:	55650513          	addi	a0,a0,1366 # 55555556 <absimm+0x55554d56>
80002ee0:	0000b5b7          	lui	a1,0xb
80002ee4:	50358593          	addi	a1,a1,1283 # b503 <absimm+0xad03>
80002ee8:	02b56633          	rem	a2,a0,a1
80002eec:	06c0a423          	sw	a2,104(ra)

80002ef0 <inst_559>:
80002ef0:	55555537          	lui	a0,0x55555
80002ef4:	55650513          	addi	a0,a0,1366 # 55555556 <absimm+0x55554d56>
80002ef8:	555555b7          	lui	a1,0x55555
80002efc:	55658593          	addi	a1,a1,1366 # 55555556 <absimm+0x55554d56>
80002f00:	02b56633          	rem	a2,a0,a1
80002f04:	06c0a623          	sw	a2,108(ra)

80002f08 <inst_560>:
80002f08:	55555537          	lui	a0,0x55555
80002f0c:	55650513          	addi	a0,a0,1366 # 55555556 <absimm+0x55554d56>
80002f10:	aaaab5b7          	lui	a1,0xaaaab
80002f14:	aab58593          	addi	a1,a1,-1365 # aaaaaaab <imm12+0xaaaab2ab>
80002f18:	02b56633          	rem	a2,a0,a1
80002f1c:	06c0a823          	sw	a2,112(ra)

80002f20 <inst_561>:
80002f20:	55555537          	lui	a0,0x55555
80002f24:	55650513          	addi	a0,a0,1366 # 55555556 <absimm+0x55554d56>
80002f28:	00600593          	li	a1,6
80002f2c:	02b56633          	rem	a2,a0,a1
80002f30:	06c0aa23          	sw	a2,116(ra)

80002f34 <inst_562>:
80002f34:	55555537          	lui	a0,0x55555
80002f38:	55650513          	addi	a0,a0,1366 # 55555556 <absimm+0x55554d56>
80002f3c:	333335b7          	lui	a1,0x33333
80002f40:	33458593          	addi	a1,a1,820 # 33333334 <absimm+0x33332b34>
80002f44:	02b56633          	rem	a2,a0,a1
80002f48:	06c0ac23          	sw	a2,120(ra)

80002f4c <inst_563>:
80002f4c:	55555537          	lui	a0,0x55555
80002f50:	55650513          	addi	a0,a0,1366 # 55555556 <absimm+0x55554d56>
80002f54:	666665b7          	lui	a1,0x66666
80002f58:	66758593          	addi	a1,a1,1639 # 66666667 <absimm+0x66665e67>
80002f5c:	02b56633          	rem	a2,a0,a1
80002f60:	06c0ae23          	sw	a2,124(ra)

80002f64 <inst_564>:
80002f64:	55555537          	lui	a0,0x55555
80002f68:	55650513          	addi	a0,a0,1366 # 55555556 <absimm+0x55554d56>
80002f6c:	ffff55b7          	lui	a1,0xffff5
80002f70:	afd58593          	addi	a1,a1,-1283 # ffff4afd <imm12+0xffff52fd>
80002f74:	02b56633          	rem	a2,a0,a1
80002f78:	08c0a023          	sw	a2,128(ra)

80002f7c <inst_565>:
80002f7c:	55555537          	lui	a0,0x55555
80002f80:	55650513          	addi	a0,a0,1366 # 55555556 <absimm+0x55554d56>
80002f84:	0000b5b7          	lui	a1,0xb
80002f88:	50558593          	addi	a1,a1,1285 # b505 <absimm+0xad05>
80002f8c:	02b56633          	rem	a2,a0,a1
80002f90:	08c0a223          	sw	a2,132(ra)

80002f94 <inst_566>:
80002f94:	aaaab537          	lui	a0,0xaaaab
80002f98:	aab50513          	addi	a0,a0,-1365 # aaaaaaab <imm12+0xaaaab2ab>
80002f9c:	00300593          	li	a1,3
80002fa0:	02b56633          	rem	a2,a0,a1
80002fa4:	08c0a423          	sw	a2,136(ra)

80002fa8 <inst_567>:
80002fa8:	aaaab537          	lui	a0,0xaaaab
80002fac:	aab50513          	addi	a0,a0,-1365 # aaaaaaab <imm12+0xaaaab2ab>
80002fb0:	555555b7          	lui	a1,0x55555
80002fb4:	55558593          	addi	a1,a1,1365 # 55555555 <absimm+0x55554d55>
80002fb8:	02b56633          	rem	a2,a0,a1
80002fbc:	08c0a623          	sw	a2,140(ra)

80002fc0 <inst_568>:
80002fc0:	aaaab537          	lui	a0,0xaaaab
80002fc4:	aab50513          	addi	a0,a0,-1365 # aaaaaaab <imm12+0xaaaab2ab>
80002fc8:	aaaab5b7          	lui	a1,0xaaaab
80002fcc:	aaa58593          	addi	a1,a1,-1366 # aaaaaaaa <imm12+0xaaaab2aa>
80002fd0:	02b56633          	rem	a2,a0,a1
80002fd4:	08c0a823          	sw	a2,144(ra)

80002fd8 <inst_569>:
80002fd8:	aaaab537          	lui	a0,0xaaaab
80002fdc:	aab50513          	addi	a0,a0,-1365 # aaaaaaab <imm12+0xaaaab2ab>
80002fe0:	00500593          	li	a1,5
80002fe4:	02b56633          	rem	a2,a0,a1
80002fe8:	08c0aa23          	sw	a2,148(ra)

80002fec <inst_570>:
80002fec:	aaaab537          	lui	a0,0xaaaab
80002ff0:	aab50513          	addi	a0,a0,-1365 # aaaaaaab <imm12+0xaaaab2ab>
80002ff4:	333335b7          	lui	a1,0x33333
80002ff8:	33358593          	addi	a1,a1,819 # 33333333 <absimm+0x33332b33>
80002ffc:	02b56633          	rem	a2,a0,a1
80003000:	08c0ac23          	sw	a2,152(ra)

80003004 <inst_571>:
80003004:	aaaab537          	lui	a0,0xaaaab
80003008:	aab50513          	addi	a0,a0,-1365 # aaaaaaab <imm12+0xaaaab2ab>
8000300c:	666665b7          	lui	a1,0x66666
80003010:	66658593          	addi	a1,a1,1638 # 66666666 <absimm+0x66665e66>
80003014:	02b56633          	rem	a2,a0,a1
80003018:	08c0ae23          	sw	a2,156(ra)

8000301c <inst_572>:
8000301c:	aaaab537          	lui	a0,0xaaaab
80003020:	aab50513          	addi	a0,a0,-1365 # aaaaaaab <imm12+0xaaaab2ab>
80003024:	ffff55b7          	lui	a1,0xffff5
80003028:	afc58593          	addi	a1,a1,-1284 # ffff4afc <imm12+0xffff52fc>
8000302c:	02b56633          	rem	a2,a0,a1
80003030:	0ac0a023          	sw	a2,160(ra)

80003034 <inst_573>:
80003034:	aaaab537          	lui	a0,0xaaaab
80003038:	aab50513          	addi	a0,a0,-1365 # aaaaaaab <imm12+0xaaaab2ab>
8000303c:	0000b5b7          	lui	a1,0xb
80003040:	50458593          	addi	a1,a1,1284 # b504 <absimm+0xad04>
80003044:	02b56633          	rem	a2,a0,a1
80003048:	0ac0a223          	sw	a2,164(ra)

8000304c <inst_574>:
8000304c:	aaaab537          	lui	a0,0xaaaab
80003050:	aab50513          	addi	a0,a0,-1365 # aaaaaaab <imm12+0xaaaab2ab>
80003054:	00200593          	li	a1,2
80003058:	02b56633          	rem	a2,a0,a1
8000305c:	0ac0a423          	sw	a2,168(ra)

80003060 <inst_575>:
80003060:	aaaab537          	lui	a0,0xaaaab
80003064:	aab50513          	addi	a0,a0,-1365 # aaaaaaab <imm12+0xaaaab2ab>
80003068:	555555b7          	lui	a1,0x55555
8000306c:	55458593          	addi	a1,a1,1364 # 55555554 <absimm+0x55554d54>
80003070:	02b56633          	rem	a2,a0,a1
80003074:	0ac0a623          	sw	a2,172(ra)

80003078 <inst_576>:
80003078:	aaaab537          	lui	a0,0xaaaab
8000307c:	aab50513          	addi	a0,a0,-1365 # aaaaaaab <imm12+0xaaaab2ab>
80003080:	00000593          	li	a1,0
80003084:	02b56633          	rem	a2,a0,a1
80003088:	0ac0a823          	sw	a2,176(ra)

8000308c <inst_577>:
8000308c:	aaaab537          	lui	a0,0xaaaab
80003090:	aab50513          	addi	a0,a0,-1365 # aaaaaaab <imm12+0xaaaab2ab>
80003094:	00400593          	li	a1,4
80003098:	02b56633          	rem	a2,a0,a1
8000309c:	0ac0aa23          	sw	a2,180(ra)

800030a0 <inst_578>:
800030a0:	aaaab537          	lui	a0,0xaaaab
800030a4:	aab50513          	addi	a0,a0,-1365 # aaaaaaab <imm12+0xaaaab2ab>
800030a8:	333335b7          	lui	a1,0x33333
800030ac:	33258593          	addi	a1,a1,818 # 33333332 <absimm+0x33332b32>
800030b0:	02b56633          	rem	a2,a0,a1
800030b4:	0ac0ac23          	sw	a2,184(ra)

800030b8 <inst_579>:
800030b8:	aaaab537          	lui	a0,0xaaaab
800030bc:	aab50513          	addi	a0,a0,-1365 # aaaaaaab <imm12+0xaaaab2ab>
800030c0:	666665b7          	lui	a1,0x66666
800030c4:	66558593          	addi	a1,a1,1637 # 66666665 <absimm+0x66665e65>
800030c8:	02b56633          	rem	a2,a0,a1
800030cc:	0ac0ae23          	sw	a2,188(ra)

800030d0 <inst_580>:
800030d0:	aaaab537          	lui	a0,0xaaaab
800030d4:	aab50513          	addi	a0,a0,-1365 # aaaaaaab <imm12+0xaaaab2ab>
800030d8:	0000b5b7          	lui	a1,0xb
800030dc:	50358593          	addi	a1,a1,1283 # b503 <absimm+0xad03>
800030e0:	02b56633          	rem	a2,a0,a1
800030e4:	0cc0a023          	sw	a2,192(ra)

800030e8 <inst_581>:
800030e8:	aaaab537          	lui	a0,0xaaaab
800030ec:	aab50513          	addi	a0,a0,-1365 # aaaaaaab <imm12+0xaaaab2ab>
800030f0:	555555b7          	lui	a1,0x55555
800030f4:	55658593          	addi	a1,a1,1366 # 55555556 <absimm+0x55554d56>
800030f8:	02b56633          	rem	a2,a0,a1
800030fc:	0cc0a223          	sw	a2,196(ra)

80003100 <inst_582>:
80003100:	04000513          	li	a0,64
80003104:	ffc005b7          	lui	a1,0xffc00
80003108:	fff58593          	addi	a1,a1,-1 # ffbfffff <imm12+0xffc007ff>
8000310c:	02b56633          	rem	a2,a0,a1
80003110:	0cc0a423          	sw	a2,200(ra)

80003114 <inst_583>:
80003114:	fbf00513          	li	a0,-65
80003118:	ff800593          	li	a1,-8
8000311c:	02b56633          	rem	a2,a0,a1
80003120:	0cc0a623          	sw	a2,204(ra)

80003124 <inst_584>:
80003124:	ffff5537          	lui	a0,0xffff5
80003128:	afd50513          	addi	a0,a0,-1283 # ffff4afd <imm12+0xffff52fd>
8000312c:	800005b7          	lui	a1,0x80000
80003130:	fff58593          	addi	a1,a1,-1 # 7fffffff <imm12+0x800007ff>
80003134:	02b56633          	rem	a2,a0,a1
80003138:	0cc0a823          	sw	a2,208(ra)

8000313c <inst_585>:
8000313c:	0000b537          	lui	a0,0xb
80003140:	50550513          	addi	a0,a0,1285 # b505 <absimm+0xad05>
80003144:	00800593          	li	a1,8
80003148:	02b56633          	rem	a2,a0,a1
8000314c:	0cc0aa23          	sw	a2,212(ra)

80003150 <inst_586>:
80003150:	ffffc537          	lui	a0,0xffffc
80003154:	fff50513          	addi	a0,a0,-1 # ffffbfff <imm12+0xffffc7ff>
80003158:	000015b7          	lui	a1,0x1
8000315c:	80058593          	addi	a1,a1,-2048 # 800 <absimm>
80003160:	02b56633          	rem	a2,a0,a1
80003164:	0cc0ac23          	sw	a2,216(ra)

80003168 <cleanup_epilogs>:
80003168:	0040006f          	j	8000316c <exit_cleanup>

8000316c <exit_cleanup>:
8000316c:	00100093          	li	ra,1

80003170 <write_tohost>:
80003170:	00001f17          	auipc	t5,0x1
80003174:	e81f2823          	sw	ra,-368(t5) # 80004000 <tohost>
80003178:	ff9ff06f          	j	80003170 <write_tohost>
	...

Disassembly of section .tohost:

80004000 <tohost>:
	...

80004100 <fromhost>:
	...

Disassembly of section .data:

80005000 <rvtest_trap_sig>:
80005000:	5020                	lw	s0,96(s0)
80005002:	8000                	0x8000
	...

80005010 <rvtest_data_begin>:
80005010:	cafe                	sw	t6,84(sp)
80005012:	babe                	fsd	fa5,368(sp)
80005014:	cafe                	sw	t6,84(sp)
80005016:	babe                	fsd	fa5,368(sp)
80005018:	cafe                	sw	t6,84(sp)
8000501a:	babe                	fsd	fa5,368(sp)
8000501c:	cafe                	sw	t6,84(sp)
8000501e:	babe                	fsd	fa5,368(sp)

80005020 <mtrap_sigptr>:
80005020:	deadbeef          	jal	t4,7ffe060a <absimm+0x7ffdfe0a>
80005024:	deadbeef          	jal	t4,7ffe060e <absimm+0x7ffdfe0e>

80005028 <rvtest_data_end>:
	...

80006000 <begin_regstate>:
80006000:	0080                	addi	s0,sp,64
	...

80006100 <end_regstate>:
80006100:	0004                	0x4
	...

80006110 <begin_signature>:
80006110:	a309                	j	80006612 <signature_x1_0+0x4ae>
80006112:	6f5c                	flw	fa5,28(a4)

80006114 <signature_x26_0>:
80006114:	deadbeef          	jal	t4,7ffe16fe <absimm+0x7ffe0efe>
80006118:	deadbeef          	jal	t4,7ffe1702 <absimm+0x7ffe0f02>
8000611c:	deadbeef          	jal	t4,7ffe1706 <absimm+0x7ffe0f06>
80006120:	deadbeef          	jal	t4,7ffe170a <absimm+0x7ffe0f0a>
80006124:	deadbeef          	jal	t4,7ffe170e <absimm+0x7ffe0f0e>
80006128:	deadbeef          	jal	t4,7ffe1712 <absimm+0x7ffe0f12>
8000612c:	deadbeef          	jal	t4,7ffe1716 <absimm+0x7ffe0f16>
80006130:	deadbeef          	jal	t4,7ffe171a <absimm+0x7ffe0f1a>
80006134:	deadbeef          	jal	t4,7ffe171e <absimm+0x7ffe0f1e>
80006138:	deadbeef          	jal	t4,7ffe1722 <absimm+0x7ffe0f22>
8000613c:	deadbeef          	jal	t4,7ffe1726 <absimm+0x7ffe0f26>
80006140:	deadbeef          	jal	t4,7ffe172a <absimm+0x7ffe0f2a>
80006144:	deadbeef          	jal	t4,7ffe172e <absimm+0x7ffe0f2e>
80006148:	deadbeef          	jal	t4,7ffe1732 <absimm+0x7ffe0f32>
8000614c:	deadbeef          	jal	t4,7ffe1736 <absimm+0x7ffe0f36>
80006150:	deadbeef          	jal	t4,7ffe173a <absimm+0x7ffe0f3a>
80006154:	deadbeef          	jal	t4,7ffe173e <absimm+0x7ffe0f3e>
80006158:	deadbeef          	jal	t4,7ffe1742 <absimm+0x7ffe0f42>
8000615c:	deadbeef          	jal	t4,7ffe1746 <absimm+0x7ffe0f46>
80006160:	deadbeef          	jal	t4,7ffe174a <absimm+0x7ffe0f4a>

80006164 <signature_x1_0>:
80006164:	deadbeef          	jal	t4,7ffe174e <absimm+0x7ffe0f4e>
80006168:	deadbeef          	jal	t4,7ffe1752 <absimm+0x7ffe0f52>
8000616c:	deadbeef          	jal	t4,7ffe1756 <absimm+0x7ffe0f56>
80006170:	deadbeef          	jal	t4,7ffe175a <absimm+0x7ffe0f5a>
80006174:	deadbeef          	jal	t4,7ffe175e <absimm+0x7ffe0f5e>
80006178:	deadbeef          	jal	t4,7ffe1762 <absimm+0x7ffe0f62>
8000617c:	deadbeef          	jal	t4,7ffe1766 <absimm+0x7ffe0f66>
80006180:	deadbeef          	jal	t4,7ffe176a <absimm+0x7ffe0f6a>
80006184:	deadbeef          	jal	t4,7ffe176e <absimm+0x7ffe0f6e>
80006188:	deadbeef          	jal	t4,7ffe1772 <absimm+0x7ffe0f72>
8000618c:	deadbeef          	jal	t4,7ffe1776 <absimm+0x7ffe0f76>
80006190:	deadbeef          	jal	t4,7ffe177a <absimm+0x7ffe0f7a>
80006194:	deadbeef          	jal	t4,7ffe177e <absimm+0x7ffe0f7e>
80006198:	deadbeef          	jal	t4,7ffe1782 <absimm+0x7ffe0f82>
8000619c:	deadbeef          	jal	t4,7ffe1786 <absimm+0x7ffe0f86>
800061a0:	deadbeef          	jal	t4,7ffe178a <absimm+0x7ffe0f8a>
800061a4:	deadbeef          	jal	t4,7ffe178e <absimm+0x7ffe0f8e>
800061a8:	deadbeef          	jal	t4,7ffe1792 <absimm+0x7ffe0f92>
800061ac:	deadbeef          	jal	t4,7ffe1796 <absimm+0x7ffe0f96>
800061b0:	deadbeef          	jal	t4,7ffe179a <absimm+0x7ffe0f9a>
800061b4:	deadbeef          	jal	t4,7ffe179e <absimm+0x7ffe0f9e>
800061b8:	deadbeef          	jal	t4,7ffe17a2 <absimm+0x7ffe0fa2>
800061bc:	deadbeef          	jal	t4,7ffe17a6 <absimm+0x7ffe0fa6>
800061c0:	deadbeef          	jal	t4,7ffe17aa <absimm+0x7ffe0faa>
800061c4:	deadbeef          	jal	t4,7ffe17ae <absimm+0x7ffe0fae>
800061c8:	deadbeef          	jal	t4,7ffe17b2 <absimm+0x7ffe0fb2>
800061cc:	deadbeef          	jal	t4,7ffe17b6 <absimm+0x7ffe0fb6>
800061d0:	deadbeef          	jal	t4,7ffe17ba <absimm+0x7ffe0fba>
800061d4:	deadbeef          	jal	t4,7ffe17be <absimm+0x7ffe0fbe>
800061d8:	deadbeef          	jal	t4,7ffe17c2 <absimm+0x7ffe0fc2>
800061dc:	deadbeef          	jal	t4,7ffe17c6 <absimm+0x7ffe0fc6>
800061e0:	deadbeef          	jal	t4,7ffe17ca <absimm+0x7ffe0fca>
800061e4:	deadbeef          	jal	t4,7ffe17ce <absimm+0x7ffe0fce>
800061e8:	deadbeef          	jal	t4,7ffe17d2 <absimm+0x7ffe0fd2>
800061ec:	deadbeef          	jal	t4,7ffe17d6 <absimm+0x7ffe0fd6>
800061f0:	deadbeef          	jal	t4,7ffe17da <absimm+0x7ffe0fda>
800061f4:	deadbeef          	jal	t4,7ffe17de <absimm+0x7ffe0fde>
800061f8:	deadbeef          	jal	t4,7ffe17e2 <absimm+0x7ffe0fe2>
800061fc:	deadbeef          	jal	t4,7ffe17e6 <absimm+0x7ffe0fe6>
80006200:	deadbeef          	jal	t4,7ffe17ea <absimm+0x7ffe0fea>
80006204:	deadbeef          	jal	t4,7ffe17ee <absimm+0x7ffe0fee>
80006208:	deadbeef          	jal	t4,7ffe17f2 <absimm+0x7ffe0ff2>
8000620c:	deadbeef          	jal	t4,7ffe17f6 <absimm+0x7ffe0ff6>
80006210:	deadbeef          	jal	t4,7ffe17fa <absimm+0x7ffe0ffa>
80006214:	deadbeef          	jal	t4,7ffe17fe <absimm+0x7ffe0ffe>
80006218:	deadbeef          	jal	t4,7ffe1802 <absimm+0x7ffe1002>
8000621c:	deadbeef          	jal	t4,7ffe1806 <absimm+0x7ffe1006>
80006220:	deadbeef          	jal	t4,7ffe180a <absimm+0x7ffe100a>
80006224:	deadbeef          	jal	t4,7ffe180e <absimm+0x7ffe100e>
80006228:	deadbeef          	jal	t4,7ffe1812 <absimm+0x7ffe1012>
8000622c:	deadbeef          	jal	t4,7ffe1816 <absimm+0x7ffe1016>
80006230:	deadbeef          	jal	t4,7ffe181a <absimm+0x7ffe101a>
80006234:	deadbeef          	jal	t4,7ffe181e <absimm+0x7ffe101e>
80006238:	deadbeef          	jal	t4,7ffe1822 <absimm+0x7ffe1022>
8000623c:	deadbeef          	jal	t4,7ffe1826 <absimm+0x7ffe1026>
80006240:	deadbeef          	jal	t4,7ffe182a <absimm+0x7ffe102a>
80006244:	deadbeef          	jal	t4,7ffe182e <absimm+0x7ffe102e>
80006248:	deadbeef          	jal	t4,7ffe1832 <absimm+0x7ffe1032>
8000624c:	deadbeef          	jal	t4,7ffe1836 <absimm+0x7ffe1036>
80006250:	deadbeef          	jal	t4,7ffe183a <absimm+0x7ffe103a>
80006254:	deadbeef          	jal	t4,7ffe183e <absimm+0x7ffe103e>
80006258:	deadbeef          	jal	t4,7ffe1842 <absimm+0x7ffe1042>
8000625c:	deadbeef          	jal	t4,7ffe1846 <absimm+0x7ffe1046>
80006260:	deadbeef          	jal	t4,7ffe184a <absimm+0x7ffe104a>
80006264:	deadbeef          	jal	t4,7ffe184e <absimm+0x7ffe104e>
80006268:	deadbeef          	jal	t4,7ffe1852 <absimm+0x7ffe1052>
8000626c:	deadbeef          	jal	t4,7ffe1856 <absimm+0x7ffe1056>
80006270:	deadbeef          	jal	t4,7ffe185a <absimm+0x7ffe105a>
80006274:	deadbeef          	jal	t4,7ffe185e <absimm+0x7ffe105e>
80006278:	deadbeef          	jal	t4,7ffe1862 <absimm+0x7ffe1062>
8000627c:	deadbeef          	jal	t4,7ffe1866 <absimm+0x7ffe1066>
80006280:	deadbeef          	jal	t4,7ffe186a <absimm+0x7ffe106a>
80006284:	deadbeef          	jal	t4,7ffe186e <absimm+0x7ffe106e>
80006288:	deadbeef          	jal	t4,7ffe1872 <absimm+0x7ffe1072>
8000628c:	deadbeef          	jal	t4,7ffe1876 <absimm+0x7ffe1076>
80006290:	deadbeef          	jal	t4,7ffe187a <absimm+0x7ffe107a>
80006294:	deadbeef          	jal	t4,7ffe187e <absimm+0x7ffe107e>
80006298:	deadbeef          	jal	t4,7ffe1882 <absimm+0x7ffe1082>
8000629c:	deadbeef          	jal	t4,7ffe1886 <absimm+0x7ffe1086>
800062a0:	deadbeef          	jal	t4,7ffe188a <absimm+0x7ffe108a>
800062a4:	deadbeef          	jal	t4,7ffe188e <absimm+0x7ffe108e>
800062a8:	deadbeef          	jal	t4,7ffe1892 <absimm+0x7ffe1092>
800062ac:	deadbeef          	jal	t4,7ffe1896 <absimm+0x7ffe1096>
800062b0:	deadbeef          	jal	t4,7ffe189a <absimm+0x7ffe109a>
800062b4:	deadbeef          	jal	t4,7ffe189e <absimm+0x7ffe109e>
800062b8:	deadbeef          	jal	t4,7ffe18a2 <absimm+0x7ffe10a2>
800062bc:	deadbeef          	jal	t4,7ffe18a6 <absimm+0x7ffe10a6>
800062c0:	deadbeef          	jal	t4,7ffe18aa <absimm+0x7ffe10aa>
800062c4:	deadbeef          	jal	t4,7ffe18ae <absimm+0x7ffe10ae>
800062c8:	deadbeef          	jal	t4,7ffe18b2 <absimm+0x7ffe10b2>
800062cc:	deadbeef          	jal	t4,7ffe18b6 <absimm+0x7ffe10b6>
800062d0:	deadbeef          	jal	t4,7ffe18ba <absimm+0x7ffe10ba>
800062d4:	deadbeef          	jal	t4,7ffe18be <absimm+0x7ffe10be>
800062d8:	deadbeef          	jal	t4,7ffe18c2 <absimm+0x7ffe10c2>
800062dc:	deadbeef          	jal	t4,7ffe18c6 <absimm+0x7ffe10c6>
800062e0:	deadbeef          	jal	t4,7ffe18ca <absimm+0x7ffe10ca>
800062e4:	deadbeef          	jal	t4,7ffe18ce <absimm+0x7ffe10ce>
800062e8:	deadbeef          	jal	t4,7ffe18d2 <absimm+0x7ffe10d2>
800062ec:	deadbeef          	jal	t4,7ffe18d6 <absimm+0x7ffe10d6>
800062f0:	deadbeef          	jal	t4,7ffe18da <absimm+0x7ffe10da>
800062f4:	deadbeef          	jal	t4,7ffe18de <absimm+0x7ffe10de>
800062f8:	deadbeef          	jal	t4,7ffe18e2 <absimm+0x7ffe10e2>
800062fc:	deadbeef          	jal	t4,7ffe18e6 <absimm+0x7ffe10e6>
80006300:	deadbeef          	jal	t4,7ffe18ea <absimm+0x7ffe10ea>
80006304:	deadbeef          	jal	t4,7ffe18ee <absimm+0x7ffe10ee>
80006308:	deadbeef          	jal	t4,7ffe18f2 <absimm+0x7ffe10f2>
8000630c:	deadbeef          	jal	t4,7ffe18f6 <absimm+0x7ffe10f6>
80006310:	deadbeef          	jal	t4,7ffe18fa <absimm+0x7ffe10fa>
80006314:	deadbeef          	jal	t4,7ffe18fe <absimm+0x7ffe10fe>
80006318:	deadbeef          	jal	t4,7ffe1902 <absimm+0x7ffe1102>
8000631c:	deadbeef          	jal	t4,7ffe1906 <absimm+0x7ffe1106>
80006320:	deadbeef          	jal	t4,7ffe190a <absimm+0x7ffe110a>
80006324:	deadbeef          	jal	t4,7ffe190e <absimm+0x7ffe110e>
80006328:	deadbeef          	jal	t4,7ffe1912 <absimm+0x7ffe1112>
8000632c:	deadbeef          	jal	t4,7ffe1916 <absimm+0x7ffe1116>
80006330:	deadbeef          	jal	t4,7ffe191a <absimm+0x7ffe111a>
80006334:	deadbeef          	jal	t4,7ffe191e <absimm+0x7ffe111e>
80006338:	deadbeef          	jal	t4,7ffe1922 <absimm+0x7ffe1122>
8000633c:	deadbeef          	jal	t4,7ffe1926 <absimm+0x7ffe1126>
80006340:	deadbeef          	jal	t4,7ffe192a <absimm+0x7ffe112a>
80006344:	deadbeef          	jal	t4,7ffe192e <absimm+0x7ffe112e>
80006348:	deadbeef          	jal	t4,7ffe1932 <absimm+0x7ffe1132>
8000634c:	deadbeef          	jal	t4,7ffe1936 <absimm+0x7ffe1136>
80006350:	deadbeef          	jal	t4,7ffe193a <absimm+0x7ffe113a>
80006354:	deadbeef          	jal	t4,7ffe193e <absimm+0x7ffe113e>
80006358:	deadbeef          	jal	t4,7ffe1942 <absimm+0x7ffe1142>
8000635c:	deadbeef          	jal	t4,7ffe1946 <absimm+0x7ffe1146>
80006360:	deadbeef          	jal	t4,7ffe194a <absimm+0x7ffe114a>
80006364:	deadbeef          	jal	t4,7ffe194e <absimm+0x7ffe114e>
80006368:	deadbeef          	jal	t4,7ffe1952 <absimm+0x7ffe1152>
8000636c:	deadbeef          	jal	t4,7ffe1956 <absimm+0x7ffe1156>
80006370:	deadbeef          	jal	t4,7ffe195a <absimm+0x7ffe115a>
80006374:	deadbeef          	jal	t4,7ffe195e <absimm+0x7ffe115e>
80006378:	deadbeef          	jal	t4,7ffe1962 <absimm+0x7ffe1162>
8000637c:	deadbeef          	jal	t4,7ffe1966 <absimm+0x7ffe1166>
80006380:	deadbeef          	jal	t4,7ffe196a <absimm+0x7ffe116a>
80006384:	deadbeef          	jal	t4,7ffe196e <absimm+0x7ffe116e>
80006388:	deadbeef          	jal	t4,7ffe1972 <absimm+0x7ffe1172>
8000638c:	deadbeef          	jal	t4,7ffe1976 <absimm+0x7ffe1176>
80006390:	deadbeef          	jal	t4,7ffe197a <absimm+0x7ffe117a>
80006394:	deadbeef          	jal	t4,7ffe197e <absimm+0x7ffe117e>
80006398:	deadbeef          	jal	t4,7ffe1982 <absimm+0x7ffe1182>
8000639c:	deadbeef          	jal	t4,7ffe1986 <absimm+0x7ffe1186>
800063a0:	deadbeef          	jal	t4,7ffe198a <absimm+0x7ffe118a>
800063a4:	deadbeef          	jal	t4,7ffe198e <absimm+0x7ffe118e>
800063a8:	deadbeef          	jal	t4,7ffe1992 <absimm+0x7ffe1192>
800063ac:	deadbeef          	jal	t4,7ffe1996 <absimm+0x7ffe1196>
800063b0:	deadbeef          	jal	t4,7ffe199a <absimm+0x7ffe119a>
800063b4:	deadbeef          	jal	t4,7ffe199e <absimm+0x7ffe119e>
800063b8:	deadbeef          	jal	t4,7ffe19a2 <absimm+0x7ffe11a2>
800063bc:	deadbeef          	jal	t4,7ffe19a6 <absimm+0x7ffe11a6>
800063c0:	deadbeef          	jal	t4,7ffe19aa <absimm+0x7ffe11aa>
800063c4:	deadbeef          	jal	t4,7ffe19ae <absimm+0x7ffe11ae>
800063c8:	deadbeef          	jal	t4,7ffe19b2 <absimm+0x7ffe11b2>
800063cc:	deadbeef          	jal	t4,7ffe19b6 <absimm+0x7ffe11b6>
800063d0:	deadbeef          	jal	t4,7ffe19ba <absimm+0x7ffe11ba>
800063d4:	deadbeef          	jal	t4,7ffe19be <absimm+0x7ffe11be>
800063d8:	deadbeef          	jal	t4,7ffe19c2 <absimm+0x7ffe11c2>
800063dc:	deadbeef          	jal	t4,7ffe19c6 <absimm+0x7ffe11c6>
800063e0:	deadbeef          	jal	t4,7ffe19ca <absimm+0x7ffe11ca>
800063e4:	deadbeef          	jal	t4,7ffe19ce <absimm+0x7ffe11ce>
800063e8:	deadbeef          	jal	t4,7ffe19d2 <absimm+0x7ffe11d2>
800063ec:	deadbeef          	jal	t4,7ffe19d6 <absimm+0x7ffe11d6>
800063f0:	deadbeef          	jal	t4,7ffe19da <absimm+0x7ffe11da>
800063f4:	deadbeef          	jal	t4,7ffe19de <absimm+0x7ffe11de>
800063f8:	deadbeef          	jal	t4,7ffe19e2 <absimm+0x7ffe11e2>
800063fc:	deadbeef          	jal	t4,7ffe19e6 <absimm+0x7ffe11e6>
80006400:	deadbeef          	jal	t4,7ffe19ea <absimm+0x7ffe11ea>
80006404:	deadbeef          	jal	t4,7ffe19ee <absimm+0x7ffe11ee>
80006408:	deadbeef          	jal	t4,7ffe19f2 <absimm+0x7ffe11f2>
8000640c:	deadbeef          	jal	t4,7ffe19f6 <absimm+0x7ffe11f6>
80006410:	deadbeef          	jal	t4,7ffe19fa <absimm+0x7ffe11fa>
80006414:	deadbeef          	jal	t4,7ffe19fe <absimm+0x7ffe11fe>
80006418:	deadbeef          	jal	t4,7ffe1a02 <absimm+0x7ffe1202>
8000641c:	deadbeef          	jal	t4,7ffe1a06 <absimm+0x7ffe1206>
80006420:	deadbeef          	jal	t4,7ffe1a0a <absimm+0x7ffe120a>
80006424:	deadbeef          	jal	t4,7ffe1a0e <absimm+0x7ffe120e>
80006428:	deadbeef          	jal	t4,7ffe1a12 <absimm+0x7ffe1212>
8000642c:	deadbeef          	jal	t4,7ffe1a16 <absimm+0x7ffe1216>
80006430:	deadbeef          	jal	t4,7ffe1a1a <absimm+0x7ffe121a>
80006434:	deadbeef          	jal	t4,7ffe1a1e <absimm+0x7ffe121e>
80006438:	deadbeef          	jal	t4,7ffe1a22 <absimm+0x7ffe1222>
8000643c:	deadbeef          	jal	t4,7ffe1a26 <absimm+0x7ffe1226>
80006440:	deadbeef          	jal	t4,7ffe1a2a <absimm+0x7ffe122a>
80006444:	deadbeef          	jal	t4,7ffe1a2e <absimm+0x7ffe122e>
80006448:	deadbeef          	jal	t4,7ffe1a32 <absimm+0x7ffe1232>
8000644c:	deadbeef          	jal	t4,7ffe1a36 <absimm+0x7ffe1236>
80006450:	deadbeef          	jal	t4,7ffe1a3a <absimm+0x7ffe123a>
80006454:	deadbeef          	jal	t4,7ffe1a3e <absimm+0x7ffe123e>
80006458:	deadbeef          	jal	t4,7ffe1a42 <absimm+0x7ffe1242>
8000645c:	deadbeef          	jal	t4,7ffe1a46 <absimm+0x7ffe1246>
80006460:	deadbeef          	jal	t4,7ffe1a4a <absimm+0x7ffe124a>
80006464:	deadbeef          	jal	t4,7ffe1a4e <absimm+0x7ffe124e>
80006468:	deadbeef          	jal	t4,7ffe1a52 <absimm+0x7ffe1252>
8000646c:	deadbeef          	jal	t4,7ffe1a56 <absimm+0x7ffe1256>
80006470:	deadbeef          	jal	t4,7ffe1a5a <absimm+0x7ffe125a>
80006474:	deadbeef          	jal	t4,7ffe1a5e <absimm+0x7ffe125e>
80006478:	deadbeef          	jal	t4,7ffe1a62 <absimm+0x7ffe1262>
8000647c:	deadbeef          	jal	t4,7ffe1a66 <absimm+0x7ffe1266>
80006480:	deadbeef          	jal	t4,7ffe1a6a <absimm+0x7ffe126a>
80006484:	deadbeef          	jal	t4,7ffe1a6e <absimm+0x7ffe126e>
80006488:	deadbeef          	jal	t4,7ffe1a72 <absimm+0x7ffe1272>
8000648c:	deadbeef          	jal	t4,7ffe1a76 <absimm+0x7ffe1276>
80006490:	deadbeef          	jal	t4,7ffe1a7a <absimm+0x7ffe127a>
80006494:	deadbeef          	jal	t4,7ffe1a7e <absimm+0x7ffe127e>
80006498:	deadbeef          	jal	t4,7ffe1a82 <absimm+0x7ffe1282>
8000649c:	deadbeef          	jal	t4,7ffe1a86 <absimm+0x7ffe1286>
800064a0:	deadbeef          	jal	t4,7ffe1a8a <absimm+0x7ffe128a>
800064a4:	deadbeef          	jal	t4,7ffe1a8e <absimm+0x7ffe128e>
800064a8:	deadbeef          	jal	t4,7ffe1a92 <absimm+0x7ffe1292>
800064ac:	deadbeef          	jal	t4,7ffe1a96 <absimm+0x7ffe1296>
800064b0:	deadbeef          	jal	t4,7ffe1a9a <absimm+0x7ffe129a>
800064b4:	deadbeef          	jal	t4,7ffe1a9e <absimm+0x7ffe129e>
800064b8:	deadbeef          	jal	t4,7ffe1aa2 <absimm+0x7ffe12a2>
800064bc:	deadbeef          	jal	t4,7ffe1aa6 <absimm+0x7ffe12a6>
800064c0:	deadbeef          	jal	t4,7ffe1aaa <absimm+0x7ffe12aa>
800064c4:	deadbeef          	jal	t4,7ffe1aae <absimm+0x7ffe12ae>
800064c8:	deadbeef          	jal	t4,7ffe1ab2 <absimm+0x7ffe12b2>
800064cc:	deadbeef          	jal	t4,7ffe1ab6 <absimm+0x7ffe12b6>
800064d0:	deadbeef          	jal	t4,7ffe1aba <absimm+0x7ffe12ba>
800064d4:	deadbeef          	jal	t4,7ffe1abe <absimm+0x7ffe12be>
800064d8:	deadbeef          	jal	t4,7ffe1ac2 <absimm+0x7ffe12c2>
800064dc:	deadbeef          	jal	t4,7ffe1ac6 <absimm+0x7ffe12c6>
800064e0:	deadbeef          	jal	t4,7ffe1aca <absimm+0x7ffe12ca>
800064e4:	deadbeef          	jal	t4,7ffe1ace <absimm+0x7ffe12ce>
800064e8:	deadbeef          	jal	t4,7ffe1ad2 <absimm+0x7ffe12d2>
800064ec:	deadbeef          	jal	t4,7ffe1ad6 <absimm+0x7ffe12d6>
800064f0:	deadbeef          	jal	t4,7ffe1ada <absimm+0x7ffe12da>
800064f4:	deadbeef          	jal	t4,7ffe1ade <absimm+0x7ffe12de>
800064f8:	deadbeef          	jal	t4,7ffe1ae2 <absimm+0x7ffe12e2>
800064fc:	deadbeef          	jal	t4,7ffe1ae6 <absimm+0x7ffe12e6>
80006500:	deadbeef          	jal	t4,7ffe1aea <absimm+0x7ffe12ea>
80006504:	deadbeef          	jal	t4,7ffe1aee <absimm+0x7ffe12ee>
80006508:	deadbeef          	jal	t4,7ffe1af2 <absimm+0x7ffe12f2>
8000650c:	deadbeef          	jal	t4,7ffe1af6 <absimm+0x7ffe12f6>
80006510:	deadbeef          	jal	t4,7ffe1afa <absimm+0x7ffe12fa>
80006514:	deadbeef          	jal	t4,7ffe1afe <absimm+0x7ffe12fe>
80006518:	deadbeef          	jal	t4,7ffe1b02 <absimm+0x7ffe1302>
8000651c:	deadbeef          	jal	t4,7ffe1b06 <absimm+0x7ffe1306>
80006520:	deadbeef          	jal	t4,7ffe1b0a <absimm+0x7ffe130a>
80006524:	deadbeef          	jal	t4,7ffe1b0e <absimm+0x7ffe130e>
80006528:	deadbeef          	jal	t4,7ffe1b12 <absimm+0x7ffe1312>
8000652c:	deadbeef          	jal	t4,7ffe1b16 <absimm+0x7ffe1316>
80006530:	deadbeef          	jal	t4,7ffe1b1a <absimm+0x7ffe131a>
80006534:	deadbeef          	jal	t4,7ffe1b1e <absimm+0x7ffe131e>
80006538:	deadbeef          	jal	t4,7ffe1b22 <absimm+0x7ffe1322>
8000653c:	deadbeef          	jal	t4,7ffe1b26 <absimm+0x7ffe1326>
80006540:	deadbeef          	jal	t4,7ffe1b2a <absimm+0x7ffe132a>
80006544:	deadbeef          	jal	t4,7ffe1b2e <absimm+0x7ffe132e>
80006548:	deadbeef          	jal	t4,7ffe1b32 <absimm+0x7ffe1332>
8000654c:	deadbeef          	jal	t4,7ffe1b36 <absimm+0x7ffe1336>
80006550:	deadbeef          	jal	t4,7ffe1b3a <absimm+0x7ffe133a>
80006554:	deadbeef          	jal	t4,7ffe1b3e <absimm+0x7ffe133e>
80006558:	deadbeef          	jal	t4,7ffe1b42 <absimm+0x7ffe1342>
8000655c:	deadbeef          	jal	t4,7ffe1b46 <absimm+0x7ffe1346>
80006560:	deadbeef          	jal	t4,7ffe1b4a <absimm+0x7ffe134a>
80006564:	deadbeef          	jal	t4,7ffe1b4e <absimm+0x7ffe134e>
80006568:	deadbeef          	jal	t4,7ffe1b52 <absimm+0x7ffe1352>
8000656c:	deadbeef          	jal	t4,7ffe1b56 <absimm+0x7ffe1356>
80006570:	deadbeef          	jal	t4,7ffe1b5a <absimm+0x7ffe135a>
80006574:	deadbeef          	jal	t4,7ffe1b5e <absimm+0x7ffe135e>
80006578:	deadbeef          	jal	t4,7ffe1b62 <absimm+0x7ffe1362>
8000657c:	deadbeef          	jal	t4,7ffe1b66 <absimm+0x7ffe1366>
80006580:	deadbeef          	jal	t4,7ffe1b6a <absimm+0x7ffe136a>
80006584:	deadbeef          	jal	t4,7ffe1b6e <absimm+0x7ffe136e>
80006588:	deadbeef          	jal	t4,7ffe1b72 <absimm+0x7ffe1372>
8000658c:	deadbeef          	jal	t4,7ffe1b76 <absimm+0x7ffe1376>
80006590:	deadbeef          	jal	t4,7ffe1b7a <absimm+0x7ffe137a>
80006594:	deadbeef          	jal	t4,7ffe1b7e <absimm+0x7ffe137e>
80006598:	deadbeef          	jal	t4,7ffe1b82 <absimm+0x7ffe1382>
8000659c:	deadbeef          	jal	t4,7ffe1b86 <absimm+0x7ffe1386>
800065a0:	deadbeef          	jal	t4,7ffe1b8a <absimm+0x7ffe138a>
800065a4:	deadbeef          	jal	t4,7ffe1b8e <absimm+0x7ffe138e>
800065a8:	deadbeef          	jal	t4,7ffe1b92 <absimm+0x7ffe1392>
800065ac:	deadbeef          	jal	t4,7ffe1b96 <absimm+0x7ffe1396>
800065b0:	deadbeef          	jal	t4,7ffe1b9a <absimm+0x7ffe139a>
800065b4:	deadbeef          	jal	t4,7ffe1b9e <absimm+0x7ffe139e>
800065b8:	deadbeef          	jal	t4,7ffe1ba2 <absimm+0x7ffe13a2>
800065bc:	deadbeef          	jal	t4,7ffe1ba6 <absimm+0x7ffe13a6>
800065c0:	deadbeef          	jal	t4,7ffe1baa <absimm+0x7ffe13aa>
800065c4:	deadbeef          	jal	t4,7ffe1bae <absimm+0x7ffe13ae>
800065c8:	deadbeef          	jal	t4,7ffe1bb2 <absimm+0x7ffe13b2>
800065cc:	deadbeef          	jal	t4,7ffe1bb6 <absimm+0x7ffe13b6>
800065d0:	deadbeef          	jal	t4,7ffe1bba <absimm+0x7ffe13ba>
800065d4:	deadbeef          	jal	t4,7ffe1bbe <absimm+0x7ffe13be>
800065d8:	deadbeef          	jal	t4,7ffe1bc2 <absimm+0x7ffe13c2>
800065dc:	deadbeef          	jal	t4,7ffe1bc6 <absimm+0x7ffe13c6>
800065e0:	deadbeef          	jal	t4,7ffe1bca <absimm+0x7ffe13ca>
800065e4:	deadbeef          	jal	t4,7ffe1bce <absimm+0x7ffe13ce>
800065e8:	deadbeef          	jal	t4,7ffe1bd2 <absimm+0x7ffe13d2>
800065ec:	deadbeef          	jal	t4,7ffe1bd6 <absimm+0x7ffe13d6>
800065f0:	deadbeef          	jal	t4,7ffe1bda <absimm+0x7ffe13da>
800065f4:	deadbeef          	jal	t4,7ffe1bde <absimm+0x7ffe13de>
800065f8:	deadbeef          	jal	t4,7ffe1be2 <absimm+0x7ffe13e2>
800065fc:	deadbeef          	jal	t4,7ffe1be6 <absimm+0x7ffe13e6>
80006600:	deadbeef          	jal	t4,7ffe1bea <absimm+0x7ffe13ea>
80006604:	deadbeef          	jal	t4,7ffe1bee <absimm+0x7ffe13ee>
80006608:	deadbeef          	jal	t4,7ffe1bf2 <absimm+0x7ffe13f2>
8000660c:	deadbeef          	jal	t4,7ffe1bf6 <absimm+0x7ffe13f6>
80006610:	deadbeef          	jal	t4,7ffe1bfa <absimm+0x7ffe13fa>
80006614:	deadbeef          	jal	t4,7ffe1bfe <absimm+0x7ffe13fe>
80006618:	deadbeef          	jal	t4,7ffe1c02 <absimm+0x7ffe1402>
8000661c:	deadbeef          	jal	t4,7ffe1c06 <absimm+0x7ffe1406>
80006620:	deadbeef          	jal	t4,7ffe1c0a <absimm+0x7ffe140a>
80006624:	deadbeef          	jal	t4,7ffe1c0e <absimm+0x7ffe140e>
80006628:	deadbeef          	jal	t4,7ffe1c12 <absimm+0x7ffe1412>
8000662c:	deadbeef          	jal	t4,7ffe1c16 <absimm+0x7ffe1416>
80006630:	deadbeef          	jal	t4,7ffe1c1a <absimm+0x7ffe141a>
80006634:	deadbeef          	jal	t4,7ffe1c1e <absimm+0x7ffe141e>
80006638:	deadbeef          	jal	t4,7ffe1c22 <absimm+0x7ffe1422>
8000663c:	deadbeef          	jal	t4,7ffe1c26 <absimm+0x7ffe1426>
80006640:	deadbeef          	jal	t4,7ffe1c2a <absimm+0x7ffe142a>
80006644:	deadbeef          	jal	t4,7ffe1c2e <absimm+0x7ffe142e>
80006648:	deadbeef          	jal	t4,7ffe1c32 <absimm+0x7ffe1432>
8000664c:	deadbeef          	jal	t4,7ffe1c36 <absimm+0x7ffe1436>
80006650:	deadbeef          	jal	t4,7ffe1c3a <absimm+0x7ffe143a>
80006654:	deadbeef          	jal	t4,7ffe1c3e <absimm+0x7ffe143e>
80006658:	deadbeef          	jal	t4,7ffe1c42 <absimm+0x7ffe1442>
8000665c:	deadbeef          	jal	t4,7ffe1c46 <absimm+0x7ffe1446>
80006660:	deadbeef          	jal	t4,7ffe1c4a <absimm+0x7ffe144a>
80006664:	deadbeef          	jal	t4,7ffe1c4e <absimm+0x7ffe144e>
80006668:	deadbeef          	jal	t4,7ffe1c52 <absimm+0x7ffe1452>
8000666c:	deadbeef          	jal	t4,7ffe1c56 <absimm+0x7ffe1456>
80006670:	deadbeef          	jal	t4,7ffe1c5a <absimm+0x7ffe145a>
80006674:	deadbeef          	jal	t4,7ffe1c5e <absimm+0x7ffe145e>
80006678:	deadbeef          	jal	t4,7ffe1c62 <absimm+0x7ffe1462>
8000667c:	deadbeef          	jal	t4,7ffe1c66 <absimm+0x7ffe1466>
80006680:	deadbeef          	jal	t4,7ffe1c6a <absimm+0x7ffe146a>
80006684:	deadbeef          	jal	t4,7ffe1c6e <absimm+0x7ffe146e>
80006688:	deadbeef          	jal	t4,7ffe1c72 <absimm+0x7ffe1472>
8000668c:	deadbeef          	jal	t4,7ffe1c76 <absimm+0x7ffe1476>
80006690:	deadbeef          	jal	t4,7ffe1c7a <absimm+0x7ffe147a>
80006694:	deadbeef          	jal	t4,7ffe1c7e <absimm+0x7ffe147e>
80006698:	deadbeef          	jal	t4,7ffe1c82 <absimm+0x7ffe1482>
8000669c:	deadbeef          	jal	t4,7ffe1c86 <absimm+0x7ffe1486>
800066a0:	deadbeef          	jal	t4,7ffe1c8a <absimm+0x7ffe148a>
800066a4:	deadbeef          	jal	t4,7ffe1c8e <absimm+0x7ffe148e>
800066a8:	deadbeef          	jal	t4,7ffe1c92 <absimm+0x7ffe1492>
800066ac:	deadbeef          	jal	t4,7ffe1c96 <absimm+0x7ffe1496>
800066b0:	deadbeef          	jal	t4,7ffe1c9a <absimm+0x7ffe149a>
800066b4:	deadbeef          	jal	t4,7ffe1c9e <absimm+0x7ffe149e>
800066b8:	deadbeef          	jal	t4,7ffe1ca2 <absimm+0x7ffe14a2>
800066bc:	deadbeef          	jal	t4,7ffe1ca6 <absimm+0x7ffe14a6>
800066c0:	deadbeef          	jal	t4,7ffe1caa <absimm+0x7ffe14aa>
800066c4:	deadbeef          	jal	t4,7ffe1cae <absimm+0x7ffe14ae>
800066c8:	deadbeef          	jal	t4,7ffe1cb2 <absimm+0x7ffe14b2>
800066cc:	deadbeef          	jal	t4,7ffe1cb6 <absimm+0x7ffe14b6>
800066d0:	deadbeef          	jal	t4,7ffe1cba <absimm+0x7ffe14ba>
800066d4:	deadbeef          	jal	t4,7ffe1cbe <absimm+0x7ffe14be>
800066d8:	deadbeef          	jal	t4,7ffe1cc2 <absimm+0x7ffe14c2>
800066dc:	deadbeef          	jal	t4,7ffe1cc6 <absimm+0x7ffe14c6>
800066e0:	deadbeef          	jal	t4,7ffe1cca <absimm+0x7ffe14ca>
800066e4:	deadbeef          	jal	t4,7ffe1cce <absimm+0x7ffe14ce>
800066e8:	deadbeef          	jal	t4,7ffe1cd2 <absimm+0x7ffe14d2>
800066ec:	deadbeef          	jal	t4,7ffe1cd6 <absimm+0x7ffe14d6>
800066f0:	deadbeef          	jal	t4,7ffe1cda <absimm+0x7ffe14da>
800066f4:	deadbeef          	jal	t4,7ffe1cde <absimm+0x7ffe14de>
800066f8:	deadbeef          	jal	t4,7ffe1ce2 <absimm+0x7ffe14e2>
800066fc:	deadbeef          	jal	t4,7ffe1ce6 <absimm+0x7ffe14e6>
80006700:	deadbeef          	jal	t4,7ffe1cea <absimm+0x7ffe14ea>
80006704:	deadbeef          	jal	t4,7ffe1cee <absimm+0x7ffe14ee>
80006708:	deadbeef          	jal	t4,7ffe1cf2 <absimm+0x7ffe14f2>
8000670c:	deadbeef          	jal	t4,7ffe1cf6 <absimm+0x7ffe14f6>
80006710:	deadbeef          	jal	t4,7ffe1cfa <absimm+0x7ffe14fa>
80006714:	deadbeef          	jal	t4,7ffe1cfe <absimm+0x7ffe14fe>
80006718:	deadbeef          	jal	t4,7ffe1d02 <absimm+0x7ffe1502>
8000671c:	deadbeef          	jal	t4,7ffe1d06 <absimm+0x7ffe1506>
80006720:	deadbeef          	jal	t4,7ffe1d0a <absimm+0x7ffe150a>
80006724:	deadbeef          	jal	t4,7ffe1d0e <absimm+0x7ffe150e>
80006728:	deadbeef          	jal	t4,7ffe1d12 <absimm+0x7ffe1512>
8000672c:	deadbeef          	jal	t4,7ffe1d16 <absimm+0x7ffe1516>
80006730:	deadbeef          	jal	t4,7ffe1d1a <absimm+0x7ffe151a>
80006734:	deadbeef          	jal	t4,7ffe1d1e <absimm+0x7ffe151e>
80006738:	deadbeef          	jal	t4,7ffe1d22 <absimm+0x7ffe1522>
8000673c:	deadbeef          	jal	t4,7ffe1d26 <absimm+0x7ffe1526>
80006740:	deadbeef          	jal	t4,7ffe1d2a <absimm+0x7ffe152a>
80006744:	deadbeef          	jal	t4,7ffe1d2e <absimm+0x7ffe152e>
80006748:	deadbeef          	jal	t4,7ffe1d32 <absimm+0x7ffe1532>
8000674c:	deadbeef          	jal	t4,7ffe1d36 <absimm+0x7ffe1536>
80006750:	deadbeef          	jal	t4,7ffe1d3a <absimm+0x7ffe153a>
80006754:	deadbeef          	jal	t4,7ffe1d3e <absimm+0x7ffe153e>
80006758:	deadbeef          	jal	t4,7ffe1d42 <absimm+0x7ffe1542>
8000675c:	deadbeef          	jal	t4,7ffe1d46 <absimm+0x7ffe1546>
80006760:	deadbeef          	jal	t4,7ffe1d4a <absimm+0x7ffe154a>
80006764:	deadbeef          	jal	t4,7ffe1d4e <absimm+0x7ffe154e>
80006768:	deadbeef          	jal	t4,7ffe1d52 <absimm+0x7ffe1552>
8000676c:	deadbeef          	jal	t4,7ffe1d56 <absimm+0x7ffe1556>
80006770:	deadbeef          	jal	t4,7ffe1d5a <absimm+0x7ffe155a>
80006774:	deadbeef          	jal	t4,7ffe1d5e <absimm+0x7ffe155e>
80006778:	deadbeef          	jal	t4,7ffe1d62 <absimm+0x7ffe1562>
8000677c:	deadbeef          	jal	t4,7ffe1d66 <absimm+0x7ffe1566>
80006780:	deadbeef          	jal	t4,7ffe1d6a <absimm+0x7ffe156a>
80006784:	deadbeef          	jal	t4,7ffe1d6e <absimm+0x7ffe156e>
80006788:	deadbeef          	jal	t4,7ffe1d72 <absimm+0x7ffe1572>
8000678c:	deadbeef          	jal	t4,7ffe1d76 <absimm+0x7ffe1576>
80006790:	deadbeef          	jal	t4,7ffe1d7a <absimm+0x7ffe157a>
80006794:	deadbeef          	jal	t4,7ffe1d7e <absimm+0x7ffe157e>
80006798:	deadbeef          	jal	t4,7ffe1d82 <absimm+0x7ffe1582>
8000679c:	deadbeef          	jal	t4,7ffe1d86 <absimm+0x7ffe1586>
800067a0:	deadbeef          	jal	t4,7ffe1d8a <absimm+0x7ffe158a>
800067a4:	deadbeef          	jal	t4,7ffe1d8e <absimm+0x7ffe158e>
800067a8:	deadbeef          	jal	t4,7ffe1d92 <absimm+0x7ffe1592>
800067ac:	deadbeef          	jal	t4,7ffe1d96 <absimm+0x7ffe1596>
800067b0:	deadbeef          	jal	t4,7ffe1d9a <absimm+0x7ffe159a>
800067b4:	deadbeef          	jal	t4,7ffe1d9e <absimm+0x7ffe159e>
800067b8:	deadbeef          	jal	t4,7ffe1da2 <absimm+0x7ffe15a2>
800067bc:	deadbeef          	jal	t4,7ffe1da6 <absimm+0x7ffe15a6>
800067c0:	deadbeef          	jal	t4,7ffe1daa <absimm+0x7ffe15aa>
800067c4:	deadbeef          	jal	t4,7ffe1dae <absimm+0x7ffe15ae>
800067c8:	deadbeef          	jal	t4,7ffe1db2 <absimm+0x7ffe15b2>
800067cc:	deadbeef          	jal	t4,7ffe1db6 <absimm+0x7ffe15b6>
800067d0:	deadbeef          	jal	t4,7ffe1dba <absimm+0x7ffe15ba>
800067d4:	deadbeef          	jal	t4,7ffe1dbe <absimm+0x7ffe15be>
800067d8:	deadbeef          	jal	t4,7ffe1dc2 <absimm+0x7ffe15c2>
800067dc:	deadbeef          	jal	t4,7ffe1dc6 <absimm+0x7ffe15c6>
800067e0:	deadbeef          	jal	t4,7ffe1dca <absimm+0x7ffe15ca>
800067e4:	deadbeef          	jal	t4,7ffe1dce <absimm+0x7ffe15ce>
800067e8:	deadbeef          	jal	t4,7ffe1dd2 <absimm+0x7ffe15d2>
800067ec:	deadbeef          	jal	t4,7ffe1dd6 <absimm+0x7ffe15d6>
800067f0:	deadbeef          	jal	t4,7ffe1dda <absimm+0x7ffe15da>
800067f4:	deadbeef          	jal	t4,7ffe1dde <absimm+0x7ffe15de>
800067f8:	deadbeef          	jal	t4,7ffe1de2 <absimm+0x7ffe15e2>
800067fc:	deadbeef          	jal	t4,7ffe1de6 <absimm+0x7ffe15e6>
80006800:	deadbeef          	jal	t4,7ffe1dea <absimm+0x7ffe15ea>
80006804:	deadbeef          	jal	t4,7ffe1dee <absimm+0x7ffe15ee>
80006808:	deadbeef          	jal	t4,7ffe1df2 <absimm+0x7ffe15f2>
8000680c:	deadbeef          	jal	t4,7ffe1df6 <absimm+0x7ffe15f6>
80006810:	deadbeef          	jal	t4,7ffe1dfa <absimm+0x7ffe15fa>
80006814:	deadbeef          	jal	t4,7ffe1dfe <absimm+0x7ffe15fe>
80006818:	deadbeef          	jal	t4,7ffe1e02 <absimm+0x7ffe1602>
8000681c:	deadbeef          	jal	t4,7ffe1e06 <absimm+0x7ffe1606>
80006820:	deadbeef          	jal	t4,7ffe1e0a <absimm+0x7ffe160a>
80006824:	deadbeef          	jal	t4,7ffe1e0e <absimm+0x7ffe160e>
80006828:	deadbeef          	jal	t4,7ffe1e12 <absimm+0x7ffe1612>
8000682c:	deadbeef          	jal	t4,7ffe1e16 <absimm+0x7ffe1616>
80006830:	deadbeef          	jal	t4,7ffe1e1a <absimm+0x7ffe161a>
80006834:	deadbeef          	jal	t4,7ffe1e1e <absimm+0x7ffe161e>
80006838:	deadbeef          	jal	t4,7ffe1e22 <absimm+0x7ffe1622>
8000683c:	deadbeef          	jal	t4,7ffe1e26 <absimm+0x7ffe1626>
80006840:	deadbeef          	jal	t4,7ffe1e2a <absimm+0x7ffe162a>
80006844:	deadbeef          	jal	t4,7ffe1e2e <absimm+0x7ffe162e>
80006848:	deadbeef          	jal	t4,7ffe1e32 <absimm+0x7ffe1632>
8000684c:	deadbeef          	jal	t4,7ffe1e36 <absimm+0x7ffe1636>
80006850:	deadbeef          	jal	t4,7ffe1e3a <absimm+0x7ffe163a>
80006854:	deadbeef          	jal	t4,7ffe1e3e <absimm+0x7ffe163e>
80006858:	deadbeef          	jal	t4,7ffe1e42 <absimm+0x7ffe1642>
8000685c:	deadbeef          	jal	t4,7ffe1e46 <absimm+0x7ffe1646>
80006860:	deadbeef          	jal	t4,7ffe1e4a <absimm+0x7ffe164a>
80006864:	deadbeef          	jal	t4,7ffe1e4e <absimm+0x7ffe164e>
80006868:	deadbeef          	jal	t4,7ffe1e52 <absimm+0x7ffe1652>
8000686c:	deadbeef          	jal	t4,7ffe1e56 <absimm+0x7ffe1656>
80006870:	deadbeef          	jal	t4,7ffe1e5a <absimm+0x7ffe165a>
80006874:	deadbeef          	jal	t4,7ffe1e5e <absimm+0x7ffe165e>
80006878:	deadbeef          	jal	t4,7ffe1e62 <absimm+0x7ffe1662>
8000687c:	deadbeef          	jal	t4,7ffe1e66 <absimm+0x7ffe1666>
80006880:	deadbeef          	jal	t4,7ffe1e6a <absimm+0x7ffe166a>
80006884:	deadbeef          	jal	t4,7ffe1e6e <absimm+0x7ffe166e>
80006888:	deadbeef          	jal	t4,7ffe1e72 <absimm+0x7ffe1672>
8000688c:	deadbeef          	jal	t4,7ffe1e76 <absimm+0x7ffe1676>
80006890:	deadbeef          	jal	t4,7ffe1e7a <absimm+0x7ffe167a>
80006894:	deadbeef          	jal	t4,7ffe1e7e <absimm+0x7ffe167e>
80006898:	deadbeef          	jal	t4,7ffe1e82 <absimm+0x7ffe1682>
8000689c:	deadbeef          	jal	t4,7ffe1e86 <absimm+0x7ffe1686>
800068a0:	deadbeef          	jal	t4,7ffe1e8a <absimm+0x7ffe168a>
800068a4:	deadbeef          	jal	t4,7ffe1e8e <absimm+0x7ffe168e>
800068a8:	deadbeef          	jal	t4,7ffe1e92 <absimm+0x7ffe1692>
800068ac:	deadbeef          	jal	t4,7ffe1e96 <absimm+0x7ffe1696>
800068b0:	deadbeef          	jal	t4,7ffe1e9a <absimm+0x7ffe169a>
800068b4:	deadbeef          	jal	t4,7ffe1e9e <absimm+0x7ffe169e>
800068b8:	deadbeef          	jal	t4,7ffe1ea2 <absimm+0x7ffe16a2>
800068bc:	deadbeef          	jal	t4,7ffe1ea6 <absimm+0x7ffe16a6>
800068c0:	deadbeef          	jal	t4,7ffe1eaa <absimm+0x7ffe16aa>
800068c4:	deadbeef          	jal	t4,7ffe1eae <absimm+0x7ffe16ae>
800068c8:	deadbeef          	jal	t4,7ffe1eb2 <absimm+0x7ffe16b2>
800068cc:	deadbeef          	jal	t4,7ffe1eb6 <absimm+0x7ffe16b6>
800068d0:	deadbeef          	jal	t4,7ffe1eba <absimm+0x7ffe16ba>
800068d4:	deadbeef          	jal	t4,7ffe1ebe <absimm+0x7ffe16be>
800068d8:	deadbeef          	jal	t4,7ffe1ec2 <absimm+0x7ffe16c2>
800068dc:	deadbeef          	jal	t4,7ffe1ec6 <absimm+0x7ffe16c6>
800068e0:	deadbeef          	jal	t4,7ffe1eca <absimm+0x7ffe16ca>
800068e4:	deadbeef          	jal	t4,7ffe1ece <absimm+0x7ffe16ce>
800068e8:	deadbeef          	jal	t4,7ffe1ed2 <absimm+0x7ffe16d2>
800068ec:	deadbeef          	jal	t4,7ffe1ed6 <absimm+0x7ffe16d6>
800068f0:	deadbeef          	jal	t4,7ffe1eda <absimm+0x7ffe16da>
800068f4:	deadbeef          	jal	t4,7ffe1ede <absimm+0x7ffe16de>
800068f8:	deadbeef          	jal	t4,7ffe1ee2 <absimm+0x7ffe16e2>
800068fc:	deadbeef          	jal	t4,7ffe1ee6 <absimm+0x7ffe16e6>
80006900:	deadbeef          	jal	t4,7ffe1eea <absimm+0x7ffe16ea>
80006904:	deadbeef          	jal	t4,7ffe1eee <absimm+0x7ffe16ee>
80006908:	deadbeef          	jal	t4,7ffe1ef2 <absimm+0x7ffe16f2>
8000690c:	deadbeef          	jal	t4,7ffe1ef6 <absimm+0x7ffe16f6>
80006910:	deadbeef          	jal	t4,7ffe1efa <absimm+0x7ffe16fa>
80006914:	deadbeef          	jal	t4,7ffe1efe <absimm+0x7ffe16fe>
80006918:	deadbeef          	jal	t4,7ffe1f02 <absimm+0x7ffe1702>
8000691c:	deadbeef          	jal	t4,7ffe1f06 <absimm+0x7ffe1706>
80006920:	deadbeef          	jal	t4,7ffe1f0a <absimm+0x7ffe170a>
80006924:	deadbeef          	jal	t4,7ffe1f0e <absimm+0x7ffe170e>
80006928:	deadbeef          	jal	t4,7ffe1f12 <absimm+0x7ffe1712>
8000692c:	deadbeef          	jal	t4,7ffe1f16 <absimm+0x7ffe1716>
80006930:	deadbeef          	jal	t4,7ffe1f1a <absimm+0x7ffe171a>
80006934:	deadbeef          	jal	t4,7ffe1f1e <absimm+0x7ffe171e>
80006938:	deadbeef          	jal	t4,7ffe1f22 <absimm+0x7ffe1722>
8000693c:	deadbeef          	jal	t4,7ffe1f26 <absimm+0x7ffe1726>
80006940:	deadbeef          	jal	t4,7ffe1f2a <absimm+0x7ffe172a>
80006944:	deadbeef          	jal	t4,7ffe1f2e <absimm+0x7ffe172e>
80006948:	deadbeef          	jal	t4,7ffe1f32 <absimm+0x7ffe1732>
8000694c:	deadbeef          	jal	t4,7ffe1f36 <absimm+0x7ffe1736>
80006950:	deadbeef          	jal	t4,7ffe1f3a <absimm+0x7ffe173a>
80006954:	deadbeef          	jal	t4,7ffe1f3e <absimm+0x7ffe173e>
80006958:	deadbeef          	jal	t4,7ffe1f42 <absimm+0x7ffe1742>
8000695c:	deadbeef          	jal	t4,7ffe1f46 <absimm+0x7ffe1746>
80006960:	deadbeef          	jal	t4,7ffe1f4a <absimm+0x7ffe174a>

80006964 <signature_x1_1>:
80006964:	deadbeef          	jal	t4,7ffe1f4e <absimm+0x7ffe174e>
80006968:	deadbeef          	jal	t4,7ffe1f52 <absimm+0x7ffe1752>
8000696c:	deadbeef          	jal	t4,7ffe1f56 <absimm+0x7ffe1756>
80006970:	deadbeef          	jal	t4,7ffe1f5a <absimm+0x7ffe175a>
80006974:	deadbeef          	jal	t4,7ffe1f5e <absimm+0x7ffe175e>
80006978:	deadbeef          	jal	t4,7ffe1f62 <absimm+0x7ffe1762>
8000697c:	deadbeef          	jal	t4,7ffe1f66 <absimm+0x7ffe1766>
80006980:	deadbeef          	jal	t4,7ffe1f6a <absimm+0x7ffe176a>
80006984:	deadbeef          	jal	t4,7ffe1f6e <absimm+0x7ffe176e>
80006988:	deadbeef          	jal	t4,7ffe1f72 <absimm+0x7ffe1772>
8000698c:	deadbeef          	jal	t4,7ffe1f76 <absimm+0x7ffe1776>
80006990:	deadbeef          	jal	t4,7ffe1f7a <absimm+0x7ffe177a>
80006994:	deadbeef          	jal	t4,7ffe1f7e <absimm+0x7ffe177e>
80006998:	deadbeef          	jal	t4,7ffe1f82 <absimm+0x7ffe1782>
8000699c:	deadbeef          	jal	t4,7ffe1f86 <absimm+0x7ffe1786>
800069a0:	deadbeef          	jal	t4,7ffe1f8a <absimm+0x7ffe178a>
800069a4:	deadbeef          	jal	t4,7ffe1f8e <absimm+0x7ffe178e>
800069a8:	deadbeef          	jal	t4,7ffe1f92 <absimm+0x7ffe1792>
800069ac:	deadbeef          	jal	t4,7ffe1f96 <absimm+0x7ffe1796>
800069b0:	deadbeef          	jal	t4,7ffe1f9a <absimm+0x7ffe179a>
800069b4:	deadbeef          	jal	t4,7ffe1f9e <absimm+0x7ffe179e>
800069b8:	deadbeef          	jal	t4,7ffe1fa2 <absimm+0x7ffe17a2>
800069bc:	deadbeef          	jal	t4,7ffe1fa6 <absimm+0x7ffe17a6>
800069c0:	deadbeef          	jal	t4,7ffe1faa <absimm+0x7ffe17aa>
800069c4:	deadbeef          	jal	t4,7ffe1fae <absimm+0x7ffe17ae>
800069c8:	deadbeef          	jal	t4,7ffe1fb2 <absimm+0x7ffe17b2>
800069cc:	deadbeef          	jal	t4,7ffe1fb6 <absimm+0x7ffe17b6>
800069d0:	deadbeef          	jal	t4,7ffe1fba <absimm+0x7ffe17ba>
800069d4:	deadbeef          	jal	t4,7ffe1fbe <absimm+0x7ffe17be>
800069d8:	deadbeef          	jal	t4,7ffe1fc2 <absimm+0x7ffe17c2>
800069dc:	deadbeef          	jal	t4,7ffe1fc6 <absimm+0x7ffe17c6>
800069e0:	deadbeef          	jal	t4,7ffe1fca <absimm+0x7ffe17ca>
800069e4:	deadbeef          	jal	t4,7ffe1fce <absimm+0x7ffe17ce>
800069e8:	deadbeef          	jal	t4,7ffe1fd2 <absimm+0x7ffe17d2>
800069ec:	deadbeef          	jal	t4,7ffe1fd6 <absimm+0x7ffe17d6>
800069f0:	deadbeef          	jal	t4,7ffe1fda <absimm+0x7ffe17da>
800069f4:	deadbeef          	jal	t4,7ffe1fde <absimm+0x7ffe17de>
800069f8:	deadbeef          	jal	t4,7ffe1fe2 <absimm+0x7ffe17e2>
800069fc:	deadbeef          	jal	t4,7ffe1fe6 <absimm+0x7ffe17e6>
80006a00:	deadbeef          	jal	t4,7ffe1fea <absimm+0x7ffe17ea>
80006a04:	deadbeef          	jal	t4,7ffe1fee <absimm+0x7ffe17ee>
80006a08:	deadbeef          	jal	t4,7ffe1ff2 <absimm+0x7ffe17f2>
80006a0c:	deadbeef          	jal	t4,7ffe1ff6 <absimm+0x7ffe17f6>
80006a10:	deadbeef          	jal	t4,7ffe1ffa <absimm+0x7ffe17fa>
80006a14:	deadbeef          	jal	t4,7ffe1ffe <absimm+0x7ffe17fe>
80006a18:	deadbeef          	jal	t4,7ffe2002 <absimm+0x7ffe1802>
80006a1c:	deadbeef          	jal	t4,7ffe2006 <absimm+0x7ffe1806>
80006a20:	deadbeef          	jal	t4,7ffe200a <absimm+0x7ffe180a>
80006a24:	deadbeef          	jal	t4,7ffe200e <absimm+0x7ffe180e>
80006a28:	deadbeef          	jal	t4,7ffe2012 <absimm+0x7ffe1812>
80006a2c:	deadbeef          	jal	t4,7ffe2016 <absimm+0x7ffe1816>
80006a30:	deadbeef          	jal	t4,7ffe201a <absimm+0x7ffe181a>
80006a34:	deadbeef          	jal	t4,7ffe201e <absimm+0x7ffe181e>
80006a38:	deadbeef          	jal	t4,7ffe2022 <absimm+0x7ffe1822>
80006a3c:	deadbeef          	jal	t4,7ffe2026 <absimm+0x7ffe1826>

80006a40 <sig_end_canary>:
80006a40:	a309                	j	80006f42 <_end+0x4f2>
80006a42:	6f5c                	flw	fa5,28(a4)

80006a44 <rvtest_sig_end>:
	...

Disassembly of section .riscv.attributes:

00000000 <.riscv.attributes>:
   0:	1e41                	addi	t3,t3,-16
   2:	0000                	unimp
   4:	7200                	flw	fs0,32(a2)
   6:	7369                	lui	t1,0xffffa
   8:	01007663          	bgeu	zero,a6,14 <edge2+0x8>
   c:	0014                	0x14
   e:	0000                	unimp
  10:	7205                	lui	tp,0xfffe1
  12:	3376                	fld	ft6,376(sp)
  14:	6932                	flw	fs2,12(sp)
  16:	7032                	flw	ft0,44(sp)
  18:	5f30                	lw	a2,120(a4)
  1a:	326d                	jal	fffff9c4 <imm12+0x1c4>
  1c:	3070                	fld	fa2,224(s0)
	...

Disassembly of section .debug_line:

00000000 <.debug_line>:
   0:	0e6a                	slli	t3,t3,0x1a
   2:	0000                	unimp
   4:	00740003          	lb	zero,7(s0) # 20007 <absimm+0x1f807>
   8:	0000                	unimp
   a:	0101                	addi	sp,sp,0
   c:	000d0efb          	0xd0efb
  10:	0101                	addi	sp,sp,0
  12:	0101                	addi	sp,sp,0
  14:	0000                	unimp
  16:	0100                	addi	s0,sp,128
  18:	0000                	unimp
  1a:	2f01                	jal	72a <offset+0x64e>
  1c:	6f68                	flw	fa0,92(a4)
  1e:	656d                	lui	a0,0x1b
  20:	766f6c2f          	0x766f6c2f
  24:	7369                	lui	t1,0xffffa
  26:	7365442f          	0x7365442f
  2a:	706f746b          	0x706f746b
  2e:	5669522f          	0x5669522f
  32:	7265                	lui	tp,0xffff9
  34:	635f 726f 2f65      	0x2f65726f635f
  3a:	6972                	flw	fs2,28(sp)
  3c:	666f6373          	csrrsi	t1,0x666,30
  40:	7369722f          	0x7369722f
  44:	612d7663          	bgeu	s10,s2,650 <offset+0x574>
  48:	6372                	flw	ft6,28(sp)
  4a:	2d68                	fld	fa0,216(a0)
  4c:	6574                	flw	fa3,76(a0)
  4e:	722f7473          	csrrci	s0,0x722,30
  52:	7369                	lui	t1,0xffffa
  54:	742d7663          	bgeu	s10,sp,7a0 <offset+0x6c4>
  58:	7365                	lui	t1,0xffff9
  5a:	2d74                	fld	fa3,216(a0)
  5c:	74697573          	csrrci	a0,0x746,18
  60:	2f65                	jal	818 <absimm+0x18>
  62:	7672                	flw	fa2,60(sp)
  64:	5f693233          	0x5f693233
  68:	2f6d                	jal	822 <absimm+0x22>
  6a:	2f4d                	jal	81c <absimm+0x1c>
  6c:	00637273          	csrrci	tp,0x6,6
  70:	7200                	flw	fs0,32(a2)
  72:	6d65                	lui	s10,0x19
  74:	302d                	jal	fffff89e <imm12+0x9e>
  76:	2e31                	jal	392 <offset+0x2b6>
  78:	00010053          	fadd.s	ft0,ft2,ft0,rne
  7c:	0000                	unimp
  7e:	0500                	addi	s0,sp,640
  80:	0002                	c.slli64	zero
  82:	0000                	unimp
  84:	0380                	addi	s0,sp,448
  86:	0119                	addi	sp,sp,6
  88:	78090603          	lb	a2,1920(s2)
  8c:	0100                	addi	s0,sp,128
  8e:	08090503          	lb	a0,128(s2)
  92:	0100                	addi	s0,sp,128
  94:	14090503          	lb	a0,320(s2)
  98:	0100                	addi	s0,sp,128
  9a:	10090503          	lb	a0,256(s2)
  9e:	0100                	addi	s0,sp,128
  a0:	10090503          	lb	a0,256(s2)
  a4:	0100                	addi	s0,sp,128
  a6:	10090503          	lb	a0,256(s2)
  aa:	0100                	addi	s0,sp,128
  ac:	18090503          	lb	a0,384(s2)
  b0:	0100                	addi	s0,sp,128
  b2:	14090503          	lb	a0,320(s2)
  b6:	0100                	addi	s0,sp,128
  b8:	10090503          	lb	a0,256(s2)
  bc:	0100                	addi	s0,sp,128
  be:	14090503          	lb	a0,320(s2)
  c2:	0100                	addi	s0,sp,128
  c4:	10090503          	lb	a0,256(s2)
  c8:	0100                	addi	s0,sp,128
  ca:	10090503          	lb	a0,256(s2)
  ce:	0100                	addi	s0,sp,128
  d0:	14090503          	lb	a0,320(s2)
  d4:	0100                	addi	s0,sp,128
  d6:	14090503          	lb	a0,320(s2)
  da:	0100                	addi	s0,sp,128
  dc:	10090503          	lb	a0,256(s2)
  e0:	0100                	addi	s0,sp,128
  e2:	10090503          	lb	a0,256(s2)
  e6:	0100                	addi	s0,sp,128
  e8:	10090503          	lb	a0,256(s2)
  ec:	0100                	addi	s0,sp,128
  ee:	14090503          	lb	a0,320(s2)
  f2:	0100                	addi	s0,sp,128
  f4:	10090503          	lb	a0,256(s2)
  f8:	0100                	addi	s0,sp,128
  fa:	14090503          	lb	a0,320(s2)
  fe:	0100                	addi	s0,sp,128
 100:	14090503          	lb	a0,320(s2)
 104:	0100                	addi	s0,sp,128
 106:	14090103          	lb	sp,320(s2)
 10a:	0100                	addi	s0,sp,128
 10c:	08090503          	lb	a0,128(s2)
 110:	0100                	addi	s0,sp,128
 112:	18090503          	lb	a0,384(s2)
 116:	0100                	addi	s0,sp,128
 118:	14090503          	lb	a0,320(s2)
 11c:	0100                	addi	s0,sp,128
 11e:	10090503          	lb	a0,256(s2)
 122:	0100                	addi	s0,sp,128
 124:	10090503          	lb	a0,256(s2)
 128:	0100                	addi	s0,sp,128
 12a:	10090503          	lb	a0,256(s2)
 12e:	0100                	addi	s0,sp,128
 130:	14090503          	lb	a0,320(s2)
 134:	0100                	addi	s0,sp,128
 136:	10090503          	lb	a0,256(s2)
 13a:	0100                	addi	s0,sp,128
 13c:	10090503          	lb	a0,256(s2)
 140:	0100                	addi	s0,sp,128
 142:	10090503          	lb	a0,256(s2)
 146:	0100                	addi	s0,sp,128
 148:	10090503          	lb	a0,256(s2)
 14c:	0100                	addi	s0,sp,128
 14e:	10090503          	lb	a0,256(s2)
 152:	0100                	addi	s0,sp,128
 154:	10090503          	lb	a0,256(s2)
 158:	0100                	addi	s0,sp,128
 15a:	14090503          	lb	a0,320(s2)
 15e:	0100                	addi	s0,sp,128
 160:	14090503          	lb	a0,320(s2)
 164:	0100                	addi	s0,sp,128
 166:	10090503          	lb	a0,256(s2)
 16a:	0100                	addi	s0,sp,128
 16c:	10090503          	lb	a0,256(s2)
 170:	0100                	addi	s0,sp,128
 172:	14090503          	lb	a0,320(s2)
 176:	0100                	addi	s0,sp,128
 178:	10090503          	lb	a0,256(s2)
 17c:	0100                	addi	s0,sp,128
 17e:	14090503          	lb	a0,320(s2)
 182:	0100                	addi	s0,sp,128
 184:	14090503          	lb	a0,320(s2)
 188:	0100                	addi	s0,sp,128
 18a:	14090503          	lb	a0,320(s2)
 18e:	0100                	addi	s0,sp,128
 190:	10090503          	lb	a0,256(s2)
 194:	0100                	addi	s0,sp,128
 196:	14090503          	lb	a0,320(s2)
 19a:	0100                	addi	s0,sp,128
 19c:	14090503          	lb	a0,320(s2)
 1a0:	0100                	addi	s0,sp,128
 1a2:	10090503          	lb	a0,256(s2)
 1a6:	0100                	addi	s0,sp,128
 1a8:	14090503          	lb	a0,320(s2)
 1ac:	0100                	addi	s0,sp,128
 1ae:	10090503          	lb	a0,256(s2)
 1b2:	0100                	addi	s0,sp,128
 1b4:	10090503          	lb	a0,256(s2)
 1b8:	0100                	addi	s0,sp,128
 1ba:	14090503          	lb	a0,320(s2)
 1be:	0100                	addi	s0,sp,128
 1c0:	14090503          	lb	a0,320(s2)
 1c4:	0100                	addi	s0,sp,128
 1c6:	18090503          	lb	a0,384(s2)
 1ca:	0100                	addi	s0,sp,128
 1cc:	14090503          	lb	a0,320(s2)
 1d0:	0100                	addi	s0,sp,128
 1d2:	18090503          	lb	a0,384(s2)
 1d6:	0100                	addi	s0,sp,128
 1d8:	14090503          	lb	a0,320(s2)
 1dc:	0100                	addi	s0,sp,128
 1de:	14090503          	lb	a0,320(s2)
 1e2:	0100                	addi	s0,sp,128
 1e4:	14090503          	lb	a0,320(s2)
 1e8:	0100                	addi	s0,sp,128
 1ea:	14090503          	lb	a0,320(s2)
 1ee:	0100                	addi	s0,sp,128
 1f0:	14090503          	lb	a0,320(s2)
 1f4:	0100                	addi	s0,sp,128
 1f6:	14090503          	lb	a0,320(s2)
 1fa:	0100                	addi	s0,sp,128
 1fc:	14090503          	lb	a0,320(s2)
 200:	0100                	addi	s0,sp,128
 202:	14090503          	lb	a0,320(s2)
 206:	0100                	addi	s0,sp,128
 208:	14090503          	lb	a0,320(s2)
 20c:	0100                	addi	s0,sp,128
 20e:	18090503          	lb	a0,384(s2)
 212:	0100                	addi	s0,sp,128
 214:	14090503          	lb	a0,320(s2)
 218:	0100                	addi	s0,sp,128
 21a:	14090503          	lb	a0,320(s2)
 21e:	0100                	addi	s0,sp,128
 220:	14090503          	lb	a0,320(s2)
 224:	0100                	addi	s0,sp,128
 226:	18090503          	lb	a0,384(s2)
 22a:	0100                	addi	s0,sp,128
 22c:	14090503          	lb	a0,320(s2)
 230:	0100                	addi	s0,sp,128
 232:	14090503          	lb	a0,320(s2)
 236:	0100                	addi	s0,sp,128
 238:	18090503          	lb	a0,384(s2)
 23c:	0100                	addi	s0,sp,128
 23e:	14090503          	lb	a0,320(s2)
 242:	0100                	addi	s0,sp,128
 244:	10090503          	lb	a0,256(s2)
 248:	0100                	addi	s0,sp,128
 24a:	14090503          	lb	a0,320(s2)
 24e:	0100                	addi	s0,sp,128
 250:	10090503          	lb	a0,256(s2)
 254:	0100                	addi	s0,sp,128
 256:	14090503          	lb	a0,320(s2)
 25a:	0100                	addi	s0,sp,128
 25c:	10090503          	lb	a0,256(s2)
 260:	0100                	addi	s0,sp,128
 262:	14090503          	lb	a0,320(s2)
 266:	0100                	addi	s0,sp,128
 268:	14090503          	lb	a0,320(s2)
 26c:	0100                	addi	s0,sp,128
 26e:	10090503          	lb	a0,256(s2)
 272:	0100                	addi	s0,sp,128
 274:	14090503          	lb	a0,320(s2)
 278:	0100                	addi	s0,sp,128
 27a:	10090503          	lb	a0,256(s2)
 27e:	0100                	addi	s0,sp,128
 280:	10090503          	lb	a0,256(s2)
 284:	0100                	addi	s0,sp,128
 286:	10090503          	lb	a0,256(s2)
 28a:	0100                	addi	s0,sp,128
 28c:	10090503          	lb	a0,256(s2)
 290:	0100                	addi	s0,sp,128
 292:	10090503          	lb	a0,256(s2)
 296:	0100                	addi	s0,sp,128
 298:	10090503          	lb	a0,256(s2)
 29c:	0100                	addi	s0,sp,128
 29e:	10090503          	lb	a0,256(s2)
 2a2:	0100                	addi	s0,sp,128
 2a4:	14090503          	lb	a0,320(s2)
 2a8:	0100                	addi	s0,sp,128
 2aa:	10090503          	lb	a0,256(s2)
 2ae:	0100                	addi	s0,sp,128
 2b0:	14090503          	lb	a0,320(s2)
 2b4:	0100                	addi	s0,sp,128
 2b6:	10090503          	lb	a0,256(s2)
 2ba:	0100                	addi	s0,sp,128
 2bc:	14090503          	lb	a0,320(s2)
 2c0:	0100                	addi	s0,sp,128
 2c2:	14090503          	lb	a0,320(s2)
 2c6:	0100                	addi	s0,sp,128
 2c8:	14090503          	lb	a0,320(s2)
 2cc:	0100                	addi	s0,sp,128
 2ce:	14090503          	lb	a0,320(s2)
 2d2:	0100                	addi	s0,sp,128
 2d4:	18090503          	lb	a0,384(s2)
 2d8:	0100                	addi	s0,sp,128
 2da:	18090503          	lb	a0,384(s2)
 2de:	0100                	addi	s0,sp,128
 2e0:	14090503          	lb	a0,320(s2)
 2e4:	0100                	addi	s0,sp,128
 2e6:	14090503          	lb	a0,320(s2)
 2ea:	0100                	addi	s0,sp,128
 2ec:	14090503          	lb	a0,320(s2)
 2f0:	0100                	addi	s0,sp,128
 2f2:	14090503          	lb	a0,320(s2)
 2f6:	0100                	addi	s0,sp,128
 2f8:	10090503          	lb	a0,256(s2)
 2fc:	0100                	addi	s0,sp,128
 2fe:	14090503          	lb	a0,320(s2)
 302:	0100                	addi	s0,sp,128
 304:	14090503          	lb	a0,320(s2)
 308:	0100                	addi	s0,sp,128
 30a:	10090503          	lb	a0,256(s2)
 30e:	0100                	addi	s0,sp,128
 310:	14090503          	lb	a0,320(s2)
 314:	0100                	addi	s0,sp,128
 316:	14090503          	lb	a0,320(s2)
 31a:	0100                	addi	s0,sp,128
 31c:	14090503          	lb	a0,320(s2)
 320:	0100                	addi	s0,sp,128
 322:	14090503          	lb	a0,320(s2)
 326:	0100                	addi	s0,sp,128
 328:	10090503          	lb	a0,256(s2)
 32c:	0100                	addi	s0,sp,128
 32e:	14090503          	lb	a0,320(s2)
 332:	0100                	addi	s0,sp,128
 334:	10090503          	lb	a0,256(s2)
 338:	0100                	addi	s0,sp,128
 33a:	10090503          	lb	a0,256(s2)
 33e:	0100                	addi	s0,sp,128
 340:	14090503          	lb	a0,320(s2)
 344:	0100                	addi	s0,sp,128
 346:	14090503          	lb	a0,320(s2)
 34a:	0100                	addi	s0,sp,128
 34c:	14090503          	lb	a0,320(s2)
 350:	0100                	addi	s0,sp,128
 352:	14090503          	lb	a0,320(s2)
 356:	0100                	addi	s0,sp,128
 358:	14090503          	lb	a0,320(s2)
 35c:	0100                	addi	s0,sp,128
 35e:	10090503          	lb	a0,256(s2)
 362:	0100                	addi	s0,sp,128
 364:	14090503          	lb	a0,320(s2)
 368:	0100                	addi	s0,sp,128
 36a:	14090503          	lb	a0,320(s2)
 36e:	0100                	addi	s0,sp,128
 370:	14090503          	lb	a0,320(s2)
 374:	0100                	addi	s0,sp,128
 376:	14090503          	lb	a0,320(s2)
 37a:	0100                	addi	s0,sp,128
 37c:	14090503          	lb	a0,320(s2)
 380:	0100                	addi	s0,sp,128
 382:	18090503          	lb	a0,384(s2)
 386:	0100                	addi	s0,sp,128
 388:	18090503          	lb	a0,384(s2)
 38c:	0100                	addi	s0,sp,128
 38e:	14090503          	lb	a0,320(s2)
 392:	0100                	addi	s0,sp,128
 394:	18090503          	lb	a0,384(s2)
 398:	0100                	addi	s0,sp,128
 39a:	18090503          	lb	a0,384(s2)
 39e:	0100                	addi	s0,sp,128
 3a0:	18090503          	lb	a0,384(s2)
 3a4:	0100                	addi	s0,sp,128
 3a6:	18090503          	lb	a0,384(s2)
 3aa:	0100                	addi	s0,sp,128
 3ac:	14090503          	lb	a0,320(s2)
 3b0:	0100                	addi	s0,sp,128
 3b2:	18090503          	lb	a0,384(s2)
 3b6:	0100                	addi	s0,sp,128
 3b8:	14090503          	lb	a0,320(s2)
 3bc:	0100                	addi	s0,sp,128
 3be:	14090503          	lb	a0,320(s2)
 3c2:	0100                	addi	s0,sp,128
 3c4:	18090503          	lb	a0,384(s2)
 3c8:	0100                	addi	s0,sp,128
 3ca:	18090503          	lb	a0,384(s2)
 3ce:	0100                	addi	s0,sp,128
 3d0:	18090503          	lb	a0,384(s2)
 3d4:	0100                	addi	s0,sp,128
 3d6:	18090503          	lb	a0,384(s2)
 3da:	0100                	addi	s0,sp,128
 3dc:	18090503          	lb	a0,384(s2)
 3e0:	0100                	addi	s0,sp,128
 3e2:	14090503          	lb	a0,320(s2)
 3e6:	0100                	addi	s0,sp,128
 3e8:	18090503          	lb	a0,384(s2)
 3ec:	0100                	addi	s0,sp,128
 3ee:	18090503          	lb	a0,384(s2)
 3f2:	0100                	addi	s0,sp,128
 3f4:	18090503          	lb	a0,384(s2)
 3f8:	0100                	addi	s0,sp,128
 3fa:	18090503          	lb	a0,384(s2)
 3fe:	0100                	addi	s0,sp,128
 400:	14090503          	lb	a0,320(s2)
 404:	0100                	addi	s0,sp,128
 406:	18090503          	lb	a0,384(s2)
 40a:	0100                	addi	s0,sp,128
 40c:	18090503          	lb	a0,384(s2)
 410:	0100                	addi	s0,sp,128
 412:	14090503          	lb	a0,320(s2)
 416:	0100                	addi	s0,sp,128
 418:	18090503          	lb	a0,384(s2)
 41c:	0100                	addi	s0,sp,128
 41e:	18090503          	lb	a0,384(s2)
 422:	0100                	addi	s0,sp,128
 424:	18090503          	lb	a0,384(s2)
 428:	0100                	addi	s0,sp,128
 42a:	18090503          	lb	a0,384(s2)
 42e:	0100                	addi	s0,sp,128
 430:	14090503          	lb	a0,320(s2)
 434:	0100                	addi	s0,sp,128
 436:	18090503          	lb	a0,384(s2)
 43a:	0100                	addi	s0,sp,128
 43c:	14090503          	lb	a0,320(s2)
 440:	0100                	addi	s0,sp,128
 442:	14090503          	lb	a0,320(s2)
 446:	0100                	addi	s0,sp,128
 448:	18090503          	lb	a0,384(s2)
 44c:	0100                	addi	s0,sp,128
 44e:	18090503          	lb	a0,384(s2)
 452:	0100                	addi	s0,sp,128
 454:	18090503          	lb	a0,384(s2)
 458:	0100                	addi	s0,sp,128
 45a:	18090503          	lb	a0,384(s2)
 45e:	0100                	addi	s0,sp,128
 460:	18090503          	lb	a0,384(s2)
 464:	0100                	addi	s0,sp,128
 466:	14090503          	lb	a0,320(s2)
 46a:	0100                	addi	s0,sp,128
 46c:	18090503          	lb	a0,384(s2)
 470:	0100                	addi	s0,sp,128
 472:	18090503          	lb	a0,384(s2)
 476:	0100                	addi	s0,sp,128
 478:	18090503          	lb	a0,384(s2)
 47c:	0100                	addi	s0,sp,128
 47e:	18090503          	lb	a0,384(s2)
 482:	0100                	addi	s0,sp,128
 484:	10090503          	lb	a0,256(s2)
 488:	0100                	addi	s0,sp,128
 48a:	14090503          	lb	a0,320(s2)
 48e:	0100                	addi	s0,sp,128
 490:	14090503          	lb	a0,320(s2)
 494:	0100                	addi	s0,sp,128
 496:	10090503          	lb	a0,256(s2)
 49a:	0100                	addi	s0,sp,128
 49c:	14090503          	lb	a0,320(s2)
 4a0:	0100                	addi	s0,sp,128
 4a2:	14090503          	lb	a0,320(s2)
 4a6:	0100                	addi	s0,sp,128
 4a8:	14090503          	lb	a0,320(s2)
 4ac:	0100                	addi	s0,sp,128
 4ae:	14090503          	lb	a0,320(s2)
 4b2:	0100                	addi	s0,sp,128
 4b4:	10090503          	lb	a0,256(s2)
 4b8:	0100                	addi	s0,sp,128
 4ba:	14090503          	lb	a0,320(s2)
 4be:	0100                	addi	s0,sp,128
 4c0:	10090503          	lb	a0,256(s2)
 4c4:	0100                	addi	s0,sp,128
 4c6:	10090503          	lb	a0,256(s2)
 4ca:	0100                	addi	s0,sp,128
 4cc:	14090503          	lb	a0,320(s2)
 4d0:	0100                	addi	s0,sp,128
 4d2:	14090503          	lb	a0,320(s2)
 4d6:	0100                	addi	s0,sp,128
 4d8:	14090503          	lb	a0,320(s2)
 4dc:	0100                	addi	s0,sp,128
 4de:	14090503          	lb	a0,320(s2)
 4e2:	0100                	addi	s0,sp,128
 4e4:	14090503          	lb	a0,320(s2)
 4e8:	0100                	addi	s0,sp,128
 4ea:	10090503          	lb	a0,256(s2)
 4ee:	0100                	addi	s0,sp,128
 4f0:	14090503          	lb	a0,320(s2)
 4f4:	0100                	addi	s0,sp,128
 4f6:	14090503          	lb	a0,320(s2)
 4fa:	0100                	addi	s0,sp,128
 4fc:	14090503          	lb	a0,320(s2)
 500:	0100                	addi	s0,sp,128
 502:	14090503          	lb	a0,320(s2)
 506:	0100                	addi	s0,sp,128
 508:	14090503          	lb	a0,320(s2)
 50c:	0100                	addi	s0,sp,128
 50e:	18090503          	lb	a0,384(s2)
 512:	0100                	addi	s0,sp,128
 514:	18090503          	lb	a0,384(s2)
 518:	0100                	addi	s0,sp,128
 51a:	14090503          	lb	a0,320(s2)
 51e:	0100                	addi	s0,sp,128
 520:	18090503          	lb	a0,384(s2)
 524:	0100                	addi	s0,sp,128
 526:	18090503          	lb	a0,384(s2)
 52a:	0100                	addi	s0,sp,128
 52c:	18090503          	lb	a0,384(s2)
 530:	0100                	addi	s0,sp,128
 532:	18090503          	lb	a0,384(s2)
 536:	0100                	addi	s0,sp,128
 538:	14090503          	lb	a0,320(s2)
 53c:	0100                	addi	s0,sp,128
 53e:	18090503          	lb	a0,384(s2)
 542:	0100                	addi	s0,sp,128
 544:	14090503          	lb	a0,320(s2)
 548:	0100                	addi	s0,sp,128
 54a:	14090503          	lb	a0,320(s2)
 54e:	0100                	addi	s0,sp,128
 550:	18090503          	lb	a0,384(s2)
 554:	0100                	addi	s0,sp,128
 556:	18090503          	lb	a0,384(s2)
 55a:	0100                	addi	s0,sp,128
 55c:	18090503          	lb	a0,384(s2)
 560:	0100                	addi	s0,sp,128
 562:	18090503          	lb	a0,384(s2)
 566:	0100                	addi	s0,sp,128
 568:	18090503          	lb	a0,384(s2)
 56c:	0100                	addi	s0,sp,128
 56e:	14090503          	lb	a0,320(s2)
 572:	0100                	addi	s0,sp,128
 574:	18090503          	lb	a0,384(s2)
 578:	0100                	addi	s0,sp,128
 57a:	18090503          	lb	a0,384(s2)
 57e:	0100                	addi	s0,sp,128
 580:	18090503          	lb	a0,384(s2)
 584:	0100                	addi	s0,sp,128
 586:	18090503          	lb	a0,384(s2)
 58a:	0100                	addi	s0,sp,128
 58c:	14090503          	lb	a0,320(s2)
 590:	0100                	addi	s0,sp,128
 592:	18090503          	lb	a0,384(s2)
 596:	0100                	addi	s0,sp,128
 598:	18090503          	lb	a0,384(s2)
 59c:	0100                	addi	s0,sp,128
 59e:	14090503          	lb	a0,320(s2)
 5a2:	0100                	addi	s0,sp,128
 5a4:	18090503          	lb	a0,384(s2)
 5a8:	0100                	addi	s0,sp,128
 5aa:	18090503          	lb	a0,384(s2)
 5ae:	0100                	addi	s0,sp,128
 5b0:	18090503          	lb	a0,384(s2)
 5b4:	0100                	addi	s0,sp,128
 5b6:	18090503          	lb	a0,384(s2)
 5ba:	0100                	addi	s0,sp,128
 5bc:	14090503          	lb	a0,320(s2)
 5c0:	0100                	addi	s0,sp,128
 5c2:	18090503          	lb	a0,384(s2)
 5c6:	0100                	addi	s0,sp,128
 5c8:	14090503          	lb	a0,320(s2)
 5cc:	0100                	addi	s0,sp,128
 5ce:	14090503          	lb	a0,320(s2)
 5d2:	0100                	addi	s0,sp,128
 5d4:	18090503          	lb	a0,384(s2)
 5d8:	0100                	addi	s0,sp,128
 5da:	18090503          	lb	a0,384(s2)
 5de:	0100                	addi	s0,sp,128
 5e0:	18090503          	lb	a0,384(s2)
 5e4:	0100                	addi	s0,sp,128
 5e6:	18090503          	lb	a0,384(s2)
 5ea:	0100                	addi	s0,sp,128
 5ec:	18090503          	lb	a0,384(s2)
 5f0:	0100                	addi	s0,sp,128
 5f2:	14090503          	lb	a0,320(s2)
 5f6:	0100                	addi	s0,sp,128
 5f8:	18090503          	lb	a0,384(s2)
 5fc:	0100                	addi	s0,sp,128
 5fe:	18090503          	lb	a0,384(s2)
 602:	0100                	addi	s0,sp,128
 604:	18090503          	lb	a0,384(s2)
 608:	0100                	addi	s0,sp,128
 60a:	18090503          	lb	a0,384(s2)
 60e:	0100                	addi	s0,sp,128
 610:	14090503          	lb	a0,320(s2)
 614:	0100                	addi	s0,sp,128
 616:	18090503          	lb	a0,384(s2)
 61a:	0100                	addi	s0,sp,128
 61c:	18090503          	lb	a0,384(s2)
 620:	0100                	addi	s0,sp,128
 622:	14090503          	lb	a0,320(s2)
 626:	0100                	addi	s0,sp,128
 628:	18090503          	lb	a0,384(s2)
 62c:	0100                	addi	s0,sp,128
 62e:	18090503          	lb	a0,384(s2)
 632:	0100                	addi	s0,sp,128
 634:	18090503          	lb	a0,384(s2)
 638:	0100                	addi	s0,sp,128
 63a:	18090503          	lb	a0,384(s2)
 63e:	0100                	addi	s0,sp,128
 640:	14090503          	lb	a0,320(s2)
 644:	0100                	addi	s0,sp,128
 646:	18090503          	lb	a0,384(s2)
 64a:	0100                	addi	s0,sp,128
 64c:	14090503          	lb	a0,320(s2)
 650:	0100                	addi	s0,sp,128
 652:	14090503          	lb	a0,320(s2)
 656:	0100                	addi	s0,sp,128
 658:	18090503          	lb	a0,384(s2)
 65c:	0100                	addi	s0,sp,128
 65e:	18090503          	lb	a0,384(s2)
 662:	0100                	addi	s0,sp,128
 664:	18090503          	lb	a0,384(s2)
 668:	0100                	addi	s0,sp,128
 66a:	18090503          	lb	a0,384(s2)
 66e:	0100                	addi	s0,sp,128
 670:	18090503          	lb	a0,384(s2)
 674:	0100                	addi	s0,sp,128
 676:	14090503          	lb	a0,320(s2)
 67a:	0100                	addi	s0,sp,128
 67c:	18090503          	lb	a0,384(s2)
 680:	0100                	addi	s0,sp,128
 682:	18090503          	lb	a0,384(s2)
 686:	0100                	addi	s0,sp,128
 688:	18090503          	lb	a0,384(s2)
 68c:	0100                	addi	s0,sp,128
 68e:	18090503          	lb	a0,384(s2)
 692:	0100                	addi	s0,sp,128
 694:	14090503          	lb	a0,320(s2)
 698:	0100                	addi	s0,sp,128
 69a:	18090503          	lb	a0,384(s2)
 69e:	0100                	addi	s0,sp,128
 6a0:	18090503          	lb	a0,384(s2)
 6a4:	0100                	addi	s0,sp,128
 6a6:	14090503          	lb	a0,320(s2)
 6aa:	0100                	addi	s0,sp,128
 6ac:	18090503          	lb	a0,384(s2)
 6b0:	0100                	addi	s0,sp,128
 6b2:	18090503          	lb	a0,384(s2)
 6b6:	0100                	addi	s0,sp,128
 6b8:	18090503          	lb	a0,384(s2)
 6bc:	0100                	addi	s0,sp,128
 6be:	14090503          	lb	a0,320(s2)
 6c2:	0100                	addi	s0,sp,128
 6c4:	18090503          	lb	a0,384(s2)
 6c8:	0100                	addi	s0,sp,128
 6ca:	14090503          	lb	a0,320(s2)
 6ce:	0100                	addi	s0,sp,128
 6d0:	14090503          	lb	a0,320(s2)
 6d4:	0100                	addi	s0,sp,128
 6d6:	18090503          	lb	a0,384(s2)
 6da:	0100                	addi	s0,sp,128
 6dc:	18090503          	lb	a0,384(s2)
 6e0:	0100                	addi	s0,sp,128
 6e2:	18090503          	lb	a0,384(s2)
 6e6:	0100                	addi	s0,sp,128
 6e8:	18090503          	lb	a0,384(s2)
 6ec:	0100                	addi	s0,sp,128
 6ee:	18090503          	lb	a0,384(s2)
 6f2:	0100                	addi	s0,sp,128
 6f4:	14090503          	lb	a0,320(s2)
 6f8:	0100                	addi	s0,sp,128
 6fa:	18090503          	lb	a0,384(s2)
 6fe:	0100                	addi	s0,sp,128
 700:	18090503          	lb	a0,384(s2)
 704:	0100                	addi	s0,sp,128
 706:	18090503          	lb	a0,384(s2)
 70a:	0100                	addi	s0,sp,128
 70c:	18090503          	lb	a0,384(s2)
 710:	0100                	addi	s0,sp,128
 712:	10090503          	lb	a0,256(s2)
 716:	0100                	addi	s0,sp,128
 718:	14090503          	lb	a0,320(s2)
 71c:	0100                	addi	s0,sp,128
 71e:	14090503          	lb	a0,320(s2)
 722:	0100                	addi	s0,sp,128
 724:	10090503          	lb	a0,256(s2)
 728:	0100                	addi	s0,sp,128
 72a:	14090503          	lb	a0,320(s2)
 72e:	0100                	addi	s0,sp,128
 730:	14090503          	lb	a0,320(s2)
 734:	0100                	addi	s0,sp,128
 736:	14090503          	lb	a0,320(s2)
 73a:	0100                	addi	s0,sp,128
 73c:	14090503          	lb	a0,320(s2)
 740:	0100                	addi	s0,sp,128
 742:	10090503          	lb	a0,256(s2)
 746:	0100                	addi	s0,sp,128
 748:	14090503          	lb	a0,320(s2)
 74c:	0100                	addi	s0,sp,128
 74e:	10090503          	lb	a0,256(s2)
 752:	0100                	addi	s0,sp,128
 754:	10090503          	lb	a0,256(s2)
 758:	0100                	addi	s0,sp,128
 75a:	14090503          	lb	a0,320(s2)
 75e:	0100                	addi	s0,sp,128
 760:	14090503          	lb	a0,320(s2)
 764:	0100                	addi	s0,sp,128
 766:	14090503          	lb	a0,320(s2)
 76a:	0100                	addi	s0,sp,128
 76c:	14090503          	lb	a0,320(s2)
 770:	0100                	addi	s0,sp,128
 772:	14090503          	lb	a0,320(s2)
 776:	0100                	addi	s0,sp,128
 778:	10090503          	lb	a0,256(s2)
 77c:	0100                	addi	s0,sp,128
 77e:	14090503          	lb	a0,320(s2)
 782:	0100                	addi	s0,sp,128
 784:	14090503          	lb	a0,320(s2)
 788:	0100                	addi	s0,sp,128
 78a:	14090503          	lb	a0,320(s2)
 78e:	0100                	addi	s0,sp,128
 790:	14090503          	lb	a0,320(s2)
 794:	0100                	addi	s0,sp,128
 796:	14090503          	lb	a0,320(s2)
 79a:	0100                	addi	s0,sp,128
 79c:	18090503          	lb	a0,384(s2)
 7a0:	0100                	addi	s0,sp,128
 7a2:	18090503          	lb	a0,384(s2)
 7a6:	0100                	addi	s0,sp,128
 7a8:	14090503          	lb	a0,320(s2)
 7ac:	0100                	addi	s0,sp,128
 7ae:	18090503          	lb	a0,384(s2)
 7b2:	0100                	addi	s0,sp,128
 7b4:	18090503          	lb	a0,384(s2)
 7b8:	0100                	addi	s0,sp,128
 7ba:	18090503          	lb	a0,384(s2)
 7be:	0100                	addi	s0,sp,128
 7c0:	18090503          	lb	a0,384(s2)
 7c4:	0100                	addi	s0,sp,128
 7c6:	14090503          	lb	a0,320(s2)
 7ca:	0100                	addi	s0,sp,128
 7cc:	18090503          	lb	a0,384(s2)
 7d0:	0100                	addi	s0,sp,128
 7d2:	14090503          	lb	a0,320(s2)
 7d6:	0100                	addi	s0,sp,128
 7d8:	14090503          	lb	a0,320(s2)
 7dc:	0100                	addi	s0,sp,128
 7de:	18090503          	lb	a0,384(s2)
 7e2:	0100                	addi	s0,sp,128
 7e4:	18090503          	lb	a0,384(s2)
 7e8:	0100                	addi	s0,sp,128
 7ea:	18090503          	lb	a0,384(s2)
 7ee:	0100                	addi	s0,sp,128
 7f0:	18090503          	lb	a0,384(s2)
 7f4:	0100                	addi	s0,sp,128
 7f6:	18090503          	lb	a0,384(s2)
 7fa:	0100                	addi	s0,sp,128
 7fc:	14090503          	lb	a0,320(s2)
 800:	0100                	addi	s0,sp,128
 802:	18090503          	lb	a0,384(s2)
 806:	0100                	addi	s0,sp,128
 808:	18090503          	lb	a0,384(s2)
 80c:	0100                	addi	s0,sp,128
 80e:	18090503          	lb	a0,384(s2)
 812:	0100                	addi	s0,sp,128
 814:	18090503          	lb	a0,384(s2)
 818:	0100                	addi	s0,sp,128
 81a:	10090503          	lb	a0,256(s2)
 81e:	0100                	addi	s0,sp,128
 820:	14090503          	lb	a0,320(s2)
 824:	0100                	addi	s0,sp,128
 826:	14090503          	lb	a0,320(s2)
 82a:	0100                	addi	s0,sp,128
 82c:	10090503          	lb	a0,256(s2)
 830:	0100                	addi	s0,sp,128
 832:	14090503          	lb	a0,320(s2)
 836:	0100                	addi	s0,sp,128
 838:	14090503          	lb	a0,320(s2)
 83c:	0100                	addi	s0,sp,128
 83e:	14090503          	lb	a0,320(s2)
 842:	0100                	addi	s0,sp,128
 844:	18090503          	lb	a0,384(s2)
 848:	0100                	addi	s0,sp,128
 84a:	14090503          	lb	a0,320(s2)
 84e:	0100                	addi	s0,sp,128
 850:	18090503          	lb	a0,384(s2)
 854:	0100                	addi	s0,sp,128
 856:	18090503          	lb	a0,384(s2)
 85a:	0100                	addi	s0,sp,128
 85c:	18090503          	lb	a0,384(s2)
 860:	0100                	addi	s0,sp,128
 862:	18090503          	lb	a0,384(s2)
 866:	0100                	addi	s0,sp,128
 868:	10090503          	lb	a0,256(s2)
 86c:	0100                	addi	s0,sp,128
 86e:	14090503          	lb	a0,320(s2)
 872:	0100                	addi	s0,sp,128
 874:	14090503          	lb	a0,320(s2)
 878:	0100                	addi	s0,sp,128
 87a:	10090503          	lb	a0,256(s2)
 87e:	0100                	addi	s0,sp,128
 880:	14090503          	lb	a0,320(s2)
 884:	0100                	addi	s0,sp,128
 886:	14090503          	lb	a0,320(s2)
 88a:	0100                	addi	s0,sp,128
 88c:	14090503          	lb	a0,320(s2)
 890:	0100                	addi	s0,sp,128
 892:	14090503          	lb	a0,320(s2)
 896:	0100                	addi	s0,sp,128
 898:	10090503          	lb	a0,256(s2)
 89c:	0100                	addi	s0,sp,128
 89e:	14090503          	lb	a0,320(s2)
 8a2:	0100                	addi	s0,sp,128
 8a4:	10090503          	lb	a0,256(s2)
 8a8:	0100                	addi	s0,sp,128
 8aa:	10090503          	lb	a0,256(s2)
 8ae:	0100                	addi	s0,sp,128
 8b0:	14090503          	lb	a0,320(s2)
 8b4:	0100                	addi	s0,sp,128
 8b6:	14090503          	lb	a0,320(s2)
 8ba:	0100                	addi	s0,sp,128
 8bc:	14090503          	lb	a0,320(s2)
 8c0:	0100                	addi	s0,sp,128
 8c2:	14090503          	lb	a0,320(s2)
 8c6:	0100                	addi	s0,sp,128
 8c8:	14090503          	lb	a0,320(s2)
 8cc:	0100                	addi	s0,sp,128
 8ce:	10090503          	lb	a0,256(s2)
 8d2:	0100                	addi	s0,sp,128
 8d4:	14090503          	lb	a0,320(s2)
 8d8:	0100                	addi	s0,sp,128
 8da:	14090503          	lb	a0,320(s2)
 8de:	0100                	addi	s0,sp,128
 8e0:	14090503          	lb	a0,320(s2)
 8e4:	0100                	addi	s0,sp,128
 8e6:	14090503          	lb	a0,320(s2)
 8ea:	0100                	addi	s0,sp,128
 8ec:	14090503          	lb	a0,320(s2)
 8f0:	0100                	addi	s0,sp,128
 8f2:	18090503          	lb	a0,384(s2)
 8f6:	0100                	addi	s0,sp,128
 8f8:	18090503          	lb	a0,384(s2)
 8fc:	0100                	addi	s0,sp,128
 8fe:	14090503          	lb	a0,320(s2)
 902:	0100                	addi	s0,sp,128
 904:	18090503          	lb	a0,384(s2)
 908:	0100                	addi	s0,sp,128
 90a:	18090503          	lb	a0,384(s2)
 90e:	0100                	addi	s0,sp,128
 910:	18090503          	lb	a0,384(s2)
 914:	0100                	addi	s0,sp,128
 916:	18090503          	lb	a0,384(s2)
 91a:	0100                	addi	s0,sp,128
 91c:	14090503          	lb	a0,320(s2)
 920:	0100                	addi	s0,sp,128
 922:	18090503          	lb	a0,384(s2)
 926:	0100                	addi	s0,sp,128
 928:	14090503          	lb	a0,320(s2)
 92c:	0100                	addi	s0,sp,128
 92e:	14090503          	lb	a0,320(s2)
 932:	0100                	addi	s0,sp,128
 934:	18090503          	lb	a0,384(s2)
 938:	0100                	addi	s0,sp,128
 93a:	18090503          	lb	a0,384(s2)
 93e:	0100                	addi	s0,sp,128
 940:	18090503          	lb	a0,384(s2)
 944:	0100                	addi	s0,sp,128
 946:	18090503          	lb	a0,384(s2)
 94a:	0100                	addi	s0,sp,128
 94c:	18090503          	lb	a0,384(s2)
 950:	0100                	addi	s0,sp,128
 952:	14090503          	lb	a0,320(s2)
 956:	0100                	addi	s0,sp,128
 958:	18090503          	lb	a0,384(s2)
 95c:	0100                	addi	s0,sp,128
 95e:	18090503          	lb	a0,384(s2)
 962:	0100                	addi	s0,sp,128
 964:	18090503          	lb	a0,384(s2)
 968:	0100                	addi	s0,sp,128
 96a:	18090503          	lb	a0,384(s2)
 96e:	0100                	addi	s0,sp,128
 970:	14090503          	lb	a0,320(s2)
 974:	0100                	addi	s0,sp,128
 976:	18090503          	lb	a0,384(s2)
 97a:	0100                	addi	s0,sp,128
 97c:	18090503          	lb	a0,384(s2)
 980:	0100                	addi	s0,sp,128
 982:	14090503          	lb	a0,320(s2)
 986:	0100                	addi	s0,sp,128
 988:	18090503          	lb	a0,384(s2)
 98c:	0100                	addi	s0,sp,128
 98e:	18090503          	lb	a0,384(s2)
 992:	0100                	addi	s0,sp,128
 994:	18090503          	lb	a0,384(s2)
 998:	0100                	addi	s0,sp,128
 99a:	18090503          	lb	a0,384(s2)
 99e:	0100                	addi	s0,sp,128
 9a0:	14090503          	lb	a0,320(s2)
 9a4:	0100                	addi	s0,sp,128
 9a6:	18090503          	lb	a0,384(s2)
 9aa:	0100                	addi	s0,sp,128
 9ac:	14090503          	lb	a0,320(s2)
 9b0:	0100                	addi	s0,sp,128
 9b2:	14090503          	lb	a0,320(s2)
 9b6:	0100                	addi	s0,sp,128
 9b8:	18090503          	lb	a0,384(s2)
 9bc:	0100                	addi	s0,sp,128
 9be:	18090503          	lb	a0,384(s2)
 9c2:	0100                	addi	s0,sp,128
 9c4:	18090503          	lb	a0,384(s2)
 9c8:	0100                	addi	s0,sp,128
 9ca:	18090503          	lb	a0,384(s2)
 9ce:	0100                	addi	s0,sp,128
 9d0:	18090503          	lb	a0,384(s2)
 9d4:	0100                	addi	s0,sp,128
 9d6:	14090503          	lb	a0,320(s2)
 9da:	0100                	addi	s0,sp,128
 9dc:	18090503          	lb	a0,384(s2)
 9e0:	0100                	addi	s0,sp,128
 9e2:	18090503          	lb	a0,384(s2)
 9e6:	0100                	addi	s0,sp,128
 9e8:	18090503          	lb	a0,384(s2)
 9ec:	0100                	addi	s0,sp,128
 9ee:	18090503          	lb	a0,384(s2)
 9f2:	0100                	addi	s0,sp,128
 9f4:	14090503          	lb	a0,320(s2)
 9f8:	0100                	addi	s0,sp,128
 9fa:	18090503          	lb	a0,384(s2)
 9fe:	0100                	addi	s0,sp,128
 a00:	18090503          	lb	a0,384(s2)
 a04:	0100                	addi	s0,sp,128
 a06:	14090503          	lb	a0,320(s2)
 a0a:	0100                	addi	s0,sp,128
 a0c:	18090503          	lb	a0,384(s2)
 a10:	0100                	addi	s0,sp,128
 a12:	18090503          	lb	a0,384(s2)
 a16:	0100                	addi	s0,sp,128
 a18:	18090503          	lb	a0,384(s2)
 a1c:	0100                	addi	s0,sp,128
 a1e:	18090503          	lb	a0,384(s2)
 a22:	0100                	addi	s0,sp,128
 a24:	14090503          	lb	a0,320(s2)
 a28:	0100                	addi	s0,sp,128
 a2a:	18090503          	lb	a0,384(s2)
 a2e:	0100                	addi	s0,sp,128
 a30:	14090503          	lb	a0,320(s2)
 a34:	0100                	addi	s0,sp,128
 a36:	14090503          	lb	a0,320(s2)
 a3a:	0100                	addi	s0,sp,128
 a3c:	18090503          	lb	a0,384(s2)
 a40:	0100                	addi	s0,sp,128
 a42:	18090503          	lb	a0,384(s2)
 a46:	0100                	addi	s0,sp,128
 a48:	18090503          	lb	a0,384(s2)
 a4c:	0100                	addi	s0,sp,128
 a4e:	18090503          	lb	a0,384(s2)
 a52:	0100                	addi	s0,sp,128
 a54:	18090503          	lb	a0,384(s2)
 a58:	0100                	addi	s0,sp,128
 a5a:	14090503          	lb	a0,320(s2)
 a5e:	0100                	addi	s0,sp,128
 a60:	18090503          	lb	a0,384(s2)
 a64:	0100                	addi	s0,sp,128
 a66:	18090503          	lb	a0,384(s2)
 a6a:	0100                	addi	s0,sp,128
 a6c:	18090503          	lb	a0,384(s2)
 a70:	0100                	addi	s0,sp,128
 a72:	18090503          	lb	a0,384(s2)
 a76:	0100                	addi	s0,sp,128
 a78:	14090503          	lb	a0,320(s2)
 a7c:	0100                	addi	s0,sp,128
 a7e:	18090503          	lb	a0,384(s2)
 a82:	0100                	addi	s0,sp,128
 a84:	18090503          	lb	a0,384(s2)
 a88:	0100                	addi	s0,sp,128
 a8a:	14090503          	lb	a0,320(s2)
 a8e:	0100                	addi	s0,sp,128
 a90:	18090503          	lb	a0,384(s2)
 a94:	0100                	addi	s0,sp,128
 a96:	18090503          	lb	a0,384(s2)
 a9a:	0100                	addi	s0,sp,128
 a9c:	18090503          	lb	a0,384(s2)
 aa0:	0100                	addi	s0,sp,128
 aa2:	18090503          	lb	a0,384(s2)
 aa6:	0100                	addi	s0,sp,128
 aa8:	14090503          	lb	a0,320(s2)
 aac:	0100                	addi	s0,sp,128
 aae:	18090503          	lb	a0,384(s2)
 ab2:	0100                	addi	s0,sp,128
 ab4:	14090503          	lb	a0,320(s2)
 ab8:	0100                	addi	s0,sp,128
 aba:	14090503          	lb	a0,320(s2)
 abe:	0100                	addi	s0,sp,128
 ac0:	18090503          	lb	a0,384(s2)
 ac4:	0100                	addi	s0,sp,128
 ac6:	18090503          	lb	a0,384(s2)
 aca:	0100                	addi	s0,sp,128
 acc:	18090503          	lb	a0,384(s2)
 ad0:	0100                	addi	s0,sp,128
 ad2:	18090503          	lb	a0,384(s2)
 ad6:	0100                	addi	s0,sp,128
 ad8:	18090503          	lb	a0,384(s2)
 adc:	0100                	addi	s0,sp,128
 ade:	14090503          	lb	a0,320(s2)
 ae2:	0100                	addi	s0,sp,128
 ae4:	18090503          	lb	a0,384(s2)
 ae8:	0100                	addi	s0,sp,128
 aea:	18090503          	lb	a0,384(s2)
 aee:	0100                	addi	s0,sp,128
 af0:	18090503          	lb	a0,384(s2)
 af4:	0100                	addi	s0,sp,128
 af6:	18090503          	lb	a0,384(s2)
 afa:	0100                	addi	s0,sp,128
 afc:	14090503          	lb	a0,320(s2)
 b00:	0100                	addi	s0,sp,128
 b02:	10090503          	lb	a0,256(s2)
 b06:	0100                	addi	s0,sp,128
 b08:	14090503          	lb	a0,320(s2)
 b0c:	0100                	addi	s0,sp,128
 b0e:	10090503          	lb	a0,256(s2)
 b12:	0100                	addi	s0,sp,128
 b14:	14090503          	lb	a0,320(s2)
 b18:	0100                	addi	s0,sp,128
 b1a:	14090503          	lb	a0,320(s2)
 b1e:	0100                	addi	s0,sp,128
 b20:	14090503          	lb	a0,320(s2)
 b24:	0100                	addi	s0,sp,128
 b26:	14090503          	lb	a0,320(s2)
 b2a:	0100                	addi	s0,sp,128
 b2c:	14090503          	lb	a0,320(s2)
 b30:	0100                	addi	s0,sp,128
 b32:	10090503          	lb	a0,256(s2)
 b36:	0100                	addi	s0,sp,128
 b38:	14090503          	lb	a0,320(s2)
 b3c:	0100                	addi	s0,sp,128
 b3e:	14090503          	lb	a0,320(s2)
 b42:	0100                	addi	s0,sp,128
 b44:	14090503          	lb	a0,320(s2)
 b48:	0100                	addi	s0,sp,128
 b4a:	14090503          	lb	a0,320(s2)
 b4e:	0100                	addi	s0,sp,128
 b50:	10090503          	lb	a0,256(s2)
 b54:	0100                	addi	s0,sp,128
 b56:	14090503          	lb	a0,320(s2)
 b5a:	0100                	addi	s0,sp,128
 b5c:	14090503          	lb	a0,320(s2)
 b60:	0100                	addi	s0,sp,128
 b62:	10090503          	lb	a0,256(s2)
 b66:	0100                	addi	s0,sp,128
 b68:	14090503          	lb	a0,320(s2)
 b6c:	0100                	addi	s0,sp,128
 b6e:	14090503          	lb	a0,320(s2)
 b72:	0100                	addi	s0,sp,128
 b74:	14090503          	lb	a0,320(s2)
 b78:	0100                	addi	s0,sp,128
 b7a:	14090503          	lb	a0,320(s2)
 b7e:	0100                	addi	s0,sp,128
 b80:	10090503          	lb	a0,256(s2)
 b84:	0100                	addi	s0,sp,128
 b86:	14090503          	lb	a0,320(s2)
 b8a:	0100                	addi	s0,sp,128
 b8c:	10090503          	lb	a0,256(s2)
 b90:	0100                	addi	s0,sp,128
 b92:	10090503          	lb	a0,256(s2)
 b96:	0100                	addi	s0,sp,128
 b98:	14090503          	lb	a0,320(s2)
 b9c:	0100                	addi	s0,sp,128
 b9e:	14090503          	lb	a0,320(s2)
 ba2:	0100                	addi	s0,sp,128
 ba4:	14090503          	lb	a0,320(s2)
 ba8:	0100                	addi	s0,sp,128
 baa:	14090503          	lb	a0,320(s2)
 bae:	0100                	addi	s0,sp,128
 bb0:	14090503          	lb	a0,320(s2)
 bb4:	0100                	addi	s0,sp,128
 bb6:	10090503          	lb	a0,256(s2)
 bba:	0100                	addi	s0,sp,128
 bbc:	14090503          	lb	a0,320(s2)
 bc0:	0100                	addi	s0,sp,128
 bc2:	14090503          	lb	a0,320(s2)
 bc6:	0100                	addi	s0,sp,128
 bc8:	14090503          	lb	a0,320(s2)
 bcc:	0100                	addi	s0,sp,128
 bce:	14090503          	lb	a0,320(s2)
 bd2:	0100                	addi	s0,sp,128
 bd4:	14090503          	lb	a0,320(s2)
 bd8:	0100                	addi	s0,sp,128
 bda:	18090503          	lb	a0,384(s2)
 bde:	0100                	addi	s0,sp,128
 be0:	18090503          	lb	a0,384(s2)
 be4:	0100                	addi	s0,sp,128
 be6:	14090503          	lb	a0,320(s2)
 bea:	0100                	addi	s0,sp,128
 bec:	18090503          	lb	a0,384(s2)
 bf0:	0100                	addi	s0,sp,128
 bf2:	18090503          	lb	a0,384(s2)
 bf6:	0100                	addi	s0,sp,128
 bf8:	18090503          	lb	a0,384(s2)
 bfc:	0100                	addi	s0,sp,128
 bfe:	18090503          	lb	a0,384(s2)
 c02:	0100                	addi	s0,sp,128
 c04:	14090503          	lb	a0,320(s2)
 c08:	0100                	addi	s0,sp,128
 c0a:	18090503          	lb	a0,384(s2)
 c0e:	0100                	addi	s0,sp,128
 c10:	14090503          	lb	a0,320(s2)
 c14:	0100                	addi	s0,sp,128
 c16:	14090503          	lb	a0,320(s2)
 c1a:	0100                	addi	s0,sp,128
 c1c:	18090503          	lb	a0,384(s2)
 c20:	0100                	addi	s0,sp,128
 c22:	18090503          	lb	a0,384(s2)
 c26:	0100                	addi	s0,sp,128
 c28:	18090503          	lb	a0,384(s2)
 c2c:	0100                	addi	s0,sp,128
 c2e:	18090503          	lb	a0,384(s2)
 c32:	0100                	addi	s0,sp,128
 c34:	18090503          	lb	a0,384(s2)
 c38:	0100                	addi	s0,sp,128
 c3a:	14090503          	lb	a0,320(s2)
 c3e:	0100                	addi	s0,sp,128
 c40:	18090503          	lb	a0,384(s2)
 c44:	0100                	addi	s0,sp,128
 c46:	18090503          	lb	a0,384(s2)
 c4a:	0100                	addi	s0,sp,128
 c4c:	18090503          	lb	a0,384(s2)
 c50:	0100                	addi	s0,sp,128
 c52:	18090503          	lb	a0,384(s2)
 c56:	0100                	addi	s0,sp,128
 c58:	14090503          	lb	a0,320(s2)
 c5c:	0100                	addi	s0,sp,128
 c5e:	18090503          	lb	a0,384(s2)
 c62:	0100                	addi	s0,sp,128
 c64:	18090503          	lb	a0,384(s2)
 c68:	0100                	addi	s0,sp,128
 c6a:	14090503          	lb	a0,320(s2)
 c6e:	0100                	addi	s0,sp,128
 c70:	18090503          	lb	a0,384(s2)
 c74:	0100                	addi	s0,sp,128
 c76:	18090503          	lb	a0,384(s2)
 c7a:	0100                	addi	s0,sp,128
 c7c:	18090503          	lb	a0,384(s2)
 c80:	0100                	addi	s0,sp,128
 c82:	18090503          	lb	a0,384(s2)
 c86:	0100                	addi	s0,sp,128
 c88:	14090503          	lb	a0,320(s2)
 c8c:	0100                	addi	s0,sp,128
 c8e:	18090503          	lb	a0,384(s2)
 c92:	0100                	addi	s0,sp,128
 c94:	14090503          	lb	a0,320(s2)
 c98:	0100                	addi	s0,sp,128
 c9a:	14090503          	lb	a0,320(s2)
 c9e:	0100                	addi	s0,sp,128
 ca0:	18090503          	lb	a0,384(s2)
 ca4:	0100                	addi	s0,sp,128
 ca6:	18090503          	lb	a0,384(s2)
 caa:	0100                	addi	s0,sp,128
 cac:	18090503          	lb	a0,384(s2)
 cb0:	0100                	addi	s0,sp,128
 cb2:	18090503          	lb	a0,384(s2)
 cb6:	0100                	addi	s0,sp,128
 cb8:	18090503          	lb	a0,384(s2)
 cbc:	0100                	addi	s0,sp,128
 cbe:	14090503          	lb	a0,320(s2)
 cc2:	0100                	addi	s0,sp,128
 cc4:	18090503          	lb	a0,384(s2)
 cc8:	0100                	addi	s0,sp,128
 cca:	18090503          	lb	a0,384(s2)
 cce:	0100                	addi	s0,sp,128
 cd0:	18090503          	lb	a0,384(s2)
 cd4:	0100                	addi	s0,sp,128
 cd6:	18090503          	lb	a0,384(s2)
 cda:	0100                	addi	s0,sp,128
 cdc:	14090503          	lb	a0,320(s2)
 ce0:	0100                	addi	s0,sp,128
 ce2:	18090503          	lb	a0,384(s2)
 ce6:	0100                	addi	s0,sp,128
 ce8:	18090503          	lb	a0,384(s2)
 cec:	0100                	addi	s0,sp,128
 cee:	14090503          	lb	a0,320(s2)
 cf2:	0100                	addi	s0,sp,128
 cf4:	18090503          	lb	a0,384(s2)
 cf8:	0100                	addi	s0,sp,128
 cfa:	18090503          	lb	a0,384(s2)
 cfe:	0100                	addi	s0,sp,128
 d00:	18090503          	lb	a0,384(s2)
 d04:	0100                	addi	s0,sp,128
 d06:	18090503          	lb	a0,384(s2)
 d0a:	0100                	addi	s0,sp,128
 d0c:	14090103          	lb	sp,320(s2)
 d10:	0100                	addi	s0,sp,128
 d12:	08090503          	lb	a0,128(s2)
 d16:	0100                	addi	s0,sp,128
 d18:	18090503          	lb	a0,384(s2)
 d1c:	0100                	addi	s0,sp,128
 d1e:	14090503          	lb	a0,320(s2)
 d22:	0100                	addi	s0,sp,128
 d24:	14090503          	lb	a0,320(s2)
 d28:	0100                	addi	s0,sp,128
 d2a:	18090503          	lb	a0,384(s2)
 d2e:	0100                	addi	s0,sp,128
 d30:	18090503          	lb	a0,384(s2)
 d34:	0100                	addi	s0,sp,128
 d36:	18090503          	lb	a0,384(s2)
 d3a:	0100                	addi	s0,sp,128
 d3c:	18090503          	lb	a0,384(s2)
 d40:	0100                	addi	s0,sp,128
 d42:	18090503          	lb	a0,384(s2)
 d46:	0100                	addi	s0,sp,128
 d48:	14090503          	lb	a0,320(s2)
 d4c:	0100                	addi	s0,sp,128
 d4e:	18090503          	lb	a0,384(s2)
 d52:	0100                	addi	s0,sp,128
 d54:	18090503          	lb	a0,384(s2)
 d58:	0100                	addi	s0,sp,128
 d5a:	18090503          	lb	a0,384(s2)
 d5e:	0100                	addi	s0,sp,128
 d60:	18090503          	lb	a0,384(s2)
 d64:	0100                	addi	s0,sp,128
 d66:	14090503          	lb	a0,320(s2)
 d6a:	0100                	addi	s0,sp,128
 d6c:	18090503          	lb	a0,384(s2)
 d70:	0100                	addi	s0,sp,128
 d72:	18090503          	lb	a0,384(s2)
 d76:	0100                	addi	s0,sp,128
 d78:	14090503          	lb	a0,320(s2)
 d7c:	0100                	addi	s0,sp,128
 d7e:	18090503          	lb	a0,384(s2)
 d82:	0100                	addi	s0,sp,128
 d84:	18090503          	lb	a0,384(s2)
 d88:	0100                	addi	s0,sp,128
 d8a:	18090503          	lb	a0,384(s2)
 d8e:	0100                	addi	s0,sp,128
 d90:	18090503          	lb	a0,384(s2)
 d94:	0100                	addi	s0,sp,128
 d96:	18090503          	lb	a0,384(s2)
 d9a:	0100                	addi	s0,sp,128
 d9c:	14090503          	lb	a0,320(s2)
 da0:	0100                	addi	s0,sp,128
 da2:	14090503          	lb	a0,320(s2)
 da6:	0100                	addi	s0,sp,128
 da8:	18090503          	lb	a0,384(s2)
 dac:	0100                	addi	s0,sp,128
 dae:	18090503          	lb	a0,384(s2)
 db2:	0100                	addi	s0,sp,128
 db4:	18090503          	lb	a0,384(s2)
 db8:	0100                	addi	s0,sp,128
 dba:	18090503          	lb	a0,384(s2)
 dbe:	0100                	addi	s0,sp,128
 dc0:	18090503          	lb	a0,384(s2)
 dc4:	0100                	addi	s0,sp,128
 dc6:	14090503          	lb	a0,320(s2)
 dca:	0100                	addi	s0,sp,128
 dcc:	18090503          	lb	a0,384(s2)
 dd0:	0100                	addi	s0,sp,128
 dd2:	18090503          	lb	a0,384(s2)
 dd6:	0100                	addi	s0,sp,128
 dd8:	18090503          	lb	a0,384(s2)
 ddc:	0100                	addi	s0,sp,128
 dde:	18090503          	lb	a0,384(s2)
 de2:	0100                	addi	s0,sp,128
 de4:	14090503          	lb	a0,320(s2)
 de8:	0100                	addi	s0,sp,128
 dea:	18090503          	lb	a0,384(s2)
 dee:	0100                	addi	s0,sp,128
 df0:	18090503          	lb	a0,384(s2)
 df4:	0100                	addi	s0,sp,128
 df6:	14090503          	lb	a0,320(s2)
 dfa:	0100                	addi	s0,sp,128
 dfc:	18090503          	lb	a0,384(s2)
 e00:	0100                	addi	s0,sp,128
 e02:	18090503          	lb	a0,384(s2)
 e06:	0100                	addi	s0,sp,128
 e08:	18090503          	lb	a0,384(s2)
 e0c:	0100                	addi	s0,sp,128
 e0e:	18090503          	lb	a0,384(s2)
 e12:	0100                	addi	s0,sp,128
 e14:	14090503          	lb	a0,320(s2)
 e18:	0100                	addi	s0,sp,128
 e1a:	18090503          	lb	a0,384(s2)
 e1e:	0100                	addi	s0,sp,128
 e20:	14090503          	lb	a0,320(s2)
 e24:	0100                	addi	s0,sp,128
 e26:	14090503          	lb	a0,320(s2)
 e2a:	0100                	addi	s0,sp,128
 e2c:	18090503          	lb	a0,384(s2)
 e30:	0100                	addi	s0,sp,128
 e32:	18090503          	lb	a0,384(s2)
 e36:	0100                	addi	s0,sp,128
 e38:	18090503          	lb	a0,384(s2)
 e3c:	0100                	addi	s0,sp,128
 e3e:	18090503          	lb	a0,384(s2)
 e42:	0100                	addi	s0,sp,128
 e44:	14090503          	lb	a0,320(s2)
 e48:	0100                	addi	s0,sp,128
 e4a:	10090503          	lb	a0,256(s2)
 e4e:	0100                	addi	s0,sp,128
 e50:	18090503          	lb	a0,384(s2)
 e54:	0100                	addi	s0,sp,128
 e56:	14090503          	lb	a0,320(s2)
 e5a:	0100                	addi	s0,sp,128
 e5c:	18090403          	lb	s0,384(s2)
 e60:	0100                	addi	s0,sp,128
 e62:	04090103          	lb	sp,64(s2)
 e66:	0100                	addi	s0,sp,128
 e68:	1009                	c.nop	-30
 e6a:	0000                	unimp
 e6c:	0101                	addi	sp,sp,0

Disassembly of section .debug_info:

00000000 <.debug_info>:
   0:	0022                	c.slli	zero,0x8
   2:	0000                	unimp
   4:	0002                	c.slli64	zero
   6:	0000                	unimp
   8:	0000                	unimp
   a:	0104                	addi	s1,sp,128
   c:	0000                	unimp
   e:	0000                	unimp
  10:	0000                	unimp
  12:	8000                	0x8000
  14:	317c                	fld	fa5,224(a0)
  16:	8000                	0x8000
  18:	0000                	unimp
  1a:	0000                	unimp
  1c:	005e                	c.slli	zero,0x17
  1e:	0000                	unimp
  20:	000000ab          	0xab
  24:	8001                	c.srli64	s0

Disassembly of section .debug_abbrev:

00000000 <.debug_abbrev>:
   0:	1101                	addi	sp,sp,-32
   2:	1000                	addi	s0,sp,32
   4:	1106                	slli	sp,sp,0x21
   6:	1201                	addi	tp,tp,-32
   8:	0301                	addi	t1,t1,0
   a:	1b0e                	slli	s6,s6,0x23
   c:	250e                	fld	fa0,192(sp)
   e:	130e                	slli	t1,t1,0x23
  10:	0005                	c.nop	1
	...

Disassembly of section .debug_aranges:

00000000 <.debug_aranges>:
   0:	001c                	0x1c
   2:	0000                	unimp
   4:	0002                	c.slli64	zero
   6:	0000                	unimp
   8:	0000                	unimp
   a:	0004                	0x4
   c:	0000                	unimp
   e:	0000                	unimp
  10:	0000                	unimp
  12:	8000                	0x8000
  14:	317c                	fld	fa5,224(a0)
	...

Disassembly of section .debug_str:

00000000 <.debug_str>:
   0:	6d6f682f          	0x6d6f682f
   4:	2f65                	jal	7bc <offset+0x6e0>
   6:	6f6c                	flw	fa1,92(a4)
   8:	6976                	flw	fs2,92(sp)
   a:	65442f73          	csrrs	t5,0x654,s0
   e:	6f746b73          	csrrsi	s6,0x6f7,8
  12:	2f70                	fld	fa2,216(a4)
  14:	6952                	flw	fs2,20(sp)
  16:	6556                	flw	fa0,84(sp)
  18:	5f72                	lw	t5,60(sp)
  1a:	65726f63          	bltu	tp,s7,678 <offset+0x59c>
  1e:	7369722f          	0x7369722f
  22:	2f666f63          	bltu	a2,s6,320 <offset+0x244>
  26:	6972                	flw	fs2,28(sp)
  28:	2d766373          	csrrsi	t1,0x2d7,12
  2c:	7261                	lui	tp,0xffff8
  2e:	742d6863          	bltu	s10,sp,77e <offset+0x6a2>
  32:	7365                	lui	t1,0xffff9
  34:	2f74                	fld	fa3,216(a4)
  36:	6972                	flw	fs2,28(sp)
  38:	2d766373          	csrrsi	t1,0x2d7,12
  3c:	6574                	flw	fa3,76(a0)
  3e:	732d7473          	csrrci	s0,0x732,26
  42:	6975                	lui	s2,0x1d
  44:	6574                	flw	fa3,76(a0)
  46:	3376722f          	0x3376722f
  4a:	6932                	flw	fs2,12(sp)
  4c:	6d5f 4d2f 732f      	0x732f4d2f6d5f
  52:	6372                	flw	ft6,28(sp)
  54:	6d65722f          	0x6d65722f
  58:	302d                	jal	fffff882 <imm12+0x82>
  5a:	2e31                	jal	376 <offset+0x29a>
  5c:	682f0053          	0x682f0053
  60:	2f656d6f          	jal	s10,56356 <absimm+0x55b56>
  64:	6f6c                	flw	fa1,92(a4)
  66:	6976                	flw	fs2,92(sp)
  68:	65442f73          	csrrs	t5,0x654,s0
  6c:	6f746b73          	csrrsi	s6,0x6f7,8
  70:	2f70                	fld	fa2,216(a4)
  72:	6952                	flw	fs2,20(sp)
  74:	6556                	flw	fa0,84(sp)
  76:	5f72                	lw	t5,60(sp)
  78:	65726f63          	bltu	tp,s7,6d6 <offset+0x5fa>
  7c:	7369722f          	0x7369722f
  80:	2f666f63          	bltu	a2,s6,37e <offset+0x2a2>
  84:	6972                	flw	fs2,28(sp)
  86:	666f6373          	csrrsi	t1,0x666,30
  8a:	775f 726f 2f6b      	0x2f6b726f775f
  90:	7672                	flw	fa2,60(sp)
  92:	5f693233          	0x5f693233
  96:	2f6d                	jal	850 <absimm+0x50>
  98:	2f4d                	jal	84a <absimm+0x4a>
  9a:	2f637273          	csrrci	tp,0x2f6,6
  9e:	6572                	flw	fa0,28(sp)
  a0:	2d6d                	jal	75a <offset+0x67e>
  a2:	3130                	fld	fa2,96(a0)
  a4:	532e                	lw	t1,232(sp)
  a6:	7475642f          	0x7475642f
  aa:	4700                	lw	s0,8(a4)
  ac:	554e                	lw	a0,240(sp)
  ae:	4120                	lw	s0,64(a0)
  b0:	2e322053          	0x2e322053
  b4:	          	snez	a0,zero
