
my.elf:     file format elf32-littleriscv


Disassembly of section .text.init:

80000000 <rvtest_entry_point>:
80000000:	feedc0b7          	lui	ra,0xfeedc
80000004:	ead08093          	addi	ra,ra,-339 # feedbead <imm12+0xfeedbeae>
80000008:	ff76e137          	lui	sp,0xff76e
8000000c:	f5610113          	addi	sp,sp,-170 # ff76df56 <imm12+0xff76df57>
80000010:	7fbb71b7          	lui	gp,0x7fbb7
80000014:	fab18193          	addi	gp,gp,-85 # 7fbb6fab <absimm+0x7f9b6fab>
80000018:	bfddb237          	lui	tp,0xbfddb
8000001c:	7d520213          	addi	tp,tp,2005 # bfddb7d5 <imm12+0xbfddb7d6>
80000020:	00000297          	auipc	t0,0x0
80000024:	05828293          	addi	t0,t0,88 # 80000078 <rvtest_code_begin>
80000028:	00004317          	auipc	t1,0x4
8000002c:	fe830313          	addi	t1,t1,-24 # 80004010 <rvtest_data_begin>
80000030:	b7fbb3b7          	lui	t2,0xb7fbb
80000034:	6fa38393          	addi	t2,t2,1786 # b7fbb6fa <imm12+0xb7fbb6fb>
80000038:	5bfde437          	lui	s0,0x5bfde
8000003c:	b7d40413          	addi	s0,s0,-1155 # 5bfddb7d <absimm+0x5bdddb7d>
80000040:	adfef4b7          	lui	s1,0xadfef
80000044:	dbe48493          	addi	s1,s1,-578 # adfeedbe <imm12+0xadfeedbf>
80000048:	56ff7537          	lui	a0,0x56ff7
8000004c:	6df50513          	addi	a0,a0,1759 # 56ff76df <absimm+0x56df76df>
80000050:	ab7fc5b7          	lui	a1,0xab7fc
80000054:	b6f58593          	addi	a1,a1,-1169 # ab7fbb6f <imm12+0xab7fbb70>
80000058:	d5bfe637          	lui	a2,0xd5bfe
8000005c:	db760613          	addi	a2,a2,-585 # d5bfddb7 <imm12+0xd5bfddb8>
80000060:	eadff6b7          	lui	a3,0xeadff
80000064:	edb68693          	addi	a3,a3,-293 # eadfeedb <imm12+0xeadfeedc>
80000068:	f56ff737          	lui	a4,0xf56ff
8000006c:	76d70713          	addi	a4,a4,1901 # f56ff76d <imm12+0xf56ff76e>
80000070:	fab807b7          	lui	a5,0xfab80
80000074:	bb678793          	addi	a5,a5,-1098 # fab7fbb6 <imm12+0xfab7fbb7>

80000078 <rvtest_code_begin>:
80000078:	00005717          	auipc	a4,0x5
8000007c:	09c70713          	addi	a4,a4,156 # 80005114 <signature_x14_0>

80000080 <inst_0>:
80000080:	20000a37          	lui	s4,0x20000
80000084:	800a0393          	addi	t2,s4,-2048 # 1ffff800 <absimm+0x1fdff800>
80000088:	00772023          	sw	t2,0(a4)

8000008c <inst_1>:
8000008c:	40000193          	li	gp,1024
80000090:	00018193          	mv	gp,gp
80000094:	00372223          	sw	gp,4(a4)

80000098 <inst_2>:
80000098:	dff00213          	li	tp,-513
8000009c:	7ff20b13          	addi	s6,tp,2047 # 7ff <absimmsh+0x1>
800000a0:	01672423          	sw	s6,8(a4)

800000a4 <inst_3>:
800000a4:	00000f13          	li	t5,0
800000a8:	001f0593          	addi	a1,t5,1
800000ac:	00b72623          	sw	a1,12(a4)

800000b0 <inst_4>:
800000b0:	80000db7          	lui	s11,0x80000
800000b4:	010d8f93          	addi	t6,s11,16 # 80000010 <imm12+0x80000011>
800000b8:	01f72823          	sw	t6,16(a4)

800000bc <inst_5>:
800000bc:	800008b7          	lui	a7,0x80000
800000c0:	fff88893          	addi	a7,a7,-1 # 7fffffff <imm12+0x80000000>
800000c4:	00688f13          	addi	t5,a7,6
800000c8:	01e72a23          	sw	t5,20(a4)

800000cc <inst_6>:
800000cc:	00100913          	li	s2,1
800000d0:	00490e13          	addi	t3,s2,4
800000d4:	01c72c23          	sw	t3,24(a4)

800000d8 <inst_7>:
800000d8:	00500693          	li	a3,5
800000dc:	00568313          	addi	t1,a3,5
800000e0:	00672e23          	sw	t1,28(a4)

800000e4 <inst_8>:
800000e4:	aaaab537          	lui	a0,0xaaaab
800000e8:	aab50513          	addi	a0,a0,-1365 # aaaaaaab <imm12+0xaaaaaaac>
800000ec:	fdf50813          	addi	a6,a0,-33
800000f0:	03072023          	sw	a6,32(a4)

800000f4 <inst_9>:
800000f4:	fef00493          	li	s1,-17
800000f8:	00248a93          	addi	s5,s1,2
800000fc:	03572223          	sw	s5,36(a4)

80000100 <inst_10>:
80000100:	0000b3b7          	lui	t2,0xb
80000104:	50538393          	addi	t2,t2,1285 # b505 <absimmsh+0xad07>
80000108:	00838113          	addi	sp,t2,8
8000010c:	02272423          	sw	sp,40(a4)

80000110 <inst_11>:
80000110:	ffff5b37          	lui	s6,0xffff5
80000114:	afcb0b13          	addi	s6,s6,-1284 # ffff4afc <imm12+0xffff4afd>
80000118:	020b0913          	addi	s2,s6,32
8000011c:	03272623          	sw	s2,44(a4)

80000120 <inst_12>:
80000120:	ffe00eb7          	lui	t4,0xffe00
80000124:	fffe8e93          	addi	t4,t4,-1 # ffdfffff <imm12+0xffe00000>
80000128:	040e8013          	addi	zero,t4,64
8000012c:	02072823          	sw	zero,48(a4)

80000130 <inst_13>:
80000130:	00500c93          	li	s9,5
80000134:	080c8693          	addi	a3,s9,128
80000138:	02d72a23          	sw	a3,52(a4)

8000013c <inst_14>:
8000013c:	fe0005b7          	lui	a1,0xfe000
80000140:	fff58593          	addi	a1,a1,-1 # fdffffff <imm12+0xfe000000>
80000144:	10058e93          	addi	t4,a1,256
80000148:	03d72c23          	sw	t4,56(a4)

8000014c <inst_15>:
8000014c:	01000313          	li	t1,16
80000150:	20030413          	addi	s0,t1,512
80000154:	02872e23          	sw	s0,60(a4)

80000158 <inst_16>:
80000158:	00200993          	li	s3,2
8000015c:	40098213          	addi	tp,s3,1024
80000160:	04472023          	sw	tp,64(a4)

80000164 <inst_17>:
80000164:	55555637          	lui	a2,0x55555
80000168:	55460613          	addi	a2,a2,1364 # 55555554 <absimm+0x55355554>
8000016c:	ffe60513          	addi	a0,a2,-2
80000170:	04a72223          	sw	a0,68(a4)

80000174 <inst_18>:
80000174:	55555fb7          	lui	t6,0x55555
80000178:	555f8f93          	addi	t6,t6,1365 # 55555555 <absimm+0x55355555>
8000017c:	ffdf8d13          	addi	s10,t6,-3
80000180:	05a72423          	sw	s10,72(a4)

80000184 <inst_19>:
80000184:	55555d37          	lui	s10,0x55555
80000188:	554d0d13          	addi	s10,s10,1364 # 55555554 <absimm+0x55355554>
8000018c:	ffbd0793          	addi	a5,s10,-5
80000190:	04f72623          	sw	a5,76(a4)

80000194 <inst_20>:
80000194:	00300293          	li	t0,3
80000198:	ff728993          	addi	s3,t0,-9
8000019c:	05372823          	sw	s3,80(a4)

800001a0 <inst_21>:
800001a0:	00000013          	nop
800001a4:	fef00093          	li	ra,-17
800001a8:	04172a23          	sw	ra,84(a4)
800001ac:	00005197          	auipc	gp,0x5
800001b0:	fc018193          	addi	gp,gp,-64 # 8000516c <signature_x3_0>

800001b4 <inst_22>:
800001b4:	00800c37          	lui	s8,0x800
800001b8:	fbfc0b93          	addi	s7,s8,-65 # 7fffbf <absimm+0x5fffbf>
800001bc:	0171a023          	sw	s7,0(gp)

800001c0 <inst_23>:
800001c0:	fef00793          	li	a5,-17
800001c4:	f7f78d93          	addi	s11,a5,-129
800001c8:	01b1a223          	sw	s11,4(gp)

800001cc <inst_24>:
800001cc:	55555737          	lui	a4,0x55555
800001d0:	55570713          	addi	a4,a4,1365 # 55555555 <absimm+0x55355555>
800001d4:	eff70893          	addi	a7,a4,-257
800001d8:	0111a423          	sw	a7,8(gp)

800001dc <inst_25>:
800001dc:	55555ab7          	lui	s5,0x55555
800001e0:	556a8a93          	addi	s5,s5,1366 # 55555556 <absimm+0x55355556>
800001e4:	dffa8c93          	addi	s9,s5,-513
800001e8:	0191a623          	sw	s9,12(gp)

800001ec <inst_26>:
800001ec:	000020b7          	lui	ra,0x2
800001f0:	bff08c13          	addi	s8,ra,-1025 # 1bff <absimmsh+0x1401>
800001f4:	0181a823          	sw	s8,16(gp)

800001f8 <inst_27>:
800001f8:	aaaab837          	lui	a6,0xaaaab
800001fc:	aaa80813          	addi	a6,a6,-1366 # aaaaaaaa <imm12+0xaaaaaaab>
80000200:	55580613          	addi	a2,a6,1365
80000204:	00c1aa23          	sw	a2,20(gp)

80000208 <inst_28>:
80000208:	00000113          	li	sp,0
8000020c:	aaa10713          	addi	a4,sp,-1366
80000210:	00e1ac23          	sw	a4,24(gp)

80000214 <inst_29>:
80000214:	00400b93          	li	s7,4
80000218:	004b8a13          	addi	s4,s7,4
8000021c:	0141ae23          	sw	s4,28(gp)

80000220 <inst_30>:
80000220:	00800e13          	li	t3,8
80000224:	010e0293          	addi	t0,t3,16
80000228:	0251a023          	sw	t0,32(gp)

8000022c <inst_31>:
8000022c:	02000413          	li	s0,32
80000230:	fd440493          	addi	s1,s0,-44
80000234:	0291a223          	sw	s1,36(gp)

80000238 <inst_32>:
80000238:	04000513          	li	a0,64
8000023c:	fbf50593          	addi	a1,a0,-65
80000240:	02b1a423          	sw	a1,40(gp)

80000244 <inst_33>:
80000244:	08000513          	li	a0,128
80000248:	00550593          	addi	a1,a0,5
8000024c:	02b1a623          	sw	a1,44(gp)

80000250 <inst_34>:
80000250:	10000513          	li	a0,256
80000254:	c0050593          	addi	a1,a0,-1024
80000258:	02b1a823          	sw	a1,48(gp)

8000025c <inst_35>:
8000025c:	20000513          	li	a0,512
80000260:	10050593          	addi	a1,a0,256
80000264:	02b1aa23          	sw	a1,52(gp)

80000268 <inst_36>:
80000268:	00001537          	lui	a0,0x1
8000026c:	80050513          	addi	a0,a0,-2048 # 800 <absimmsh+0x2>
80000270:	ff650593          	addi	a1,a0,-10
80000274:	02b1ac23          	sw	a1,56(gp)

80000278 <inst_37>:
80000278:	00001537          	lui	a0,0x1
8000027c:	04050593          	addi	a1,a0,64 # 1040 <absimmsh+0x842>
80000280:	02b1ae23          	sw	a1,60(gp)

80000284 <inst_38>:
80000284:	00004537          	lui	a0,0x4
80000288:	33250593          	addi	a1,a0,818 # 4332 <absimmsh+0x3b34>
8000028c:	04b1a023          	sw	a1,64(gp)

80000290 <inst_39>:
80000290:	00008537          	lui	a0,0x8
80000294:	c0050593          	addi	a1,a0,-1024 # 7c00 <absimmsh+0x7402>
80000298:	04b1a223          	sw	a1,68(gp)

8000029c <inst_40>:
8000029c:	00010537          	lui	a0,0x10
800002a0:	eff50593          	addi	a1,a0,-257 # feff <absimmsh+0xf701>
800002a4:	04b1a423          	sw	a1,72(gp)

800002a8 <inst_41>:
800002a8:	00020537          	lui	a0,0x20
800002ac:	00450593          	addi	a1,a0,4 # 20004 <absimmsh+0x1f806>
800002b0:	04b1a623          	sw	a1,76(gp)

800002b4 <inst_42>:
800002b4:	00040537          	lui	a0,0x40
800002b8:	00050593          	mv	a1,a0
800002bc:	04b1a823          	sw	a1,80(gp)

800002c0 <inst_43>:
800002c0:	00080537          	lui	a0,0x80
800002c4:	00550593          	addi	a1,a0,5 # 80005 <absimmsh+0x7f807>
800002c8:	04b1aa23          	sw	a1,84(gp)

800002cc <inst_44>:
800002cc:	00100537          	lui	a0,0x100
800002d0:	02c50593          	addi	a1,a0,44 # 10002c <absimmsh+0xff82e>
800002d4:	04b1ac23          	sw	a1,88(gp)

800002d8 <inst_45>:
800002d8:	00200537          	lui	a0,0x200
800002dc:	ffc50593          	addi	a1,a0,-4 # 1ffffc <absimmsh+0x1ff7fe>
800002e0:	04b1ae23          	sw	a1,92(gp)

800002e4 <inst_46>:
800002e4:	00400537          	lui	a0,0x400
800002e8:	02e50593          	addi	a1,a0,46 # 40002e <absimm+0x20002e>
800002ec:	06b1a023          	sw	a1,96(gp)

800002f0 <inst_47>:
800002f0:	01000537          	lui	a0,0x1000
800002f4:	c0050593          	addi	a1,a0,-1024 # fffc00 <absimm+0xdffc00>
800002f8:	06b1a223          	sw	a1,100(gp)

800002fc <inst_48>:
800002fc:	02000537          	lui	a0,0x2000
80000300:	fef50593          	addi	a1,a0,-17 # 1ffffef <absimm+0x1dfffef>
80000304:	06b1a423          	sw	a1,104(gp)

80000308 <inst_49>:
80000308:	04000537          	lui	a0,0x4000
8000030c:	ffe50593          	addi	a1,a0,-2 # 3fffffe <absimm+0x3dffffe>
80000310:	06b1a623          	sw	a1,108(gp)

80000314 <inst_50>:
80000314:	08000537          	lui	a0,0x8000
80000318:	00350593          	addi	a1,a0,3 # 8000003 <absimm+0x7e00003>
8000031c:	06b1a823          	sw	a1,112(gp)

80000320 <inst_51>:
80000320:	10000537          	lui	a0,0x10000
80000324:	f7f50593          	addi	a1,a0,-129 # fffff7f <absimm+0xfdfff7f>
80000328:	06b1aa23          	sw	a1,116(gp)

8000032c <inst_52>:
8000032c:	40000537          	lui	a0,0x40000
80000330:	ffe50593          	addi	a1,a0,-2 # 3ffffffe <absimm+0x3fdffffe>
80000334:	06b1ac23          	sw	a1,120(gp)

80000338 <inst_53>:
80000338:	ffe00513          	li	a0,-2
8000033c:	dff50593          	addi	a1,a0,-513
80000340:	06b1ae23          	sw	a1,124(gp)

80000344 <inst_54>:
80000344:	ffd00513          	li	a0,-3
80000348:	ff750593          	addi	a1,a0,-9
8000034c:	08b1a023          	sw	a1,128(gp)

80000350 <inst_55>:
80000350:	ffb00513          	li	a0,-5
80000354:	fd350593          	addi	a1,a0,-45
80000358:	08b1a223          	sw	a1,132(gp)

8000035c <inst_56>:
8000035c:	ff700513          	li	a0,-9
80000360:	33450593          	addi	a1,a0,820
80000364:	08b1a423          	sw	a1,136(gp)

80000368 <inst_57>:
80000368:	fdf00513          	li	a0,-33
8000036c:	ffb50593          	addi	a1,a0,-5
80000370:	08b1a623          	sw	a1,140(gp)

80000374 <inst_58>:
80000374:	fbf00513          	li	a0,-65
80000378:	ff750593          	addi	a1,a0,-9
8000037c:	08b1a823          	sw	a1,144(gp)

80000380 <inst_59>:
80000380:	f7f00513          	li	a0,-129
80000384:	fef50593          	addi	a1,a0,-17
80000388:	08b1aa23          	sw	a1,148(gp)

8000038c <inst_60>:
8000038c:	eff00513          	li	a0,-257
80000390:	20050593          	addi	a1,a0,512
80000394:	08b1ac23          	sw	a1,152(gp)

80000398 <inst_61>:
80000398:	bff00513          	li	a0,-1025
8000039c:	fd450593          	addi	a1,a0,-44
800003a0:	08b1ae23          	sw	a1,156(gp)

800003a4 <inst_62>:
800003a4:	fffff537          	lui	a0,0xfffff
800003a8:	7ff50513          	addi	a0,a0,2047 # fffff7ff <imm12+0xfffff800>
800003ac:	00450593          	addi	a1,a0,4
800003b0:	0ab1a023          	sw	a1,160(gp)

800003b4 <inst_63>:
800003b4:	fffff537          	lui	a0,0xfffff
800003b8:	fff50513          	addi	a0,a0,-1 # ffffefff <imm12+0xfffff000>
800003bc:	00850593          	addi	a1,a0,8
800003c0:	0ab1a223          	sw	a1,164(gp)

800003c4 <inst_64>:
800003c4:	ffffe537          	lui	a0,0xffffe
800003c8:	fff50513          	addi	a0,a0,-1 # ffffdfff <imm12+0xffffe000>
800003cc:	dff50593          	addi	a1,a0,-513
800003d0:	0ab1a423          	sw	a1,168(gp)

800003d4 <inst_65>:
800003d4:	ffffc537          	lui	a0,0xffffc
800003d8:	fff50513          	addi	a0,a0,-1 # ffffbfff <imm12+0xffffc000>
800003dc:	40050593          	addi	a1,a0,1024
800003e0:	0ab1a623          	sw	a1,172(gp)

800003e4 <inst_66>:
800003e4:	ffff8537          	lui	a0,0xffff8
800003e8:	fff50513          	addi	a0,a0,-1 # ffff7fff <imm12+0xffff8000>
800003ec:	aaa50593          	addi	a1,a0,-1366
800003f0:	0ab1a823          	sw	a1,176(gp)

800003f4 <inst_67>:
800003f4:	ffff0537          	lui	a0,0xffff0
800003f8:	fff50513          	addi	a0,a0,-1 # fffeffff <imm12+0xffff0000>
800003fc:	00750593          	addi	a1,a0,7
80000400:	0ab1aa23          	sw	a1,180(gp)

80000404 <inst_68>:
80000404:	fffe0537          	lui	a0,0xfffe0
80000408:	fff50513          	addi	a0,a0,-1 # fffdffff <imm12+0xfffe0000>
8000040c:	08050593          	addi	a1,a0,128
80000410:	0ab1ac23          	sw	a1,184(gp)

80000414 <inst_69>:
80000414:	fffc0537          	lui	a0,0xfffc0
80000418:	fff50513          	addi	a0,a0,-1 # fffbffff <imm12+0xfffc0000>
8000041c:	00850593          	addi	a1,a0,8
80000420:	0ab1ae23          	sw	a1,188(gp)

80000424 <inst_70>:
80000424:	fff80537          	lui	a0,0xfff80
80000428:	fff50513          	addi	a0,a0,-1 # fff7ffff <imm12+0xfff80000>
8000042c:	80050593          	addi	a1,a0,-2048
80000430:	0cb1a023          	sw	a1,192(gp)

80000434 <inst_71>:
80000434:	fff00537          	lui	a0,0xfff00
80000438:	fff50513          	addi	a0,a0,-1 # ffefffff <imm12+0xfff00000>
8000043c:	fdf50593          	addi	a1,a0,-33
80000440:	0cb1a223          	sw	a1,196(gp)

80000444 <inst_72>:
80000444:	ffc00537          	lui	a0,0xffc00
80000448:	fff50513          	addi	a0,a0,-1 # ffbfffff <imm12+0xffc00000>
8000044c:	55450593          	addi	a1,a0,1364
80000450:	0cb1a423          	sw	a1,200(gp)

80000454 <inst_73>:
80000454:	ff800537          	lui	a0,0xff800
80000458:	fff50513          	addi	a0,a0,-1 # ff7fffff <imm12+0xff800000>
8000045c:	ff650593          	addi	a1,a0,-10
80000460:	0cb1a623          	sw	a1,204(gp)

80000464 <inst_74>:
80000464:	ff000537          	lui	a0,0xff000
80000468:	fff50513          	addi	a0,a0,-1 # feffffff <imm12+0xff000000>
8000046c:	02c50593          	addi	a1,a0,44
80000470:	0cb1a823          	sw	a1,208(gp)

80000474 <inst_75>:
80000474:	fc000537          	lui	a0,0xfc000
80000478:	fff50513          	addi	a0,a0,-1 # fbffffff <imm12+0xfc000000>
8000047c:	00650593          	addi	a1,a0,6
80000480:	0cb1aa23          	sw	a1,212(gp)

80000484 <inst_76>:
80000484:	f8000537          	lui	a0,0xf8000
80000488:	fff50513          	addi	a0,a0,-1 # f7ffffff <imm12+0xf8000000>
8000048c:	66650593          	addi	a1,a0,1638
80000490:	0cb1ac23          	sw	a1,216(gp)

80000494 <inst_77>:
80000494:	f0000537          	lui	a0,0xf0000
80000498:	fff50513          	addi	a0,a0,-1 # efffffff <imm12+0xf0000000>
8000049c:	02e50593          	addi	a1,a0,46
800004a0:	0cb1ae23          	sw	a1,220(gp)

800004a4 <inst_78>:
800004a4:	e0000537          	lui	a0,0xe0000
800004a8:	fff50513          	addi	a0,a0,-1 # dfffffff <imm12+0xe0000000>
800004ac:	00350593          	addi	a1,a0,3
800004b0:	0eb1a023          	sw	a1,224(gp)

800004b4 <inst_79>:
800004b4:	c0000537          	lui	a0,0xc0000
800004b8:	fff50513          	addi	a0,a0,-1 # bfffffff <imm12+0xc0000000>
800004bc:	66650593          	addi	a1,a0,1638
800004c0:	0eb1a223          	sw	a1,228(gp)

800004c4 <inst_80>:
800004c4:	00300513          	li	a0,3
800004c8:	00350593          	addi	a1,a0,3
800004cc:	0eb1a423          	sw	a1,232(gp)

800004d0 <inst_81>:
800004d0:	00300513          	li	a0,3
800004d4:	55550593          	addi	a1,a0,1365
800004d8:	0eb1a623          	sw	a1,236(gp)

800004dc <inst_82>:
800004dc:	00300513          	li	a0,3
800004e0:	aaa50593          	addi	a1,a0,-1366
800004e4:	0eb1a823          	sw	a1,240(gp)

800004e8 <inst_83>:
800004e8:	00300513          	li	a0,3
800004ec:	00550593          	addi	a1,a0,5
800004f0:	0eb1aa23          	sw	a1,244(gp)

800004f4 <inst_84>:
800004f4:	00300513          	li	a0,3
800004f8:	33350593          	addi	a1,a0,819
800004fc:	0eb1ac23          	sw	a1,248(gp)

80000500 <inst_85>:
80000500:	00300513          	li	a0,3
80000504:	66650593          	addi	a1,a0,1638
80000508:	0eb1ae23          	sw	a1,252(gp)

8000050c <inst_86>:
8000050c:	00300513          	li	a0,3
80000510:	fd350593          	addi	a1,a0,-45
80000514:	10b1a023          	sw	a1,256(gp)

80000518 <inst_87>:
80000518:	00300513          	li	a0,3
8000051c:	02d50593          	addi	a1,a0,45
80000520:	10b1a223          	sw	a1,260(gp)

80000524 <inst_88>:
80000524:	00300513          	li	a0,3
80000528:	00250593          	addi	a1,a0,2
8000052c:	10b1a423          	sw	a1,264(gp)

80000530 <inst_89>:
80000530:	00300513          	li	a0,3
80000534:	55450593          	addi	a1,a0,1364
80000538:	10b1a623          	sw	a1,268(gp)

8000053c <inst_90>:
8000053c:	00300513          	li	a0,3
80000540:	00050593          	mv	a1,a0
80000544:	10b1a823          	sw	a1,272(gp)

80000548 <inst_91>:
80000548:	00300513          	li	a0,3
8000054c:	00450593          	addi	a1,a0,4
80000550:	10b1aa23          	sw	a1,276(gp)

80000554 <inst_92>:
80000554:	00300513          	li	a0,3
80000558:	33250593          	addi	a1,a0,818
8000055c:	10b1ac23          	sw	a1,280(gp)

80000560 <inst_93>:
80000560:	00300513          	li	a0,3
80000564:	66550593          	addi	a1,a0,1637
80000568:	10b1ae23          	sw	a1,284(gp)

8000056c <inst_94>:
8000056c:	00300513          	li	a0,3
80000570:	02c50593          	addi	a1,a0,44
80000574:	12b1a023          	sw	a1,288(gp)

80000578 <inst_95>:
80000578:	00300513          	li	a0,3
8000057c:	55650593          	addi	a1,a0,1366
80000580:	12b1a223          	sw	a1,292(gp)

80000584 <inst_96>:
80000584:	00300513          	li	a0,3
80000588:	aab50593          	addi	a1,a0,-1365
8000058c:	12b1a423          	sw	a1,296(gp)

80000590 <inst_97>:
80000590:	00300513          	li	a0,3
80000594:	00650593          	addi	a1,a0,6
80000598:	12b1a623          	sw	a1,300(gp)

8000059c <inst_98>:
8000059c:	00300513          	li	a0,3
800005a0:	33450593          	addi	a1,a0,820
800005a4:	12b1a823          	sw	a1,304(gp)

800005a8 <inst_99>:
800005a8:	00300513          	li	a0,3
800005ac:	66750593          	addi	a1,a0,1639
800005b0:	12b1aa23          	sw	a1,308(gp)

800005b4 <inst_100>:
800005b4:	00300513          	li	a0,3
800005b8:	fd450593          	addi	a1,a0,-44
800005bc:	12b1ac23          	sw	a1,312(gp)

800005c0 <inst_101>:
800005c0:	00300513          	li	a0,3
800005c4:	02e50593          	addi	a1,a0,46
800005c8:	12b1ae23          	sw	a1,316(gp)

800005cc <inst_102>:
800005cc:	55555537          	lui	a0,0x55555
800005d0:	55550513          	addi	a0,a0,1365 # 55555555 <absimm+0x55355555>
800005d4:	00350593          	addi	a1,a0,3
800005d8:	14b1a023          	sw	a1,320(gp)

800005dc <inst_103>:
800005dc:	55555537          	lui	a0,0x55555
800005e0:	55550513          	addi	a0,a0,1365 # 55555555 <absimm+0x55355555>
800005e4:	55550593          	addi	a1,a0,1365
800005e8:	14b1a223          	sw	a1,324(gp)

800005ec <inst_104>:
800005ec:	55555537          	lui	a0,0x55555
800005f0:	55550513          	addi	a0,a0,1365 # 55555555 <absimm+0x55355555>
800005f4:	aaa50593          	addi	a1,a0,-1366
800005f8:	14b1a423          	sw	a1,328(gp)

800005fc <inst_105>:
800005fc:	55555537          	lui	a0,0x55555
80000600:	55550513          	addi	a0,a0,1365 # 55555555 <absimm+0x55355555>
80000604:	00550593          	addi	a1,a0,5
80000608:	14b1a623          	sw	a1,332(gp)

8000060c <inst_106>:
8000060c:	55555537          	lui	a0,0x55555
80000610:	55550513          	addi	a0,a0,1365 # 55555555 <absimm+0x55355555>
80000614:	33350593          	addi	a1,a0,819
80000618:	14b1a823          	sw	a1,336(gp)

8000061c <inst_107>:
8000061c:	55555537          	lui	a0,0x55555
80000620:	55550513          	addi	a0,a0,1365 # 55555555 <absimm+0x55355555>
80000624:	66650593          	addi	a1,a0,1638
80000628:	14b1aa23          	sw	a1,340(gp)

8000062c <inst_108>:
8000062c:	55555537          	lui	a0,0x55555
80000630:	55550513          	addi	a0,a0,1365 # 55555555 <absimm+0x55355555>
80000634:	fd350593          	addi	a1,a0,-45
80000638:	14b1ac23          	sw	a1,344(gp)

8000063c <inst_109>:
8000063c:	55555537          	lui	a0,0x55555
80000640:	55550513          	addi	a0,a0,1365 # 55555555 <absimm+0x55355555>
80000644:	02d50593          	addi	a1,a0,45
80000648:	14b1ae23          	sw	a1,348(gp)

8000064c <inst_110>:
8000064c:	55555537          	lui	a0,0x55555
80000650:	55550513          	addi	a0,a0,1365 # 55555555 <absimm+0x55355555>
80000654:	00250593          	addi	a1,a0,2
80000658:	16b1a023          	sw	a1,352(gp)

8000065c <inst_111>:
8000065c:	55555537          	lui	a0,0x55555
80000660:	55550513          	addi	a0,a0,1365 # 55555555 <absimm+0x55355555>
80000664:	55450593          	addi	a1,a0,1364
80000668:	16b1a223          	sw	a1,356(gp)

8000066c <inst_112>:
8000066c:	55555537          	lui	a0,0x55555
80000670:	55550513          	addi	a0,a0,1365 # 55555555 <absimm+0x55355555>
80000674:	00050593          	mv	a1,a0
80000678:	16b1a423          	sw	a1,360(gp)

8000067c <inst_113>:
8000067c:	55555537          	lui	a0,0x55555
80000680:	55550513          	addi	a0,a0,1365 # 55555555 <absimm+0x55355555>
80000684:	00450593          	addi	a1,a0,4
80000688:	16b1a623          	sw	a1,364(gp)

8000068c <inst_114>:
8000068c:	55555537          	lui	a0,0x55555
80000690:	55550513          	addi	a0,a0,1365 # 55555555 <absimm+0x55355555>
80000694:	33250593          	addi	a1,a0,818
80000698:	16b1a823          	sw	a1,368(gp)

8000069c <inst_115>:
8000069c:	55555537          	lui	a0,0x55555
800006a0:	55550513          	addi	a0,a0,1365 # 55555555 <absimm+0x55355555>
800006a4:	66550593          	addi	a1,a0,1637
800006a8:	16b1aa23          	sw	a1,372(gp)

800006ac <inst_116>:
800006ac:	55555537          	lui	a0,0x55555
800006b0:	55550513          	addi	a0,a0,1365 # 55555555 <absimm+0x55355555>
800006b4:	02c50593          	addi	a1,a0,44
800006b8:	16b1ac23          	sw	a1,376(gp)

800006bc <inst_117>:
800006bc:	55555537          	lui	a0,0x55555
800006c0:	55550513          	addi	a0,a0,1365 # 55555555 <absimm+0x55355555>
800006c4:	55650593          	addi	a1,a0,1366
800006c8:	16b1ae23          	sw	a1,380(gp)

800006cc <inst_118>:
800006cc:	55555537          	lui	a0,0x55555
800006d0:	55550513          	addi	a0,a0,1365 # 55555555 <absimm+0x55355555>
800006d4:	aab50593          	addi	a1,a0,-1365
800006d8:	18b1a023          	sw	a1,384(gp)

800006dc <inst_119>:
800006dc:	55555537          	lui	a0,0x55555
800006e0:	55550513          	addi	a0,a0,1365 # 55555555 <absimm+0x55355555>
800006e4:	00650593          	addi	a1,a0,6
800006e8:	18b1a223          	sw	a1,388(gp)

800006ec <inst_120>:
800006ec:	55555537          	lui	a0,0x55555
800006f0:	55550513          	addi	a0,a0,1365 # 55555555 <absimm+0x55355555>
800006f4:	33450593          	addi	a1,a0,820
800006f8:	18b1a423          	sw	a1,392(gp)

800006fc <inst_121>:
800006fc:	55555537          	lui	a0,0x55555
80000700:	55550513          	addi	a0,a0,1365 # 55555555 <absimm+0x55355555>
80000704:	66750593          	addi	a1,a0,1639
80000708:	18b1a623          	sw	a1,396(gp)

8000070c <inst_122>:
8000070c:	55555537          	lui	a0,0x55555
80000710:	55550513          	addi	a0,a0,1365 # 55555555 <absimm+0x55355555>
80000714:	fd450593          	addi	a1,a0,-44
80000718:	18b1a823          	sw	a1,400(gp)

8000071c <inst_123>:
8000071c:	55555537          	lui	a0,0x55555
80000720:	55550513          	addi	a0,a0,1365 # 55555555 <absimm+0x55355555>
80000724:	02e50593          	addi	a1,a0,46
80000728:	18b1aa23          	sw	a1,404(gp)

8000072c <inst_124>:
8000072c:	aaaab537          	lui	a0,0xaaaab
80000730:	aaa50513          	addi	a0,a0,-1366 # aaaaaaaa <imm12+0xaaaaaaab>
80000734:	00350593          	addi	a1,a0,3
80000738:	18b1ac23          	sw	a1,408(gp)

8000073c <inst_125>:
8000073c:	aaaab537          	lui	a0,0xaaaab
80000740:	aaa50513          	addi	a0,a0,-1366 # aaaaaaaa <imm12+0xaaaaaaab>
80000744:	aaa50593          	addi	a1,a0,-1366
80000748:	18b1ae23          	sw	a1,412(gp)

8000074c <inst_126>:
8000074c:	aaaab537          	lui	a0,0xaaaab
80000750:	aaa50513          	addi	a0,a0,-1366 # aaaaaaaa <imm12+0xaaaaaaab>
80000754:	00550593          	addi	a1,a0,5
80000758:	1ab1a023          	sw	a1,416(gp)

8000075c <inst_127>:
8000075c:	aaaab537          	lui	a0,0xaaaab
80000760:	aaa50513          	addi	a0,a0,-1366 # aaaaaaaa <imm12+0xaaaaaaab>
80000764:	33350593          	addi	a1,a0,819
80000768:	1ab1a223          	sw	a1,420(gp)

8000076c <inst_128>:
8000076c:	aaaab537          	lui	a0,0xaaaab
80000770:	aaa50513          	addi	a0,a0,-1366 # aaaaaaaa <imm12+0xaaaaaaab>
80000774:	66650593          	addi	a1,a0,1638
80000778:	1ab1a423          	sw	a1,424(gp)

8000077c <inst_129>:
8000077c:	aaaab537          	lui	a0,0xaaaab
80000780:	aaa50513          	addi	a0,a0,-1366 # aaaaaaaa <imm12+0xaaaaaaab>
80000784:	fd350593          	addi	a1,a0,-45
80000788:	1ab1a623          	sw	a1,428(gp)

8000078c <inst_130>:
8000078c:	aaaab537          	lui	a0,0xaaaab
80000790:	aaa50513          	addi	a0,a0,-1366 # aaaaaaaa <imm12+0xaaaaaaab>
80000794:	02d50593          	addi	a1,a0,45
80000798:	1ab1a823          	sw	a1,432(gp)

8000079c <inst_131>:
8000079c:	aaaab537          	lui	a0,0xaaaab
800007a0:	aaa50513          	addi	a0,a0,-1366 # aaaaaaaa <imm12+0xaaaaaaab>
800007a4:	00250593          	addi	a1,a0,2
800007a8:	1ab1aa23          	sw	a1,436(gp)

800007ac <inst_132>:
800007ac:	aaaab537          	lui	a0,0xaaaab
800007b0:	aaa50513          	addi	a0,a0,-1366 # aaaaaaaa <imm12+0xaaaaaaab>
800007b4:	55450593          	addi	a1,a0,1364
800007b8:	1ab1ac23          	sw	a1,440(gp)

800007bc <inst_133>:
800007bc:	aaaab537          	lui	a0,0xaaaab
800007c0:	aaa50513          	addi	a0,a0,-1366 # aaaaaaaa <imm12+0xaaaaaaab>
800007c4:	00050593          	mv	a1,a0
800007c8:	1ab1ae23          	sw	a1,444(gp)

800007cc <inst_134>:
800007cc:	aaaab537          	lui	a0,0xaaaab
800007d0:	aaa50513          	addi	a0,a0,-1366 # aaaaaaaa <imm12+0xaaaaaaab>
800007d4:	00450593          	addi	a1,a0,4
800007d8:	1cb1a023          	sw	a1,448(gp)

800007dc <inst_135>:
800007dc:	aaaab537          	lui	a0,0xaaaab
800007e0:	aaa50513          	addi	a0,a0,-1366 # aaaaaaaa <imm12+0xaaaaaaab>
800007e4:	33250593          	addi	a1,a0,818
800007e8:	1cb1a223          	sw	a1,452(gp)

800007ec <inst_136>:
800007ec:	aaaab537          	lui	a0,0xaaaab
800007f0:	aaa50513          	addi	a0,a0,-1366 # aaaaaaaa <imm12+0xaaaaaaab>
800007f4:	66550593          	addi	a1,a0,1637
800007f8:	1cb1a423          	sw	a1,456(gp)

800007fc <inst_137>:
800007fc:	aaaab537          	lui	a0,0xaaaab
80000800:	aaa50513          	addi	a0,a0,-1366 # aaaaaaaa <imm12+0xaaaaaaab>
80000804:	02c50593          	addi	a1,a0,44
80000808:	1cb1a623          	sw	a1,460(gp)

8000080c <inst_138>:
8000080c:	aaaab537          	lui	a0,0xaaaab
80000810:	aaa50513          	addi	a0,a0,-1366 # aaaaaaaa <imm12+0xaaaaaaab>
80000814:	55650593          	addi	a1,a0,1366
80000818:	1cb1a823          	sw	a1,464(gp)

8000081c <inst_139>:
8000081c:	aaaab537          	lui	a0,0xaaaab
80000820:	aaa50513          	addi	a0,a0,-1366 # aaaaaaaa <imm12+0xaaaaaaab>
80000824:	aab50593          	addi	a1,a0,-1365
80000828:	1cb1aa23          	sw	a1,468(gp)

8000082c <inst_140>:
8000082c:	aaaab537          	lui	a0,0xaaaab
80000830:	aaa50513          	addi	a0,a0,-1366 # aaaaaaaa <imm12+0xaaaaaaab>
80000834:	00650593          	addi	a1,a0,6
80000838:	1cb1ac23          	sw	a1,472(gp)

8000083c <inst_141>:
8000083c:	aaaab537          	lui	a0,0xaaaab
80000840:	aaa50513          	addi	a0,a0,-1366 # aaaaaaaa <imm12+0xaaaaaaab>
80000844:	33450593          	addi	a1,a0,820
80000848:	1cb1ae23          	sw	a1,476(gp)

8000084c <inst_142>:
8000084c:	aaaab537          	lui	a0,0xaaaab
80000850:	aaa50513          	addi	a0,a0,-1366 # aaaaaaaa <imm12+0xaaaaaaab>
80000854:	66750593          	addi	a1,a0,1639
80000858:	1eb1a023          	sw	a1,480(gp)

8000085c <inst_143>:
8000085c:	aaaab537          	lui	a0,0xaaaab
80000860:	aaa50513          	addi	a0,a0,-1366 # aaaaaaaa <imm12+0xaaaaaaab>
80000864:	fd450593          	addi	a1,a0,-44
80000868:	1eb1a223          	sw	a1,484(gp)

8000086c <inst_144>:
8000086c:	aaaab537          	lui	a0,0xaaaab
80000870:	aaa50513          	addi	a0,a0,-1366 # aaaaaaaa <imm12+0xaaaaaaab>
80000874:	02e50593          	addi	a1,a0,46
80000878:	1eb1a423          	sw	a1,488(gp)

8000087c <inst_145>:
8000087c:	00500513          	li	a0,5
80000880:	00350593          	addi	a1,a0,3
80000884:	1eb1a623          	sw	a1,492(gp)

80000888 <inst_146>:
80000888:	00500513          	li	a0,5
8000088c:	55550593          	addi	a1,a0,1365
80000890:	1eb1a823          	sw	a1,496(gp)

80000894 <inst_147>:
80000894:	00500513          	li	a0,5
80000898:	aaa50593          	addi	a1,a0,-1366
8000089c:	1eb1aa23          	sw	a1,500(gp)

800008a0 <inst_148>:
800008a0:	00500513          	li	a0,5
800008a4:	33350593          	addi	a1,a0,819
800008a8:	1eb1ac23          	sw	a1,504(gp)

800008ac <inst_149>:
800008ac:	00500513          	li	a0,5
800008b0:	66650593          	addi	a1,a0,1638
800008b4:	1eb1ae23          	sw	a1,508(gp)

800008b8 <inst_150>:
800008b8:	00500513          	li	a0,5
800008bc:	fd350593          	addi	a1,a0,-45
800008c0:	20b1a023          	sw	a1,512(gp)

800008c4 <inst_151>:
800008c4:	00500513          	li	a0,5
800008c8:	02d50593          	addi	a1,a0,45
800008cc:	20b1a223          	sw	a1,516(gp)

800008d0 <inst_152>:
800008d0:	00500513          	li	a0,5
800008d4:	00250593          	addi	a1,a0,2
800008d8:	20b1a423          	sw	a1,520(gp)

800008dc <inst_153>:
800008dc:	00500513          	li	a0,5
800008e0:	55450593          	addi	a1,a0,1364
800008e4:	20b1a623          	sw	a1,524(gp)

800008e8 <inst_154>:
800008e8:	00500513          	li	a0,5
800008ec:	00050593          	mv	a1,a0
800008f0:	20b1a823          	sw	a1,528(gp)

800008f4 <inst_155>:
800008f4:	00500513          	li	a0,5
800008f8:	00450593          	addi	a1,a0,4
800008fc:	20b1aa23          	sw	a1,532(gp)

80000900 <inst_156>:
80000900:	00500513          	li	a0,5
80000904:	33250593          	addi	a1,a0,818
80000908:	20b1ac23          	sw	a1,536(gp)

8000090c <inst_157>:
8000090c:	00500513          	li	a0,5
80000910:	66550593          	addi	a1,a0,1637
80000914:	20b1ae23          	sw	a1,540(gp)

80000918 <inst_158>:
80000918:	00500513          	li	a0,5
8000091c:	02c50593          	addi	a1,a0,44
80000920:	22b1a023          	sw	a1,544(gp)

80000924 <inst_159>:
80000924:	00500513          	li	a0,5
80000928:	55650593          	addi	a1,a0,1366
8000092c:	22b1a223          	sw	a1,548(gp)

80000930 <inst_160>:
80000930:	00500513          	li	a0,5
80000934:	aab50593          	addi	a1,a0,-1365
80000938:	22b1a423          	sw	a1,552(gp)

8000093c <inst_161>:
8000093c:	00500513          	li	a0,5
80000940:	00650593          	addi	a1,a0,6
80000944:	22b1a623          	sw	a1,556(gp)

80000948 <inst_162>:
80000948:	00500513          	li	a0,5
8000094c:	33450593          	addi	a1,a0,820
80000950:	22b1a823          	sw	a1,560(gp)

80000954 <inst_163>:
80000954:	00500513          	li	a0,5
80000958:	66750593          	addi	a1,a0,1639
8000095c:	22b1aa23          	sw	a1,564(gp)

80000960 <inst_164>:
80000960:	00500513          	li	a0,5
80000964:	fd450593          	addi	a1,a0,-44
80000968:	22b1ac23          	sw	a1,568(gp)

8000096c <inst_165>:
8000096c:	00500513          	li	a0,5
80000970:	02e50593          	addi	a1,a0,46
80000974:	22b1ae23          	sw	a1,572(gp)

80000978 <inst_166>:
80000978:	33333537          	lui	a0,0x33333
8000097c:	33350513          	addi	a0,a0,819 # 33333333 <absimm+0x33133333>
80000980:	00350593          	addi	a1,a0,3
80000984:	24b1a023          	sw	a1,576(gp)

80000988 <inst_167>:
80000988:	33333537          	lui	a0,0x33333
8000098c:	33350513          	addi	a0,a0,819 # 33333333 <absimm+0x33133333>
80000990:	55550593          	addi	a1,a0,1365
80000994:	24b1a223          	sw	a1,580(gp)

80000998 <inst_168>:
80000998:	33333537          	lui	a0,0x33333
8000099c:	33350513          	addi	a0,a0,819 # 33333333 <absimm+0x33133333>
800009a0:	aaa50593          	addi	a1,a0,-1366
800009a4:	24b1a423          	sw	a1,584(gp)

800009a8 <inst_169>:
800009a8:	33333537          	lui	a0,0x33333
800009ac:	33350513          	addi	a0,a0,819 # 33333333 <absimm+0x33133333>
800009b0:	00550593          	addi	a1,a0,5
800009b4:	24b1a623          	sw	a1,588(gp)

800009b8 <inst_170>:
800009b8:	33333537          	lui	a0,0x33333
800009bc:	33350513          	addi	a0,a0,819 # 33333333 <absimm+0x33133333>
800009c0:	33350593          	addi	a1,a0,819
800009c4:	24b1a823          	sw	a1,592(gp)

800009c8 <inst_171>:
800009c8:	33333537          	lui	a0,0x33333
800009cc:	33350513          	addi	a0,a0,819 # 33333333 <absimm+0x33133333>
800009d0:	66650593          	addi	a1,a0,1638
800009d4:	24b1aa23          	sw	a1,596(gp)

800009d8 <inst_172>:
800009d8:	33333537          	lui	a0,0x33333
800009dc:	33350513          	addi	a0,a0,819 # 33333333 <absimm+0x33133333>
800009e0:	fd350593          	addi	a1,a0,-45
800009e4:	24b1ac23          	sw	a1,600(gp)

800009e8 <inst_173>:
800009e8:	33333537          	lui	a0,0x33333
800009ec:	33350513          	addi	a0,a0,819 # 33333333 <absimm+0x33133333>
800009f0:	02d50593          	addi	a1,a0,45
800009f4:	24b1ae23          	sw	a1,604(gp)

800009f8 <inst_174>:
800009f8:	33333537          	lui	a0,0x33333
800009fc:	33350513          	addi	a0,a0,819 # 33333333 <absimm+0x33133333>
80000a00:	00250593          	addi	a1,a0,2
80000a04:	26b1a023          	sw	a1,608(gp)

80000a08 <inst_175>:
80000a08:	33333537          	lui	a0,0x33333
80000a0c:	33350513          	addi	a0,a0,819 # 33333333 <absimm+0x33133333>
80000a10:	55450593          	addi	a1,a0,1364
80000a14:	26b1a223          	sw	a1,612(gp)

80000a18 <inst_176>:
80000a18:	33333537          	lui	a0,0x33333
80000a1c:	33350513          	addi	a0,a0,819 # 33333333 <absimm+0x33133333>
80000a20:	00050593          	mv	a1,a0
80000a24:	26b1a423          	sw	a1,616(gp)

80000a28 <inst_177>:
80000a28:	33333537          	lui	a0,0x33333
80000a2c:	33350513          	addi	a0,a0,819 # 33333333 <absimm+0x33133333>
80000a30:	00450593          	addi	a1,a0,4
80000a34:	26b1a623          	sw	a1,620(gp)

80000a38 <inst_178>:
80000a38:	33333537          	lui	a0,0x33333
80000a3c:	33350513          	addi	a0,a0,819 # 33333333 <absimm+0x33133333>
80000a40:	33250593          	addi	a1,a0,818
80000a44:	26b1a823          	sw	a1,624(gp)

80000a48 <inst_179>:
80000a48:	33333537          	lui	a0,0x33333
80000a4c:	33350513          	addi	a0,a0,819 # 33333333 <absimm+0x33133333>
80000a50:	66550593          	addi	a1,a0,1637
80000a54:	26b1aa23          	sw	a1,628(gp)

80000a58 <inst_180>:
80000a58:	33333537          	lui	a0,0x33333
80000a5c:	33350513          	addi	a0,a0,819 # 33333333 <absimm+0x33133333>
80000a60:	02c50593          	addi	a1,a0,44
80000a64:	26b1ac23          	sw	a1,632(gp)

80000a68 <inst_181>:
80000a68:	33333537          	lui	a0,0x33333
80000a6c:	33350513          	addi	a0,a0,819 # 33333333 <absimm+0x33133333>
80000a70:	55650593          	addi	a1,a0,1366
80000a74:	26b1ae23          	sw	a1,636(gp)

80000a78 <inst_182>:
80000a78:	33333537          	lui	a0,0x33333
80000a7c:	33350513          	addi	a0,a0,819 # 33333333 <absimm+0x33133333>
80000a80:	aab50593          	addi	a1,a0,-1365
80000a84:	28b1a023          	sw	a1,640(gp)

80000a88 <inst_183>:
80000a88:	33333537          	lui	a0,0x33333
80000a8c:	33350513          	addi	a0,a0,819 # 33333333 <absimm+0x33133333>
80000a90:	00650593          	addi	a1,a0,6
80000a94:	28b1a223          	sw	a1,644(gp)

80000a98 <inst_184>:
80000a98:	33333537          	lui	a0,0x33333
80000a9c:	33350513          	addi	a0,a0,819 # 33333333 <absimm+0x33133333>
80000aa0:	33450593          	addi	a1,a0,820
80000aa4:	28b1a423          	sw	a1,648(gp)

80000aa8 <inst_185>:
80000aa8:	33333537          	lui	a0,0x33333
80000aac:	33350513          	addi	a0,a0,819 # 33333333 <absimm+0x33133333>
80000ab0:	66750593          	addi	a1,a0,1639
80000ab4:	28b1a623          	sw	a1,652(gp)

80000ab8 <inst_186>:
80000ab8:	33333537          	lui	a0,0x33333
80000abc:	33350513          	addi	a0,a0,819 # 33333333 <absimm+0x33133333>
80000ac0:	fd450593          	addi	a1,a0,-44
80000ac4:	28b1a823          	sw	a1,656(gp)

80000ac8 <inst_187>:
80000ac8:	33333537          	lui	a0,0x33333
80000acc:	33350513          	addi	a0,a0,819 # 33333333 <absimm+0x33133333>
80000ad0:	02e50593          	addi	a1,a0,46
80000ad4:	28b1aa23          	sw	a1,660(gp)

80000ad8 <inst_188>:
80000ad8:	66666537          	lui	a0,0x66666
80000adc:	66650513          	addi	a0,a0,1638 # 66666666 <absimm+0x66466666>
80000ae0:	00350593          	addi	a1,a0,3
80000ae4:	28b1ac23          	sw	a1,664(gp)

80000ae8 <inst_189>:
80000ae8:	66666537          	lui	a0,0x66666
80000aec:	66650513          	addi	a0,a0,1638 # 66666666 <absimm+0x66466666>
80000af0:	55550593          	addi	a1,a0,1365
80000af4:	28b1ae23          	sw	a1,668(gp)

80000af8 <inst_190>:
80000af8:	66666537          	lui	a0,0x66666
80000afc:	66650513          	addi	a0,a0,1638 # 66666666 <absimm+0x66466666>
80000b00:	aaa50593          	addi	a1,a0,-1366
80000b04:	2ab1a023          	sw	a1,672(gp)

80000b08 <inst_191>:
80000b08:	66666537          	lui	a0,0x66666
80000b0c:	66650513          	addi	a0,a0,1638 # 66666666 <absimm+0x66466666>
80000b10:	00550593          	addi	a1,a0,5
80000b14:	2ab1a223          	sw	a1,676(gp)

80000b18 <inst_192>:
80000b18:	66666537          	lui	a0,0x66666
80000b1c:	66650513          	addi	a0,a0,1638 # 66666666 <absimm+0x66466666>
80000b20:	33350593          	addi	a1,a0,819
80000b24:	2ab1a423          	sw	a1,680(gp)

80000b28 <inst_193>:
80000b28:	66666537          	lui	a0,0x66666
80000b2c:	66650513          	addi	a0,a0,1638 # 66666666 <absimm+0x66466666>
80000b30:	66650593          	addi	a1,a0,1638
80000b34:	2ab1a623          	sw	a1,684(gp)

80000b38 <inst_194>:
80000b38:	66666537          	lui	a0,0x66666
80000b3c:	66650513          	addi	a0,a0,1638 # 66666666 <absimm+0x66466666>
80000b40:	fd350593          	addi	a1,a0,-45
80000b44:	2ab1a823          	sw	a1,688(gp)

80000b48 <inst_195>:
80000b48:	66666537          	lui	a0,0x66666
80000b4c:	66650513          	addi	a0,a0,1638 # 66666666 <absimm+0x66466666>
80000b50:	02d50593          	addi	a1,a0,45
80000b54:	2ab1aa23          	sw	a1,692(gp)

80000b58 <inst_196>:
80000b58:	66666537          	lui	a0,0x66666
80000b5c:	66650513          	addi	a0,a0,1638 # 66666666 <absimm+0x66466666>
80000b60:	00250593          	addi	a1,a0,2
80000b64:	2ab1ac23          	sw	a1,696(gp)

80000b68 <inst_197>:
80000b68:	66666537          	lui	a0,0x66666
80000b6c:	66650513          	addi	a0,a0,1638 # 66666666 <absimm+0x66466666>
80000b70:	55450593          	addi	a1,a0,1364
80000b74:	2ab1ae23          	sw	a1,700(gp)

80000b78 <inst_198>:
80000b78:	66666537          	lui	a0,0x66666
80000b7c:	66650513          	addi	a0,a0,1638 # 66666666 <absimm+0x66466666>
80000b80:	00050593          	mv	a1,a0
80000b84:	2cb1a023          	sw	a1,704(gp)

80000b88 <inst_199>:
80000b88:	66666537          	lui	a0,0x66666
80000b8c:	66650513          	addi	a0,a0,1638 # 66666666 <absimm+0x66466666>
80000b90:	00450593          	addi	a1,a0,4
80000b94:	2cb1a223          	sw	a1,708(gp)

80000b98 <inst_200>:
80000b98:	66666537          	lui	a0,0x66666
80000b9c:	66650513          	addi	a0,a0,1638 # 66666666 <absimm+0x66466666>
80000ba0:	33250593          	addi	a1,a0,818
80000ba4:	2cb1a423          	sw	a1,712(gp)

80000ba8 <inst_201>:
80000ba8:	66666537          	lui	a0,0x66666
80000bac:	66650513          	addi	a0,a0,1638 # 66666666 <absimm+0x66466666>
80000bb0:	66550593          	addi	a1,a0,1637
80000bb4:	2cb1a623          	sw	a1,716(gp)

80000bb8 <inst_202>:
80000bb8:	66666537          	lui	a0,0x66666
80000bbc:	66650513          	addi	a0,a0,1638 # 66666666 <absimm+0x66466666>
80000bc0:	02c50593          	addi	a1,a0,44
80000bc4:	2cb1a823          	sw	a1,720(gp)

80000bc8 <inst_203>:
80000bc8:	66666537          	lui	a0,0x66666
80000bcc:	66650513          	addi	a0,a0,1638 # 66666666 <absimm+0x66466666>
80000bd0:	55650593          	addi	a1,a0,1366
80000bd4:	2cb1aa23          	sw	a1,724(gp)

80000bd8 <inst_204>:
80000bd8:	66666537          	lui	a0,0x66666
80000bdc:	66650513          	addi	a0,a0,1638 # 66666666 <absimm+0x66466666>
80000be0:	aab50593          	addi	a1,a0,-1365
80000be4:	2cb1ac23          	sw	a1,728(gp)

80000be8 <inst_205>:
80000be8:	66666537          	lui	a0,0x66666
80000bec:	66650513          	addi	a0,a0,1638 # 66666666 <absimm+0x66466666>
80000bf0:	00650593          	addi	a1,a0,6
80000bf4:	2cb1ae23          	sw	a1,732(gp)

80000bf8 <inst_206>:
80000bf8:	66666537          	lui	a0,0x66666
80000bfc:	66650513          	addi	a0,a0,1638 # 66666666 <absimm+0x66466666>
80000c00:	33450593          	addi	a1,a0,820
80000c04:	2eb1a023          	sw	a1,736(gp)

80000c08 <inst_207>:
80000c08:	66666537          	lui	a0,0x66666
80000c0c:	66650513          	addi	a0,a0,1638 # 66666666 <absimm+0x66466666>
80000c10:	66750593          	addi	a1,a0,1639
80000c14:	2eb1a223          	sw	a1,740(gp)

80000c18 <inst_208>:
80000c18:	66666537          	lui	a0,0x66666
80000c1c:	66650513          	addi	a0,a0,1638 # 66666666 <absimm+0x66466666>
80000c20:	fd450593          	addi	a1,a0,-44
80000c24:	2eb1a423          	sw	a1,744(gp)

80000c28 <inst_209>:
80000c28:	66666537          	lui	a0,0x66666
80000c2c:	66650513          	addi	a0,a0,1638 # 66666666 <absimm+0x66466666>
80000c30:	02e50593          	addi	a1,a0,46
80000c34:	2eb1a623          	sw	a1,748(gp)

80000c38 <inst_210>:
80000c38:	ffff5537          	lui	a0,0xffff5
80000c3c:	afc50513          	addi	a0,a0,-1284 # ffff4afc <imm12+0xffff4afd>
80000c40:	00350593          	addi	a1,a0,3
80000c44:	2eb1a823          	sw	a1,752(gp)

80000c48 <inst_211>:
80000c48:	ffff5537          	lui	a0,0xffff5
80000c4c:	afc50513          	addi	a0,a0,-1284 # ffff4afc <imm12+0xffff4afd>
80000c50:	55550593          	addi	a1,a0,1365
80000c54:	2eb1aa23          	sw	a1,756(gp)

80000c58 <inst_212>:
80000c58:	ffff5537          	lui	a0,0xffff5
80000c5c:	afc50513          	addi	a0,a0,-1284 # ffff4afc <imm12+0xffff4afd>
80000c60:	aaa50593          	addi	a1,a0,-1366
80000c64:	2eb1ac23          	sw	a1,760(gp)

80000c68 <inst_213>:
80000c68:	ffff5537          	lui	a0,0xffff5
80000c6c:	afc50513          	addi	a0,a0,-1284 # ffff4afc <imm12+0xffff4afd>
80000c70:	00550593          	addi	a1,a0,5
80000c74:	2eb1ae23          	sw	a1,764(gp)

80000c78 <inst_214>:
80000c78:	ffff5537          	lui	a0,0xffff5
80000c7c:	afc50513          	addi	a0,a0,-1284 # ffff4afc <imm12+0xffff4afd>
80000c80:	33350593          	addi	a1,a0,819
80000c84:	30b1a023          	sw	a1,768(gp)

80000c88 <inst_215>:
80000c88:	ffff5537          	lui	a0,0xffff5
80000c8c:	afc50513          	addi	a0,a0,-1284 # ffff4afc <imm12+0xffff4afd>
80000c90:	66650593          	addi	a1,a0,1638
80000c94:	30b1a223          	sw	a1,772(gp)

80000c98 <inst_216>:
80000c98:	ffff5537          	lui	a0,0xffff5
80000c9c:	afc50513          	addi	a0,a0,-1284 # ffff4afc <imm12+0xffff4afd>
80000ca0:	fd350593          	addi	a1,a0,-45
80000ca4:	30b1a423          	sw	a1,776(gp)

80000ca8 <inst_217>:
80000ca8:	ffff5537          	lui	a0,0xffff5
80000cac:	afc50513          	addi	a0,a0,-1284 # ffff4afc <imm12+0xffff4afd>
80000cb0:	02d50593          	addi	a1,a0,45
80000cb4:	30b1a623          	sw	a1,780(gp)

80000cb8 <inst_218>:
80000cb8:	ffff5537          	lui	a0,0xffff5
80000cbc:	afc50513          	addi	a0,a0,-1284 # ffff4afc <imm12+0xffff4afd>
80000cc0:	00250593          	addi	a1,a0,2
80000cc4:	30b1a823          	sw	a1,784(gp)

80000cc8 <inst_219>:
80000cc8:	ffff5537          	lui	a0,0xffff5
80000ccc:	afc50513          	addi	a0,a0,-1284 # ffff4afc <imm12+0xffff4afd>
80000cd0:	55450593          	addi	a1,a0,1364
80000cd4:	30b1aa23          	sw	a1,788(gp)

80000cd8 <inst_220>:
80000cd8:	ffff5537          	lui	a0,0xffff5
80000cdc:	afc50513          	addi	a0,a0,-1284 # ffff4afc <imm12+0xffff4afd>
80000ce0:	00050593          	mv	a1,a0
80000ce4:	30b1ac23          	sw	a1,792(gp)

80000ce8 <inst_221>:
80000ce8:	ffff5537          	lui	a0,0xffff5
80000cec:	afc50513          	addi	a0,a0,-1284 # ffff4afc <imm12+0xffff4afd>
80000cf0:	00450593          	addi	a1,a0,4
80000cf4:	30b1ae23          	sw	a1,796(gp)

80000cf8 <inst_222>:
80000cf8:	ffff5537          	lui	a0,0xffff5
80000cfc:	afc50513          	addi	a0,a0,-1284 # ffff4afc <imm12+0xffff4afd>
80000d00:	33250593          	addi	a1,a0,818
80000d04:	32b1a023          	sw	a1,800(gp)

80000d08 <inst_223>:
80000d08:	ffff5537          	lui	a0,0xffff5
80000d0c:	afc50513          	addi	a0,a0,-1284 # ffff4afc <imm12+0xffff4afd>
80000d10:	66550593          	addi	a1,a0,1637
80000d14:	32b1a223          	sw	a1,804(gp)

80000d18 <inst_224>:
80000d18:	ffff5537          	lui	a0,0xffff5
80000d1c:	afc50513          	addi	a0,a0,-1284 # ffff4afc <imm12+0xffff4afd>
80000d20:	02c50593          	addi	a1,a0,44
80000d24:	32b1a423          	sw	a1,808(gp)

80000d28 <inst_225>:
80000d28:	ffff5537          	lui	a0,0xffff5
80000d2c:	afc50513          	addi	a0,a0,-1284 # ffff4afc <imm12+0xffff4afd>
80000d30:	55650593          	addi	a1,a0,1366
80000d34:	32b1a623          	sw	a1,812(gp)

80000d38 <inst_226>:
80000d38:	ffff5537          	lui	a0,0xffff5
80000d3c:	afc50513          	addi	a0,a0,-1284 # ffff4afc <imm12+0xffff4afd>
80000d40:	aab50593          	addi	a1,a0,-1365
80000d44:	32b1a823          	sw	a1,816(gp)

80000d48 <inst_227>:
80000d48:	ffff5537          	lui	a0,0xffff5
80000d4c:	afc50513          	addi	a0,a0,-1284 # ffff4afc <imm12+0xffff4afd>
80000d50:	00650593          	addi	a1,a0,6
80000d54:	32b1aa23          	sw	a1,820(gp)

80000d58 <inst_228>:
80000d58:	ffff5537          	lui	a0,0xffff5
80000d5c:	afc50513          	addi	a0,a0,-1284 # ffff4afc <imm12+0xffff4afd>
80000d60:	33450593          	addi	a1,a0,820
80000d64:	32b1ac23          	sw	a1,824(gp)

80000d68 <inst_229>:
80000d68:	ffff5537          	lui	a0,0xffff5
80000d6c:	afc50513          	addi	a0,a0,-1284 # ffff4afc <imm12+0xffff4afd>
80000d70:	66750593          	addi	a1,a0,1639
80000d74:	32b1ae23          	sw	a1,828(gp)

80000d78 <inst_230>:
80000d78:	ffff5537          	lui	a0,0xffff5
80000d7c:	afc50513          	addi	a0,a0,-1284 # ffff4afc <imm12+0xffff4afd>
80000d80:	fd450593          	addi	a1,a0,-44
80000d84:	34b1a023          	sw	a1,832(gp)

80000d88 <inst_231>:
80000d88:	ffff5537          	lui	a0,0xffff5
80000d8c:	afc50513          	addi	a0,a0,-1284 # ffff4afc <imm12+0xffff4afd>
80000d90:	02e50593          	addi	a1,a0,46
80000d94:	34b1a223          	sw	a1,836(gp)

80000d98 <inst_232>:
80000d98:	0000b537          	lui	a0,0xb
80000d9c:	50450513          	addi	a0,a0,1284 # b504 <absimmsh+0xad06>
80000da0:	00350593          	addi	a1,a0,3
80000da4:	34b1a423          	sw	a1,840(gp)

80000da8 <inst_233>:
80000da8:	0000b537          	lui	a0,0xb
80000dac:	50450513          	addi	a0,a0,1284 # b504 <absimmsh+0xad06>
80000db0:	55550593          	addi	a1,a0,1365
80000db4:	34b1a623          	sw	a1,844(gp)

80000db8 <inst_234>:
80000db8:	0000b537          	lui	a0,0xb
80000dbc:	50450513          	addi	a0,a0,1284 # b504 <absimmsh+0xad06>
80000dc0:	aaa50593          	addi	a1,a0,-1366
80000dc4:	34b1a823          	sw	a1,848(gp)

80000dc8 <inst_235>:
80000dc8:	0000b537          	lui	a0,0xb
80000dcc:	50450513          	addi	a0,a0,1284 # b504 <absimmsh+0xad06>
80000dd0:	00550593          	addi	a1,a0,5
80000dd4:	34b1aa23          	sw	a1,852(gp)

80000dd8 <inst_236>:
80000dd8:	0000b537          	lui	a0,0xb
80000ddc:	50450513          	addi	a0,a0,1284 # b504 <absimmsh+0xad06>
80000de0:	33350593          	addi	a1,a0,819
80000de4:	34b1ac23          	sw	a1,856(gp)

80000de8 <inst_237>:
80000de8:	0000b537          	lui	a0,0xb
80000dec:	50450513          	addi	a0,a0,1284 # b504 <absimmsh+0xad06>
80000df0:	66650593          	addi	a1,a0,1638
80000df4:	34b1ae23          	sw	a1,860(gp)

80000df8 <inst_238>:
80000df8:	0000b537          	lui	a0,0xb
80000dfc:	50450513          	addi	a0,a0,1284 # b504 <absimmsh+0xad06>
80000e00:	fd350593          	addi	a1,a0,-45
80000e04:	36b1a023          	sw	a1,864(gp)

80000e08 <inst_239>:
80000e08:	0000b537          	lui	a0,0xb
80000e0c:	50450513          	addi	a0,a0,1284 # b504 <absimmsh+0xad06>
80000e10:	02d50593          	addi	a1,a0,45
80000e14:	36b1a223          	sw	a1,868(gp)

80000e18 <inst_240>:
80000e18:	0000b537          	lui	a0,0xb
80000e1c:	50450513          	addi	a0,a0,1284 # b504 <absimmsh+0xad06>
80000e20:	00250593          	addi	a1,a0,2
80000e24:	36b1a423          	sw	a1,872(gp)

80000e28 <inst_241>:
80000e28:	0000b537          	lui	a0,0xb
80000e2c:	50450513          	addi	a0,a0,1284 # b504 <absimmsh+0xad06>
80000e30:	55450593          	addi	a1,a0,1364
80000e34:	36b1a623          	sw	a1,876(gp)

80000e38 <inst_242>:
80000e38:	0000b537          	lui	a0,0xb
80000e3c:	50450513          	addi	a0,a0,1284 # b504 <absimmsh+0xad06>
80000e40:	00050593          	mv	a1,a0
80000e44:	36b1a823          	sw	a1,880(gp)

80000e48 <inst_243>:
80000e48:	0000b537          	lui	a0,0xb
80000e4c:	50450513          	addi	a0,a0,1284 # b504 <absimmsh+0xad06>
80000e50:	00450593          	addi	a1,a0,4
80000e54:	36b1aa23          	sw	a1,884(gp)

80000e58 <inst_244>:
80000e58:	0000b537          	lui	a0,0xb
80000e5c:	50450513          	addi	a0,a0,1284 # b504 <absimmsh+0xad06>
80000e60:	33250593          	addi	a1,a0,818
80000e64:	36b1ac23          	sw	a1,888(gp)

80000e68 <inst_245>:
80000e68:	0000b537          	lui	a0,0xb
80000e6c:	50450513          	addi	a0,a0,1284 # b504 <absimmsh+0xad06>
80000e70:	66550593          	addi	a1,a0,1637
80000e74:	36b1ae23          	sw	a1,892(gp)

80000e78 <inst_246>:
80000e78:	0000b537          	lui	a0,0xb
80000e7c:	50450513          	addi	a0,a0,1284 # b504 <absimmsh+0xad06>
80000e80:	02c50593          	addi	a1,a0,44
80000e84:	38b1a023          	sw	a1,896(gp)

80000e88 <inst_247>:
80000e88:	0000b537          	lui	a0,0xb
80000e8c:	50450513          	addi	a0,a0,1284 # b504 <absimmsh+0xad06>
80000e90:	55650593          	addi	a1,a0,1366
80000e94:	38b1a223          	sw	a1,900(gp)

80000e98 <inst_248>:
80000e98:	0000b537          	lui	a0,0xb
80000e9c:	50450513          	addi	a0,a0,1284 # b504 <absimmsh+0xad06>
80000ea0:	aab50593          	addi	a1,a0,-1365
80000ea4:	38b1a423          	sw	a1,904(gp)

80000ea8 <inst_249>:
80000ea8:	0000b537          	lui	a0,0xb
80000eac:	50450513          	addi	a0,a0,1284 # b504 <absimmsh+0xad06>
80000eb0:	00650593          	addi	a1,a0,6
80000eb4:	38b1a623          	sw	a1,908(gp)

80000eb8 <inst_250>:
80000eb8:	0000b537          	lui	a0,0xb
80000ebc:	50450513          	addi	a0,a0,1284 # b504 <absimmsh+0xad06>
80000ec0:	33450593          	addi	a1,a0,820
80000ec4:	38b1a823          	sw	a1,912(gp)

80000ec8 <inst_251>:
80000ec8:	0000b537          	lui	a0,0xb
80000ecc:	50450513          	addi	a0,a0,1284 # b504 <absimmsh+0xad06>
80000ed0:	66750593          	addi	a1,a0,1639
80000ed4:	38b1aa23          	sw	a1,916(gp)

80000ed8 <inst_252>:
80000ed8:	0000b537          	lui	a0,0xb
80000edc:	50450513          	addi	a0,a0,1284 # b504 <absimmsh+0xad06>
80000ee0:	fd450593          	addi	a1,a0,-44
80000ee4:	38b1ac23          	sw	a1,920(gp)

80000ee8 <inst_253>:
80000ee8:	0000b537          	lui	a0,0xb
80000eec:	50450513          	addi	a0,a0,1284 # b504 <absimmsh+0xad06>
80000ef0:	02e50593          	addi	a1,a0,46
80000ef4:	38b1ae23          	sw	a1,924(gp)

80000ef8 <inst_254>:
80000ef8:	00200513          	li	a0,2
80000efc:	00350593          	addi	a1,a0,3
80000f00:	3ab1a023          	sw	a1,928(gp)

80000f04 <inst_255>:
80000f04:	00200513          	li	a0,2
80000f08:	55550593          	addi	a1,a0,1365
80000f0c:	3ab1a223          	sw	a1,932(gp)

80000f10 <inst_256>:
80000f10:	00200513          	li	a0,2
80000f14:	aaa50593          	addi	a1,a0,-1366
80000f18:	3ab1a423          	sw	a1,936(gp)

80000f1c <inst_257>:
80000f1c:	00200513          	li	a0,2
80000f20:	00550593          	addi	a1,a0,5
80000f24:	3ab1a623          	sw	a1,940(gp)

80000f28 <inst_258>:
80000f28:	00200513          	li	a0,2
80000f2c:	33350593          	addi	a1,a0,819
80000f30:	3ab1a823          	sw	a1,944(gp)

80000f34 <inst_259>:
80000f34:	00200513          	li	a0,2
80000f38:	66650593          	addi	a1,a0,1638
80000f3c:	3ab1aa23          	sw	a1,948(gp)

80000f40 <inst_260>:
80000f40:	00200513          	li	a0,2
80000f44:	fd350593          	addi	a1,a0,-45
80000f48:	3ab1ac23          	sw	a1,952(gp)

80000f4c <inst_261>:
80000f4c:	00200513          	li	a0,2
80000f50:	02d50593          	addi	a1,a0,45
80000f54:	3ab1ae23          	sw	a1,956(gp)

80000f58 <inst_262>:
80000f58:	00200513          	li	a0,2
80000f5c:	00250593          	addi	a1,a0,2
80000f60:	3cb1a023          	sw	a1,960(gp)

80000f64 <inst_263>:
80000f64:	00200513          	li	a0,2
80000f68:	55450593          	addi	a1,a0,1364
80000f6c:	3cb1a223          	sw	a1,964(gp)

80000f70 <inst_264>:
80000f70:	00200513          	li	a0,2
80000f74:	00050593          	mv	a1,a0
80000f78:	3cb1a423          	sw	a1,968(gp)

80000f7c <inst_265>:
80000f7c:	00200513          	li	a0,2
80000f80:	00450593          	addi	a1,a0,4
80000f84:	3cb1a623          	sw	a1,972(gp)

80000f88 <inst_266>:
80000f88:	00200513          	li	a0,2
80000f8c:	33250593          	addi	a1,a0,818
80000f90:	3cb1a823          	sw	a1,976(gp)

80000f94 <inst_267>:
80000f94:	00200513          	li	a0,2
80000f98:	66550593          	addi	a1,a0,1637
80000f9c:	3cb1aa23          	sw	a1,980(gp)

80000fa0 <inst_268>:
80000fa0:	00200513          	li	a0,2
80000fa4:	02c50593          	addi	a1,a0,44
80000fa8:	3cb1ac23          	sw	a1,984(gp)

80000fac <inst_269>:
80000fac:	00200513          	li	a0,2
80000fb0:	55650593          	addi	a1,a0,1366
80000fb4:	3cb1ae23          	sw	a1,988(gp)

80000fb8 <inst_270>:
80000fb8:	00200513          	li	a0,2
80000fbc:	aab50593          	addi	a1,a0,-1365
80000fc0:	3eb1a023          	sw	a1,992(gp)

80000fc4 <inst_271>:
80000fc4:	00200513          	li	a0,2
80000fc8:	00650593          	addi	a1,a0,6
80000fcc:	3eb1a223          	sw	a1,996(gp)

80000fd0 <inst_272>:
80000fd0:	00200513          	li	a0,2
80000fd4:	33450593          	addi	a1,a0,820
80000fd8:	3eb1a423          	sw	a1,1000(gp)

80000fdc <inst_273>:
80000fdc:	00200513          	li	a0,2
80000fe0:	66750593          	addi	a1,a0,1639
80000fe4:	3eb1a623          	sw	a1,1004(gp)

80000fe8 <inst_274>:
80000fe8:	00200513          	li	a0,2
80000fec:	fd450593          	addi	a1,a0,-44
80000ff0:	3eb1a823          	sw	a1,1008(gp)

80000ff4 <inst_275>:
80000ff4:	00200513          	li	a0,2
80000ff8:	02e50593          	addi	a1,a0,46
80000ffc:	3eb1aa23          	sw	a1,1012(gp)

80001000 <inst_276>:
80001000:	55555537          	lui	a0,0x55555
80001004:	55450513          	addi	a0,a0,1364 # 55555554 <absimm+0x55355554>
80001008:	00350593          	addi	a1,a0,3
8000100c:	3eb1ac23          	sw	a1,1016(gp)

80001010 <inst_277>:
80001010:	55555537          	lui	a0,0x55555
80001014:	55450513          	addi	a0,a0,1364 # 55555554 <absimm+0x55355554>
80001018:	55550593          	addi	a1,a0,1365
8000101c:	3eb1ae23          	sw	a1,1020(gp)

80001020 <inst_278>:
80001020:	55555537          	lui	a0,0x55555
80001024:	55450513          	addi	a0,a0,1364 # 55555554 <absimm+0x55355554>
80001028:	aaa50593          	addi	a1,a0,-1366
8000102c:	40b1a023          	sw	a1,1024(gp)

80001030 <inst_279>:
80001030:	55555537          	lui	a0,0x55555
80001034:	55450513          	addi	a0,a0,1364 # 55555554 <absimm+0x55355554>
80001038:	00550593          	addi	a1,a0,5
8000103c:	40b1a223          	sw	a1,1028(gp)

80001040 <inst_280>:
80001040:	55555537          	lui	a0,0x55555
80001044:	55450513          	addi	a0,a0,1364 # 55555554 <absimm+0x55355554>
80001048:	33350593          	addi	a1,a0,819
8000104c:	40b1a423          	sw	a1,1032(gp)

80001050 <inst_281>:
80001050:	55555537          	lui	a0,0x55555
80001054:	55450513          	addi	a0,a0,1364 # 55555554 <absimm+0x55355554>
80001058:	66650593          	addi	a1,a0,1638
8000105c:	40b1a623          	sw	a1,1036(gp)

80001060 <inst_282>:
80001060:	55555537          	lui	a0,0x55555
80001064:	55450513          	addi	a0,a0,1364 # 55555554 <absimm+0x55355554>
80001068:	fd350593          	addi	a1,a0,-45
8000106c:	40b1a823          	sw	a1,1040(gp)

80001070 <inst_283>:
80001070:	55555537          	lui	a0,0x55555
80001074:	55450513          	addi	a0,a0,1364 # 55555554 <absimm+0x55355554>
80001078:	02d50593          	addi	a1,a0,45
8000107c:	40b1aa23          	sw	a1,1044(gp)

80001080 <inst_284>:
80001080:	55555537          	lui	a0,0x55555
80001084:	55450513          	addi	a0,a0,1364 # 55555554 <absimm+0x55355554>
80001088:	00250593          	addi	a1,a0,2
8000108c:	40b1ac23          	sw	a1,1048(gp)

80001090 <inst_285>:
80001090:	55555537          	lui	a0,0x55555
80001094:	55450513          	addi	a0,a0,1364 # 55555554 <absimm+0x55355554>
80001098:	55450593          	addi	a1,a0,1364
8000109c:	40b1ae23          	sw	a1,1052(gp)

800010a0 <inst_286>:
800010a0:	55555537          	lui	a0,0x55555
800010a4:	55450513          	addi	a0,a0,1364 # 55555554 <absimm+0x55355554>
800010a8:	00050593          	mv	a1,a0
800010ac:	42b1a023          	sw	a1,1056(gp)

800010b0 <inst_287>:
800010b0:	55555537          	lui	a0,0x55555
800010b4:	55450513          	addi	a0,a0,1364 # 55555554 <absimm+0x55355554>
800010b8:	00450593          	addi	a1,a0,4
800010bc:	42b1a223          	sw	a1,1060(gp)

800010c0 <inst_288>:
800010c0:	55555537          	lui	a0,0x55555
800010c4:	55450513          	addi	a0,a0,1364 # 55555554 <absimm+0x55355554>
800010c8:	33250593          	addi	a1,a0,818
800010cc:	42b1a423          	sw	a1,1064(gp)

800010d0 <inst_289>:
800010d0:	55555537          	lui	a0,0x55555
800010d4:	55450513          	addi	a0,a0,1364 # 55555554 <absimm+0x55355554>
800010d8:	66550593          	addi	a1,a0,1637
800010dc:	42b1a623          	sw	a1,1068(gp)

800010e0 <inst_290>:
800010e0:	55555537          	lui	a0,0x55555
800010e4:	55450513          	addi	a0,a0,1364 # 55555554 <absimm+0x55355554>
800010e8:	02c50593          	addi	a1,a0,44
800010ec:	42b1a823          	sw	a1,1072(gp)

800010f0 <inst_291>:
800010f0:	55555537          	lui	a0,0x55555
800010f4:	55450513          	addi	a0,a0,1364 # 55555554 <absimm+0x55355554>
800010f8:	55650593          	addi	a1,a0,1366
800010fc:	42b1aa23          	sw	a1,1076(gp)

80001100 <inst_292>:
80001100:	55555537          	lui	a0,0x55555
80001104:	55450513          	addi	a0,a0,1364 # 55555554 <absimm+0x55355554>
80001108:	aab50593          	addi	a1,a0,-1365
8000110c:	42b1ac23          	sw	a1,1080(gp)

80001110 <inst_293>:
80001110:	55555537          	lui	a0,0x55555
80001114:	55450513          	addi	a0,a0,1364 # 55555554 <absimm+0x55355554>
80001118:	00650593          	addi	a1,a0,6
8000111c:	42b1ae23          	sw	a1,1084(gp)

80001120 <inst_294>:
80001120:	55555537          	lui	a0,0x55555
80001124:	55450513          	addi	a0,a0,1364 # 55555554 <absimm+0x55355554>
80001128:	33450593          	addi	a1,a0,820
8000112c:	44b1a023          	sw	a1,1088(gp)

80001130 <inst_295>:
80001130:	55555537          	lui	a0,0x55555
80001134:	55450513          	addi	a0,a0,1364 # 55555554 <absimm+0x55355554>
80001138:	66750593          	addi	a1,a0,1639
8000113c:	44b1a223          	sw	a1,1092(gp)

80001140 <inst_296>:
80001140:	55555537          	lui	a0,0x55555
80001144:	55450513          	addi	a0,a0,1364 # 55555554 <absimm+0x55355554>
80001148:	fd450593          	addi	a1,a0,-44
8000114c:	44b1a423          	sw	a1,1096(gp)

80001150 <inst_297>:
80001150:	55555537          	lui	a0,0x55555
80001154:	55450513          	addi	a0,a0,1364 # 55555554 <absimm+0x55355554>
80001158:	02e50593          	addi	a1,a0,46
8000115c:	44b1a623          	sw	a1,1100(gp)

80001160 <inst_298>:
80001160:	00000513          	li	a0,0
80001164:	00350593          	addi	a1,a0,3
80001168:	44b1a823          	sw	a1,1104(gp)

8000116c <inst_299>:
8000116c:	00000513          	li	a0,0
80001170:	55550593          	addi	a1,a0,1365
80001174:	44b1aa23          	sw	a1,1108(gp)

80001178 <inst_300>:
80001178:	00000513          	li	a0,0
8000117c:	00550593          	addi	a1,a0,5
80001180:	44b1ac23          	sw	a1,1112(gp)

80001184 <inst_301>:
80001184:	00000513          	li	a0,0
80001188:	33350593          	addi	a1,a0,819
8000118c:	44b1ae23          	sw	a1,1116(gp)

80001190 <inst_302>:
80001190:	00000513          	li	a0,0
80001194:	66650593          	addi	a1,a0,1638
80001198:	46b1a023          	sw	a1,1120(gp)

8000119c <inst_303>:
8000119c:	00000513          	li	a0,0
800011a0:	fd350593          	addi	a1,a0,-45
800011a4:	46b1a223          	sw	a1,1124(gp)

800011a8 <inst_304>:
800011a8:	00000513          	li	a0,0
800011ac:	02d50593          	addi	a1,a0,45
800011b0:	46b1a423          	sw	a1,1128(gp)

800011b4 <inst_305>:
800011b4:	33333537          	lui	a0,0x33333
800011b8:	33450513          	addi	a0,a0,820 # 33333334 <absimm+0x33133334>
800011bc:	33250593          	addi	a1,a0,818
800011c0:	46b1a623          	sw	a1,1132(gp)

800011c4 <inst_306>:
800011c4:	33333537          	lui	a0,0x33333
800011c8:	33450513          	addi	a0,a0,820 # 33333334 <absimm+0x33133334>
800011cc:	66550593          	addi	a1,a0,1637
800011d0:	46b1a823          	sw	a1,1136(gp)

800011d4 <inst_307>:
800011d4:	33333537          	lui	a0,0x33333
800011d8:	33450513          	addi	a0,a0,820 # 33333334 <absimm+0x33133334>
800011dc:	02c50593          	addi	a1,a0,44
800011e0:	46b1aa23          	sw	a1,1140(gp)

800011e4 <inst_308>:
800011e4:	33333537          	lui	a0,0x33333
800011e8:	33450513          	addi	a0,a0,820 # 33333334 <absimm+0x33133334>
800011ec:	55650593          	addi	a1,a0,1366
800011f0:	46b1ac23          	sw	a1,1144(gp)

800011f4 <inst_309>:
800011f4:	33333537          	lui	a0,0x33333
800011f8:	33450513          	addi	a0,a0,820 # 33333334 <absimm+0x33133334>
800011fc:	aab50593          	addi	a1,a0,-1365
80001200:	46b1ae23          	sw	a1,1148(gp)

80001204 <inst_310>:
80001204:	33333537          	lui	a0,0x33333
80001208:	33450513          	addi	a0,a0,820 # 33333334 <absimm+0x33133334>
8000120c:	00650593          	addi	a1,a0,6
80001210:	48b1a023          	sw	a1,1152(gp)

80001214 <inst_311>:
80001214:	33333537          	lui	a0,0x33333
80001218:	33450513          	addi	a0,a0,820 # 33333334 <absimm+0x33133334>
8000121c:	33450593          	addi	a1,a0,820
80001220:	48b1a223          	sw	a1,1156(gp)

80001224 <inst_312>:
80001224:	33333537          	lui	a0,0x33333
80001228:	33450513          	addi	a0,a0,820 # 33333334 <absimm+0x33133334>
8000122c:	66750593          	addi	a1,a0,1639
80001230:	48b1a423          	sw	a1,1160(gp)

80001234 <inst_313>:
80001234:	33333537          	lui	a0,0x33333
80001238:	33450513          	addi	a0,a0,820 # 33333334 <absimm+0x33133334>
8000123c:	fd450593          	addi	a1,a0,-44
80001240:	48b1a623          	sw	a1,1164(gp)

80001244 <inst_314>:
80001244:	33333537          	lui	a0,0x33333
80001248:	33450513          	addi	a0,a0,820 # 33333334 <absimm+0x33133334>
8000124c:	02e50593          	addi	a1,a0,46
80001250:	48b1a823          	sw	a1,1168(gp)

80001254 <inst_315>:
80001254:	66666537          	lui	a0,0x66666
80001258:	66750513          	addi	a0,a0,1639 # 66666667 <absimm+0x66466667>
8000125c:	00350593          	addi	a1,a0,3
80001260:	48b1aa23          	sw	a1,1172(gp)

80001264 <inst_316>:
80001264:	66666537          	lui	a0,0x66666
80001268:	66750513          	addi	a0,a0,1639 # 66666667 <absimm+0x66466667>
8000126c:	55550593          	addi	a1,a0,1365
80001270:	48b1ac23          	sw	a1,1176(gp)

80001274 <inst_317>:
80001274:	66666537          	lui	a0,0x66666
80001278:	66750513          	addi	a0,a0,1639 # 66666667 <absimm+0x66466667>
8000127c:	aaa50593          	addi	a1,a0,-1366
80001280:	48b1ae23          	sw	a1,1180(gp)

80001284 <inst_318>:
80001284:	66666537          	lui	a0,0x66666
80001288:	66750513          	addi	a0,a0,1639 # 66666667 <absimm+0x66466667>
8000128c:	00550593          	addi	a1,a0,5
80001290:	4ab1a023          	sw	a1,1184(gp)

80001294 <inst_319>:
80001294:	66666537          	lui	a0,0x66666
80001298:	66750513          	addi	a0,a0,1639 # 66666667 <absimm+0x66466667>
8000129c:	33350593          	addi	a1,a0,819
800012a0:	4ab1a223          	sw	a1,1188(gp)

800012a4 <inst_320>:
800012a4:	66666537          	lui	a0,0x66666
800012a8:	66750513          	addi	a0,a0,1639 # 66666667 <absimm+0x66466667>
800012ac:	66650593          	addi	a1,a0,1638
800012b0:	4ab1a423          	sw	a1,1192(gp)

800012b4 <inst_321>:
800012b4:	66666537          	lui	a0,0x66666
800012b8:	66750513          	addi	a0,a0,1639 # 66666667 <absimm+0x66466667>
800012bc:	fd350593          	addi	a1,a0,-45
800012c0:	4ab1a623          	sw	a1,1196(gp)

800012c4 <inst_322>:
800012c4:	66666537          	lui	a0,0x66666
800012c8:	66750513          	addi	a0,a0,1639 # 66666667 <absimm+0x66466667>
800012cc:	02d50593          	addi	a1,a0,45
800012d0:	4ab1a823          	sw	a1,1200(gp)

800012d4 <inst_323>:
800012d4:	66666537          	lui	a0,0x66666
800012d8:	66750513          	addi	a0,a0,1639 # 66666667 <absimm+0x66466667>
800012dc:	00250593          	addi	a1,a0,2
800012e0:	4ab1aa23          	sw	a1,1204(gp)

800012e4 <inst_324>:
800012e4:	66666537          	lui	a0,0x66666
800012e8:	66750513          	addi	a0,a0,1639 # 66666667 <absimm+0x66466667>
800012ec:	55450593          	addi	a1,a0,1364
800012f0:	4ab1ac23          	sw	a1,1208(gp)

800012f4 <inst_325>:
800012f4:	66666537          	lui	a0,0x66666
800012f8:	66750513          	addi	a0,a0,1639 # 66666667 <absimm+0x66466667>
800012fc:	00050593          	mv	a1,a0
80001300:	4ab1ae23          	sw	a1,1212(gp)

80001304 <inst_326>:
80001304:	66666537          	lui	a0,0x66666
80001308:	66750513          	addi	a0,a0,1639 # 66666667 <absimm+0x66466667>
8000130c:	00450593          	addi	a1,a0,4
80001310:	4cb1a023          	sw	a1,1216(gp)

80001314 <inst_327>:
80001314:	66666537          	lui	a0,0x66666
80001318:	66750513          	addi	a0,a0,1639 # 66666667 <absimm+0x66466667>
8000131c:	33250593          	addi	a1,a0,818
80001320:	4cb1a223          	sw	a1,1220(gp)

80001324 <inst_328>:
80001324:	66666537          	lui	a0,0x66666
80001328:	66750513          	addi	a0,a0,1639 # 66666667 <absimm+0x66466667>
8000132c:	66550593          	addi	a1,a0,1637
80001330:	4cb1a423          	sw	a1,1224(gp)

80001334 <inst_329>:
80001334:	66666537          	lui	a0,0x66666
80001338:	66750513          	addi	a0,a0,1639 # 66666667 <absimm+0x66466667>
8000133c:	02c50593          	addi	a1,a0,44
80001340:	4cb1a623          	sw	a1,1228(gp)

80001344 <inst_330>:
80001344:	66666537          	lui	a0,0x66666
80001348:	66750513          	addi	a0,a0,1639 # 66666667 <absimm+0x66466667>
8000134c:	55650593          	addi	a1,a0,1366
80001350:	4cb1a823          	sw	a1,1232(gp)

80001354 <inst_331>:
80001354:	66666537          	lui	a0,0x66666
80001358:	66750513          	addi	a0,a0,1639 # 66666667 <absimm+0x66466667>
8000135c:	aab50593          	addi	a1,a0,-1365
80001360:	4cb1aa23          	sw	a1,1236(gp)

80001364 <inst_332>:
80001364:	66666537          	lui	a0,0x66666
80001368:	66750513          	addi	a0,a0,1639 # 66666667 <absimm+0x66466667>
8000136c:	00650593          	addi	a1,a0,6
80001370:	4cb1ac23          	sw	a1,1240(gp)

80001374 <inst_333>:
80001374:	66666537          	lui	a0,0x66666
80001378:	66750513          	addi	a0,a0,1639 # 66666667 <absimm+0x66466667>
8000137c:	33450593          	addi	a1,a0,820
80001380:	4cb1ae23          	sw	a1,1244(gp)

80001384 <inst_334>:
80001384:	66666537          	lui	a0,0x66666
80001388:	66750513          	addi	a0,a0,1639 # 66666667 <absimm+0x66466667>
8000138c:	66750593          	addi	a1,a0,1639
80001390:	4eb1a023          	sw	a1,1248(gp)

80001394 <inst_335>:
80001394:	66666537          	lui	a0,0x66666
80001398:	66750513          	addi	a0,a0,1639 # 66666667 <absimm+0x66466667>
8000139c:	fd450593          	addi	a1,a0,-44
800013a0:	4eb1a223          	sw	a1,1252(gp)

800013a4 <inst_336>:
800013a4:	66666537          	lui	a0,0x66666
800013a8:	66750513          	addi	a0,a0,1639 # 66666667 <absimm+0x66466667>
800013ac:	02e50593          	addi	a1,a0,46
800013b0:	4eb1a423          	sw	a1,1256(gp)

800013b4 <inst_337>:
800013b4:	ffff5537          	lui	a0,0xffff5
800013b8:	afd50513          	addi	a0,a0,-1283 # ffff4afd <imm12+0xffff4afe>
800013bc:	00350593          	addi	a1,a0,3
800013c0:	4eb1a623          	sw	a1,1260(gp)

800013c4 <inst_338>:
800013c4:	ffff5537          	lui	a0,0xffff5
800013c8:	afd50513          	addi	a0,a0,-1283 # ffff4afd <imm12+0xffff4afe>
800013cc:	55550593          	addi	a1,a0,1365
800013d0:	4eb1a823          	sw	a1,1264(gp)

800013d4 <inst_339>:
800013d4:	ffff5537          	lui	a0,0xffff5
800013d8:	afd50513          	addi	a0,a0,-1283 # ffff4afd <imm12+0xffff4afe>
800013dc:	aaa50593          	addi	a1,a0,-1366
800013e0:	4eb1aa23          	sw	a1,1268(gp)

800013e4 <inst_340>:
800013e4:	ffff5537          	lui	a0,0xffff5
800013e8:	afd50513          	addi	a0,a0,-1283 # ffff4afd <imm12+0xffff4afe>
800013ec:	00550593          	addi	a1,a0,5
800013f0:	4eb1ac23          	sw	a1,1272(gp)

800013f4 <inst_341>:
800013f4:	ffff5537          	lui	a0,0xffff5
800013f8:	afd50513          	addi	a0,a0,-1283 # ffff4afd <imm12+0xffff4afe>
800013fc:	33350593          	addi	a1,a0,819
80001400:	4eb1ae23          	sw	a1,1276(gp)

80001404 <inst_342>:
80001404:	ffff5537          	lui	a0,0xffff5
80001408:	afd50513          	addi	a0,a0,-1283 # ffff4afd <imm12+0xffff4afe>
8000140c:	66650593          	addi	a1,a0,1638
80001410:	50b1a023          	sw	a1,1280(gp)

80001414 <inst_343>:
80001414:	ffff5537          	lui	a0,0xffff5
80001418:	afd50513          	addi	a0,a0,-1283 # ffff4afd <imm12+0xffff4afe>
8000141c:	fd350593          	addi	a1,a0,-45
80001420:	50b1a223          	sw	a1,1284(gp)

80001424 <inst_344>:
80001424:	ffff5537          	lui	a0,0xffff5
80001428:	afd50513          	addi	a0,a0,-1283 # ffff4afd <imm12+0xffff4afe>
8000142c:	02d50593          	addi	a1,a0,45
80001430:	50b1a423          	sw	a1,1288(gp)

80001434 <inst_345>:
80001434:	ffff5537          	lui	a0,0xffff5
80001438:	afd50513          	addi	a0,a0,-1283 # ffff4afd <imm12+0xffff4afe>
8000143c:	00250593          	addi	a1,a0,2
80001440:	50b1a623          	sw	a1,1292(gp)

80001444 <inst_346>:
80001444:	ffff5537          	lui	a0,0xffff5
80001448:	afd50513          	addi	a0,a0,-1283 # ffff4afd <imm12+0xffff4afe>
8000144c:	55450593          	addi	a1,a0,1364
80001450:	50b1a823          	sw	a1,1296(gp)

80001454 <inst_347>:
80001454:	ffff5537          	lui	a0,0xffff5
80001458:	afd50513          	addi	a0,a0,-1283 # ffff4afd <imm12+0xffff4afe>
8000145c:	00050593          	mv	a1,a0
80001460:	50b1aa23          	sw	a1,1300(gp)

80001464 <inst_348>:
80001464:	ffff5537          	lui	a0,0xffff5
80001468:	afd50513          	addi	a0,a0,-1283 # ffff4afd <imm12+0xffff4afe>
8000146c:	00450593          	addi	a1,a0,4
80001470:	50b1ac23          	sw	a1,1304(gp)

80001474 <inst_349>:
80001474:	ffff5537          	lui	a0,0xffff5
80001478:	afd50513          	addi	a0,a0,-1283 # ffff4afd <imm12+0xffff4afe>
8000147c:	33250593          	addi	a1,a0,818
80001480:	50b1ae23          	sw	a1,1308(gp)

80001484 <inst_350>:
80001484:	ffff5537          	lui	a0,0xffff5
80001488:	afd50513          	addi	a0,a0,-1283 # ffff4afd <imm12+0xffff4afe>
8000148c:	66550593          	addi	a1,a0,1637
80001490:	52b1a023          	sw	a1,1312(gp)

80001494 <inst_351>:
80001494:	ffff5537          	lui	a0,0xffff5
80001498:	afd50513          	addi	a0,a0,-1283 # ffff4afd <imm12+0xffff4afe>
8000149c:	02c50593          	addi	a1,a0,44
800014a0:	52b1a223          	sw	a1,1316(gp)

800014a4 <inst_352>:
800014a4:	ffff5537          	lui	a0,0xffff5
800014a8:	afd50513          	addi	a0,a0,-1283 # ffff4afd <imm12+0xffff4afe>
800014ac:	55650593          	addi	a1,a0,1366
800014b0:	52b1a423          	sw	a1,1320(gp)

800014b4 <inst_353>:
800014b4:	ffff5537          	lui	a0,0xffff5
800014b8:	afd50513          	addi	a0,a0,-1283 # ffff4afd <imm12+0xffff4afe>
800014bc:	aab50593          	addi	a1,a0,-1365
800014c0:	52b1a623          	sw	a1,1324(gp)

800014c4 <inst_354>:
800014c4:	ffff5537          	lui	a0,0xffff5
800014c8:	afd50513          	addi	a0,a0,-1283 # ffff4afd <imm12+0xffff4afe>
800014cc:	00650593          	addi	a1,a0,6
800014d0:	52b1a823          	sw	a1,1328(gp)

800014d4 <inst_355>:
800014d4:	ffff5537          	lui	a0,0xffff5
800014d8:	afd50513          	addi	a0,a0,-1283 # ffff4afd <imm12+0xffff4afe>
800014dc:	33450593          	addi	a1,a0,820
800014e0:	52b1aa23          	sw	a1,1332(gp)

800014e4 <inst_356>:
800014e4:	ffff5537          	lui	a0,0xffff5
800014e8:	afd50513          	addi	a0,a0,-1283 # ffff4afd <imm12+0xffff4afe>
800014ec:	66750593          	addi	a1,a0,1639
800014f0:	52b1ac23          	sw	a1,1336(gp)

800014f4 <inst_357>:
800014f4:	ffff5537          	lui	a0,0xffff5
800014f8:	afd50513          	addi	a0,a0,-1283 # ffff4afd <imm12+0xffff4afe>
800014fc:	fd450593          	addi	a1,a0,-44
80001500:	52b1ae23          	sw	a1,1340(gp)

80001504 <inst_358>:
80001504:	ffff5537          	lui	a0,0xffff5
80001508:	afd50513          	addi	a0,a0,-1283 # ffff4afd <imm12+0xffff4afe>
8000150c:	02e50593          	addi	a1,a0,46
80001510:	54b1a023          	sw	a1,1344(gp)

80001514 <inst_359>:
80001514:	0000b537          	lui	a0,0xb
80001518:	50550513          	addi	a0,a0,1285 # b505 <absimmsh+0xad07>
8000151c:	00350593          	addi	a1,a0,3
80001520:	54b1a223          	sw	a1,1348(gp)

80001524 <inst_360>:
80001524:	0000b537          	lui	a0,0xb
80001528:	50550513          	addi	a0,a0,1285 # b505 <absimmsh+0xad07>
8000152c:	55550593          	addi	a1,a0,1365
80001530:	54b1a423          	sw	a1,1352(gp)

80001534 <inst_361>:
80001534:	0000b537          	lui	a0,0xb
80001538:	50550513          	addi	a0,a0,1285 # b505 <absimmsh+0xad07>
8000153c:	aaa50593          	addi	a1,a0,-1366
80001540:	54b1a623          	sw	a1,1356(gp)

80001544 <inst_362>:
80001544:	0000b537          	lui	a0,0xb
80001548:	50550513          	addi	a0,a0,1285 # b505 <absimmsh+0xad07>
8000154c:	00550593          	addi	a1,a0,5
80001550:	54b1a823          	sw	a1,1360(gp)

80001554 <inst_363>:
80001554:	0000b537          	lui	a0,0xb
80001558:	50550513          	addi	a0,a0,1285 # b505 <absimmsh+0xad07>
8000155c:	33350593          	addi	a1,a0,819
80001560:	54b1aa23          	sw	a1,1364(gp)

80001564 <inst_364>:
80001564:	0000b537          	lui	a0,0xb
80001568:	50550513          	addi	a0,a0,1285 # b505 <absimmsh+0xad07>
8000156c:	66650593          	addi	a1,a0,1638
80001570:	54b1ac23          	sw	a1,1368(gp)

80001574 <inst_365>:
80001574:	0000b537          	lui	a0,0xb
80001578:	50550513          	addi	a0,a0,1285 # b505 <absimmsh+0xad07>
8000157c:	fd350593          	addi	a1,a0,-45
80001580:	54b1ae23          	sw	a1,1372(gp)

80001584 <inst_366>:
80001584:	0000b537          	lui	a0,0xb
80001588:	50550513          	addi	a0,a0,1285 # b505 <absimmsh+0xad07>
8000158c:	02d50593          	addi	a1,a0,45
80001590:	56b1a023          	sw	a1,1376(gp)

80001594 <inst_367>:
80001594:	0000b537          	lui	a0,0xb
80001598:	50550513          	addi	a0,a0,1285 # b505 <absimmsh+0xad07>
8000159c:	00250593          	addi	a1,a0,2
800015a0:	56b1a223          	sw	a1,1380(gp)

800015a4 <inst_368>:
800015a4:	0000b537          	lui	a0,0xb
800015a8:	50550513          	addi	a0,a0,1285 # b505 <absimmsh+0xad07>
800015ac:	55450593          	addi	a1,a0,1364
800015b0:	56b1a423          	sw	a1,1384(gp)

800015b4 <inst_369>:
800015b4:	0000b537          	lui	a0,0xb
800015b8:	50550513          	addi	a0,a0,1285 # b505 <absimmsh+0xad07>
800015bc:	00050593          	mv	a1,a0
800015c0:	56b1a623          	sw	a1,1388(gp)

800015c4 <inst_370>:
800015c4:	0000b537          	lui	a0,0xb
800015c8:	50550513          	addi	a0,a0,1285 # b505 <absimmsh+0xad07>
800015cc:	00450593          	addi	a1,a0,4
800015d0:	56b1a823          	sw	a1,1392(gp)

800015d4 <inst_371>:
800015d4:	0000b537          	lui	a0,0xb
800015d8:	50550513          	addi	a0,a0,1285 # b505 <absimmsh+0xad07>
800015dc:	33250593          	addi	a1,a0,818
800015e0:	56b1aa23          	sw	a1,1396(gp)

800015e4 <inst_372>:
800015e4:	0000b537          	lui	a0,0xb
800015e8:	50550513          	addi	a0,a0,1285 # b505 <absimmsh+0xad07>
800015ec:	66550593          	addi	a1,a0,1637
800015f0:	56b1ac23          	sw	a1,1400(gp)

800015f4 <inst_373>:
800015f4:	0000b537          	lui	a0,0xb
800015f8:	50550513          	addi	a0,a0,1285 # b505 <absimmsh+0xad07>
800015fc:	02c50593          	addi	a1,a0,44
80001600:	56b1ae23          	sw	a1,1404(gp)

80001604 <inst_374>:
80001604:	0000b537          	lui	a0,0xb
80001608:	50550513          	addi	a0,a0,1285 # b505 <absimmsh+0xad07>
8000160c:	55650593          	addi	a1,a0,1366
80001610:	58b1a023          	sw	a1,1408(gp)

80001614 <inst_375>:
80001614:	0000b537          	lui	a0,0xb
80001618:	50550513          	addi	a0,a0,1285 # b505 <absimmsh+0xad07>
8000161c:	aab50593          	addi	a1,a0,-1365
80001620:	58b1a223          	sw	a1,1412(gp)

80001624 <inst_376>:
80001624:	0000b537          	lui	a0,0xb
80001628:	50550513          	addi	a0,a0,1285 # b505 <absimmsh+0xad07>
8000162c:	00650593          	addi	a1,a0,6
80001630:	58b1a423          	sw	a1,1416(gp)

80001634 <inst_377>:
80001634:	0000b537          	lui	a0,0xb
80001638:	50550513          	addi	a0,a0,1285 # b505 <absimmsh+0xad07>
8000163c:	33450593          	addi	a1,a0,820
80001640:	58b1a623          	sw	a1,1420(gp)

80001644 <inst_378>:
80001644:	0000b537          	lui	a0,0xb
80001648:	50550513          	addi	a0,a0,1285 # b505 <absimmsh+0xad07>
8000164c:	66750593          	addi	a1,a0,1639
80001650:	58b1a823          	sw	a1,1424(gp)

80001654 <inst_379>:
80001654:	0000b537          	lui	a0,0xb
80001658:	50550513          	addi	a0,a0,1285 # b505 <absimmsh+0xad07>
8000165c:	fd450593          	addi	a1,a0,-44
80001660:	58b1aa23          	sw	a1,1428(gp)

80001664 <inst_380>:
80001664:	0000b537          	lui	a0,0xb
80001668:	50550513          	addi	a0,a0,1285 # b505 <absimmsh+0xad07>
8000166c:	02e50593          	addi	a1,a0,46
80001670:	58b1ac23          	sw	a1,1432(gp)

80001674 <inst_381>:
80001674:	00000513          	li	a0,0
80001678:	00250593          	addi	a1,a0,2
8000167c:	58b1ae23          	sw	a1,1436(gp)

80001680 <inst_382>:
80001680:	00000513          	li	a0,0
80001684:	55450593          	addi	a1,a0,1364
80001688:	5ab1a023          	sw	a1,1440(gp)

8000168c <inst_383>:
8000168c:	00000513          	li	a0,0
80001690:	00050593          	mv	a1,a0
80001694:	5ab1a223          	sw	a1,1444(gp)

80001698 <inst_384>:
80001698:	00000513          	li	a0,0
8000169c:	00450593          	addi	a1,a0,4
800016a0:	5ab1a423          	sw	a1,1448(gp)

800016a4 <inst_385>:
800016a4:	00000513          	li	a0,0
800016a8:	33250593          	addi	a1,a0,818
800016ac:	5ab1a623          	sw	a1,1452(gp)

800016b0 <inst_386>:
800016b0:	00000513          	li	a0,0
800016b4:	66550593          	addi	a1,a0,1637
800016b8:	5ab1a823          	sw	a1,1456(gp)

800016bc <inst_387>:
800016bc:	00000513          	li	a0,0
800016c0:	02c50593          	addi	a1,a0,44
800016c4:	5ab1aa23          	sw	a1,1460(gp)

800016c8 <inst_388>:
800016c8:	00000513          	li	a0,0
800016cc:	55650593          	addi	a1,a0,1366
800016d0:	5ab1ac23          	sw	a1,1464(gp)

800016d4 <inst_389>:
800016d4:	00000513          	li	a0,0
800016d8:	aab50593          	addi	a1,a0,-1365
800016dc:	5ab1ae23          	sw	a1,1468(gp)

800016e0 <inst_390>:
800016e0:	00000513          	li	a0,0
800016e4:	00650593          	addi	a1,a0,6
800016e8:	5cb1a023          	sw	a1,1472(gp)

800016ec <inst_391>:
800016ec:	00000513          	li	a0,0
800016f0:	33450593          	addi	a1,a0,820
800016f4:	5cb1a223          	sw	a1,1476(gp)

800016f8 <inst_392>:
800016f8:	00000513          	li	a0,0
800016fc:	66750593          	addi	a1,a0,1639
80001700:	5cb1a423          	sw	a1,1480(gp)

80001704 <inst_393>:
80001704:	00000513          	li	a0,0
80001708:	fd450593          	addi	a1,a0,-44
8000170c:	5cb1a623          	sw	a1,1484(gp)

80001710 <inst_394>:
80001710:	00000513          	li	a0,0
80001714:	02e50593          	addi	a1,a0,46
80001718:	5cb1a823          	sw	a1,1488(gp)

8000171c <inst_395>:
8000171c:	00400513          	li	a0,4
80001720:	00350593          	addi	a1,a0,3
80001724:	5cb1aa23          	sw	a1,1492(gp)

80001728 <inst_396>:
80001728:	00400513          	li	a0,4
8000172c:	55550593          	addi	a1,a0,1365
80001730:	5cb1ac23          	sw	a1,1496(gp)

80001734 <inst_397>:
80001734:	00400513          	li	a0,4
80001738:	aaa50593          	addi	a1,a0,-1366
8000173c:	5cb1ae23          	sw	a1,1500(gp)

80001740 <inst_398>:
80001740:	00400513          	li	a0,4
80001744:	00550593          	addi	a1,a0,5
80001748:	5eb1a023          	sw	a1,1504(gp)

8000174c <inst_399>:
8000174c:	00400513          	li	a0,4
80001750:	33350593          	addi	a1,a0,819
80001754:	5eb1a223          	sw	a1,1508(gp)

80001758 <inst_400>:
80001758:	00400513          	li	a0,4
8000175c:	66650593          	addi	a1,a0,1638
80001760:	5eb1a423          	sw	a1,1512(gp)

80001764 <inst_401>:
80001764:	00400513          	li	a0,4
80001768:	fd350593          	addi	a1,a0,-45
8000176c:	5eb1a623          	sw	a1,1516(gp)

80001770 <inst_402>:
80001770:	00400513          	li	a0,4
80001774:	02d50593          	addi	a1,a0,45
80001778:	5eb1a823          	sw	a1,1520(gp)

8000177c <inst_403>:
8000177c:	00400513          	li	a0,4
80001780:	00250593          	addi	a1,a0,2
80001784:	5eb1aa23          	sw	a1,1524(gp)

80001788 <inst_404>:
80001788:	00400513          	li	a0,4
8000178c:	55450593          	addi	a1,a0,1364
80001790:	5eb1ac23          	sw	a1,1528(gp)

80001794 <inst_405>:
80001794:	00400513          	li	a0,4
80001798:	00050593          	mv	a1,a0
8000179c:	5eb1ae23          	sw	a1,1532(gp)

800017a0 <inst_406>:
800017a0:	00400513          	li	a0,4
800017a4:	33250593          	addi	a1,a0,818
800017a8:	60b1a023          	sw	a1,1536(gp)

800017ac <inst_407>:
800017ac:	00400513          	li	a0,4
800017b0:	66550593          	addi	a1,a0,1637
800017b4:	60b1a223          	sw	a1,1540(gp)

800017b8 <inst_408>:
800017b8:	00400513          	li	a0,4
800017bc:	02c50593          	addi	a1,a0,44
800017c0:	60b1a423          	sw	a1,1544(gp)

800017c4 <inst_409>:
800017c4:	00400513          	li	a0,4
800017c8:	55650593          	addi	a1,a0,1366
800017cc:	60b1a623          	sw	a1,1548(gp)

800017d0 <inst_410>:
800017d0:	00400513          	li	a0,4
800017d4:	aab50593          	addi	a1,a0,-1365
800017d8:	60b1a823          	sw	a1,1552(gp)

800017dc <inst_411>:
800017dc:	00400513          	li	a0,4
800017e0:	00650593          	addi	a1,a0,6
800017e4:	60b1aa23          	sw	a1,1556(gp)

800017e8 <inst_412>:
800017e8:	00400513          	li	a0,4
800017ec:	33450593          	addi	a1,a0,820
800017f0:	60b1ac23          	sw	a1,1560(gp)

800017f4 <inst_413>:
800017f4:	00400513          	li	a0,4
800017f8:	66750593          	addi	a1,a0,1639
800017fc:	60b1ae23          	sw	a1,1564(gp)

80001800 <inst_414>:
80001800:	00400513          	li	a0,4
80001804:	fd450593          	addi	a1,a0,-44
80001808:	62b1a023          	sw	a1,1568(gp)

8000180c <inst_415>:
8000180c:	00400513          	li	a0,4
80001810:	02e50593          	addi	a1,a0,46
80001814:	62b1a223          	sw	a1,1572(gp)

80001818 <inst_416>:
80001818:	33333537          	lui	a0,0x33333
8000181c:	33250513          	addi	a0,a0,818 # 33333332 <absimm+0x33133332>
80001820:	00350593          	addi	a1,a0,3
80001824:	62b1a423          	sw	a1,1576(gp)

80001828 <inst_417>:
80001828:	33333537          	lui	a0,0x33333
8000182c:	33250513          	addi	a0,a0,818 # 33333332 <absimm+0x33133332>
80001830:	55550593          	addi	a1,a0,1365
80001834:	62b1a623          	sw	a1,1580(gp)

80001838 <inst_418>:
80001838:	33333537          	lui	a0,0x33333
8000183c:	33250513          	addi	a0,a0,818 # 33333332 <absimm+0x33133332>
80001840:	aaa50593          	addi	a1,a0,-1366
80001844:	62b1a823          	sw	a1,1584(gp)

80001848 <inst_419>:
80001848:	33333537          	lui	a0,0x33333
8000184c:	33250513          	addi	a0,a0,818 # 33333332 <absimm+0x33133332>
80001850:	00550593          	addi	a1,a0,5
80001854:	62b1aa23          	sw	a1,1588(gp)

80001858 <inst_420>:
80001858:	33333537          	lui	a0,0x33333
8000185c:	33250513          	addi	a0,a0,818 # 33333332 <absimm+0x33133332>
80001860:	33350593          	addi	a1,a0,819
80001864:	62b1ac23          	sw	a1,1592(gp)

80001868 <inst_421>:
80001868:	33333537          	lui	a0,0x33333
8000186c:	33250513          	addi	a0,a0,818 # 33333332 <absimm+0x33133332>
80001870:	66650593          	addi	a1,a0,1638
80001874:	62b1ae23          	sw	a1,1596(gp)

80001878 <inst_422>:
80001878:	33333537          	lui	a0,0x33333
8000187c:	33250513          	addi	a0,a0,818 # 33333332 <absimm+0x33133332>
80001880:	fd350593          	addi	a1,a0,-45
80001884:	64b1a023          	sw	a1,1600(gp)

80001888 <inst_423>:
80001888:	33333537          	lui	a0,0x33333
8000188c:	33250513          	addi	a0,a0,818 # 33333332 <absimm+0x33133332>
80001890:	02d50593          	addi	a1,a0,45
80001894:	64b1a223          	sw	a1,1604(gp)

80001898 <inst_424>:
80001898:	33333537          	lui	a0,0x33333
8000189c:	33250513          	addi	a0,a0,818 # 33333332 <absimm+0x33133332>
800018a0:	00250593          	addi	a1,a0,2
800018a4:	64b1a423          	sw	a1,1608(gp)

800018a8 <inst_425>:
800018a8:	33333537          	lui	a0,0x33333
800018ac:	33250513          	addi	a0,a0,818 # 33333332 <absimm+0x33133332>
800018b0:	55450593          	addi	a1,a0,1364
800018b4:	64b1a623          	sw	a1,1612(gp)

800018b8 <inst_426>:
800018b8:	33333537          	lui	a0,0x33333
800018bc:	33250513          	addi	a0,a0,818 # 33333332 <absimm+0x33133332>
800018c0:	00050593          	mv	a1,a0
800018c4:	64b1a823          	sw	a1,1616(gp)

800018c8 <inst_427>:
800018c8:	33333537          	lui	a0,0x33333
800018cc:	33250513          	addi	a0,a0,818 # 33333332 <absimm+0x33133332>
800018d0:	00450593          	addi	a1,a0,4
800018d4:	64b1aa23          	sw	a1,1620(gp)

800018d8 <inst_428>:
800018d8:	33333537          	lui	a0,0x33333
800018dc:	33250513          	addi	a0,a0,818 # 33333332 <absimm+0x33133332>
800018e0:	33250593          	addi	a1,a0,818
800018e4:	64b1ac23          	sw	a1,1624(gp)

800018e8 <inst_429>:
800018e8:	33333537          	lui	a0,0x33333
800018ec:	33250513          	addi	a0,a0,818 # 33333332 <absimm+0x33133332>
800018f0:	66550593          	addi	a1,a0,1637
800018f4:	64b1ae23          	sw	a1,1628(gp)

800018f8 <inst_430>:
800018f8:	33333537          	lui	a0,0x33333
800018fc:	33250513          	addi	a0,a0,818 # 33333332 <absimm+0x33133332>
80001900:	02c50593          	addi	a1,a0,44
80001904:	66b1a023          	sw	a1,1632(gp)

80001908 <inst_431>:
80001908:	33333537          	lui	a0,0x33333
8000190c:	33250513          	addi	a0,a0,818 # 33333332 <absimm+0x33133332>
80001910:	55650593          	addi	a1,a0,1366
80001914:	66b1a223          	sw	a1,1636(gp)

80001918 <inst_432>:
80001918:	33333537          	lui	a0,0x33333
8000191c:	33250513          	addi	a0,a0,818 # 33333332 <absimm+0x33133332>
80001920:	aab50593          	addi	a1,a0,-1365
80001924:	66b1a423          	sw	a1,1640(gp)

80001928 <inst_433>:
80001928:	33333537          	lui	a0,0x33333
8000192c:	33250513          	addi	a0,a0,818 # 33333332 <absimm+0x33133332>
80001930:	00650593          	addi	a1,a0,6
80001934:	66b1a623          	sw	a1,1644(gp)

80001938 <inst_434>:
80001938:	33333537          	lui	a0,0x33333
8000193c:	33250513          	addi	a0,a0,818 # 33333332 <absimm+0x33133332>
80001940:	33450593          	addi	a1,a0,820
80001944:	66b1a823          	sw	a1,1648(gp)

80001948 <inst_435>:
80001948:	33333537          	lui	a0,0x33333
8000194c:	33250513          	addi	a0,a0,818 # 33333332 <absimm+0x33133332>
80001950:	66750593          	addi	a1,a0,1639
80001954:	66b1aa23          	sw	a1,1652(gp)

80001958 <inst_436>:
80001958:	33333537          	lui	a0,0x33333
8000195c:	33250513          	addi	a0,a0,818 # 33333332 <absimm+0x33133332>
80001960:	fd450593          	addi	a1,a0,-44
80001964:	66b1ac23          	sw	a1,1656(gp)

80001968 <inst_437>:
80001968:	33333537          	lui	a0,0x33333
8000196c:	33250513          	addi	a0,a0,818 # 33333332 <absimm+0x33133332>
80001970:	02e50593          	addi	a1,a0,46
80001974:	66b1ae23          	sw	a1,1660(gp)

80001978 <inst_438>:
80001978:	66666537          	lui	a0,0x66666
8000197c:	66550513          	addi	a0,a0,1637 # 66666665 <absimm+0x66466665>
80001980:	00350593          	addi	a1,a0,3
80001984:	68b1a023          	sw	a1,1664(gp)

80001988 <inst_439>:
80001988:	66666537          	lui	a0,0x66666
8000198c:	66550513          	addi	a0,a0,1637 # 66666665 <absimm+0x66466665>
80001990:	55550593          	addi	a1,a0,1365
80001994:	68b1a223          	sw	a1,1668(gp)

80001998 <inst_440>:
80001998:	66666537          	lui	a0,0x66666
8000199c:	66550513          	addi	a0,a0,1637 # 66666665 <absimm+0x66466665>
800019a0:	aaa50593          	addi	a1,a0,-1366
800019a4:	68b1a423          	sw	a1,1672(gp)

800019a8 <inst_441>:
800019a8:	66666537          	lui	a0,0x66666
800019ac:	66550513          	addi	a0,a0,1637 # 66666665 <absimm+0x66466665>
800019b0:	00550593          	addi	a1,a0,5
800019b4:	68b1a623          	sw	a1,1676(gp)

800019b8 <inst_442>:
800019b8:	66666537          	lui	a0,0x66666
800019bc:	66550513          	addi	a0,a0,1637 # 66666665 <absimm+0x66466665>
800019c0:	33350593          	addi	a1,a0,819
800019c4:	68b1a823          	sw	a1,1680(gp)

800019c8 <inst_443>:
800019c8:	66666537          	lui	a0,0x66666
800019cc:	66550513          	addi	a0,a0,1637 # 66666665 <absimm+0x66466665>
800019d0:	66650593          	addi	a1,a0,1638
800019d4:	68b1aa23          	sw	a1,1684(gp)

800019d8 <inst_444>:
800019d8:	66666537          	lui	a0,0x66666
800019dc:	66550513          	addi	a0,a0,1637 # 66666665 <absimm+0x66466665>
800019e0:	fd350593          	addi	a1,a0,-45
800019e4:	68b1ac23          	sw	a1,1688(gp)

800019e8 <inst_445>:
800019e8:	66666537          	lui	a0,0x66666
800019ec:	66550513          	addi	a0,a0,1637 # 66666665 <absimm+0x66466665>
800019f0:	02d50593          	addi	a1,a0,45
800019f4:	68b1ae23          	sw	a1,1692(gp)

800019f8 <inst_446>:
800019f8:	66666537          	lui	a0,0x66666
800019fc:	66550513          	addi	a0,a0,1637 # 66666665 <absimm+0x66466665>
80001a00:	00250593          	addi	a1,a0,2
80001a04:	6ab1a023          	sw	a1,1696(gp)

80001a08 <inst_447>:
80001a08:	66666537          	lui	a0,0x66666
80001a0c:	66550513          	addi	a0,a0,1637 # 66666665 <absimm+0x66466665>
80001a10:	55450593          	addi	a1,a0,1364
80001a14:	6ab1a223          	sw	a1,1700(gp)

80001a18 <inst_448>:
80001a18:	66666537          	lui	a0,0x66666
80001a1c:	66550513          	addi	a0,a0,1637 # 66666665 <absimm+0x66466665>
80001a20:	00050593          	mv	a1,a0
80001a24:	6ab1a423          	sw	a1,1704(gp)

80001a28 <inst_449>:
80001a28:	66666537          	lui	a0,0x66666
80001a2c:	66550513          	addi	a0,a0,1637 # 66666665 <absimm+0x66466665>
80001a30:	00450593          	addi	a1,a0,4
80001a34:	6ab1a623          	sw	a1,1708(gp)

80001a38 <inst_450>:
80001a38:	66666537          	lui	a0,0x66666
80001a3c:	66550513          	addi	a0,a0,1637 # 66666665 <absimm+0x66466665>
80001a40:	33250593          	addi	a1,a0,818
80001a44:	6ab1a823          	sw	a1,1712(gp)

80001a48 <inst_451>:
80001a48:	66666537          	lui	a0,0x66666
80001a4c:	66550513          	addi	a0,a0,1637 # 66666665 <absimm+0x66466665>
80001a50:	66550593          	addi	a1,a0,1637
80001a54:	6ab1aa23          	sw	a1,1716(gp)

80001a58 <inst_452>:
80001a58:	66666537          	lui	a0,0x66666
80001a5c:	66550513          	addi	a0,a0,1637 # 66666665 <absimm+0x66466665>
80001a60:	02c50593          	addi	a1,a0,44
80001a64:	6ab1ac23          	sw	a1,1720(gp)

80001a68 <inst_453>:
80001a68:	66666537          	lui	a0,0x66666
80001a6c:	66550513          	addi	a0,a0,1637 # 66666665 <absimm+0x66466665>
80001a70:	55650593          	addi	a1,a0,1366
80001a74:	6ab1ae23          	sw	a1,1724(gp)

80001a78 <inst_454>:
80001a78:	66666537          	lui	a0,0x66666
80001a7c:	66550513          	addi	a0,a0,1637 # 66666665 <absimm+0x66466665>
80001a80:	aab50593          	addi	a1,a0,-1365
80001a84:	6cb1a023          	sw	a1,1728(gp)

80001a88 <inst_455>:
80001a88:	66666537          	lui	a0,0x66666
80001a8c:	66550513          	addi	a0,a0,1637 # 66666665 <absimm+0x66466665>
80001a90:	00650593          	addi	a1,a0,6
80001a94:	6cb1a223          	sw	a1,1732(gp)

80001a98 <inst_456>:
80001a98:	66666537          	lui	a0,0x66666
80001a9c:	66550513          	addi	a0,a0,1637 # 66666665 <absimm+0x66466665>
80001aa0:	33450593          	addi	a1,a0,820
80001aa4:	6cb1a423          	sw	a1,1736(gp)

80001aa8 <inst_457>:
80001aa8:	66666537          	lui	a0,0x66666
80001aac:	66550513          	addi	a0,a0,1637 # 66666665 <absimm+0x66466665>
80001ab0:	66750593          	addi	a1,a0,1639
80001ab4:	6cb1a623          	sw	a1,1740(gp)

80001ab8 <inst_458>:
80001ab8:	66666537          	lui	a0,0x66666
80001abc:	66550513          	addi	a0,a0,1637 # 66666665 <absimm+0x66466665>
80001ac0:	fd450593          	addi	a1,a0,-44
80001ac4:	6cb1a823          	sw	a1,1744(gp)

80001ac8 <inst_459>:
80001ac8:	66666537          	lui	a0,0x66666
80001acc:	66550513          	addi	a0,a0,1637 # 66666665 <absimm+0x66466665>
80001ad0:	02e50593          	addi	a1,a0,46
80001ad4:	6cb1aa23          	sw	a1,1748(gp)

80001ad8 <inst_460>:
80001ad8:	0000b537          	lui	a0,0xb
80001adc:	50350513          	addi	a0,a0,1283 # b503 <absimmsh+0xad05>
80001ae0:	00350593          	addi	a1,a0,3
80001ae4:	6cb1ac23          	sw	a1,1752(gp)

80001ae8 <inst_461>:
80001ae8:	0000b537          	lui	a0,0xb
80001aec:	50350513          	addi	a0,a0,1283 # b503 <absimmsh+0xad05>
80001af0:	55550593          	addi	a1,a0,1365
80001af4:	6cb1ae23          	sw	a1,1756(gp)

80001af8 <inst_462>:
80001af8:	0000b537          	lui	a0,0xb
80001afc:	50350513          	addi	a0,a0,1283 # b503 <absimmsh+0xad05>
80001b00:	aaa50593          	addi	a1,a0,-1366
80001b04:	6eb1a023          	sw	a1,1760(gp)

80001b08 <inst_463>:
80001b08:	0000b537          	lui	a0,0xb
80001b0c:	50350513          	addi	a0,a0,1283 # b503 <absimmsh+0xad05>
80001b10:	00550593          	addi	a1,a0,5
80001b14:	6eb1a223          	sw	a1,1764(gp)

80001b18 <inst_464>:
80001b18:	0000b537          	lui	a0,0xb
80001b1c:	50350513          	addi	a0,a0,1283 # b503 <absimmsh+0xad05>
80001b20:	33350593          	addi	a1,a0,819
80001b24:	6eb1a423          	sw	a1,1768(gp)

80001b28 <inst_465>:
80001b28:	0000b537          	lui	a0,0xb
80001b2c:	50350513          	addi	a0,a0,1283 # b503 <absimmsh+0xad05>
80001b30:	66650593          	addi	a1,a0,1638
80001b34:	6eb1a623          	sw	a1,1772(gp)

80001b38 <inst_466>:
80001b38:	0000b537          	lui	a0,0xb
80001b3c:	50350513          	addi	a0,a0,1283 # b503 <absimmsh+0xad05>
80001b40:	fd350593          	addi	a1,a0,-45
80001b44:	6eb1a823          	sw	a1,1776(gp)

80001b48 <inst_467>:
80001b48:	0000b537          	lui	a0,0xb
80001b4c:	50350513          	addi	a0,a0,1283 # b503 <absimmsh+0xad05>
80001b50:	02d50593          	addi	a1,a0,45
80001b54:	6eb1aa23          	sw	a1,1780(gp)

80001b58 <inst_468>:
80001b58:	0000b537          	lui	a0,0xb
80001b5c:	50350513          	addi	a0,a0,1283 # b503 <absimmsh+0xad05>
80001b60:	00250593          	addi	a1,a0,2
80001b64:	6eb1ac23          	sw	a1,1784(gp)

80001b68 <inst_469>:
80001b68:	0000b537          	lui	a0,0xb
80001b6c:	50350513          	addi	a0,a0,1283 # b503 <absimmsh+0xad05>
80001b70:	55450593          	addi	a1,a0,1364
80001b74:	6eb1ae23          	sw	a1,1788(gp)

80001b78 <inst_470>:
80001b78:	0000b537          	lui	a0,0xb
80001b7c:	50350513          	addi	a0,a0,1283 # b503 <absimmsh+0xad05>
80001b80:	00050593          	mv	a1,a0
80001b84:	70b1a023          	sw	a1,1792(gp)

80001b88 <inst_471>:
80001b88:	0000b537          	lui	a0,0xb
80001b8c:	50350513          	addi	a0,a0,1283 # b503 <absimmsh+0xad05>
80001b90:	00450593          	addi	a1,a0,4
80001b94:	70b1a223          	sw	a1,1796(gp)

80001b98 <inst_472>:
80001b98:	0000b537          	lui	a0,0xb
80001b9c:	50350513          	addi	a0,a0,1283 # b503 <absimmsh+0xad05>
80001ba0:	33250593          	addi	a1,a0,818
80001ba4:	70b1a423          	sw	a1,1800(gp)

80001ba8 <inst_473>:
80001ba8:	0000b537          	lui	a0,0xb
80001bac:	50350513          	addi	a0,a0,1283 # b503 <absimmsh+0xad05>
80001bb0:	66550593          	addi	a1,a0,1637
80001bb4:	70b1a623          	sw	a1,1804(gp)

80001bb8 <inst_474>:
80001bb8:	0000b537          	lui	a0,0xb
80001bbc:	50350513          	addi	a0,a0,1283 # b503 <absimmsh+0xad05>
80001bc0:	02c50593          	addi	a1,a0,44
80001bc4:	70b1a823          	sw	a1,1808(gp)

80001bc8 <inst_475>:
80001bc8:	0000b537          	lui	a0,0xb
80001bcc:	50350513          	addi	a0,a0,1283 # b503 <absimmsh+0xad05>
80001bd0:	55650593          	addi	a1,a0,1366
80001bd4:	70b1aa23          	sw	a1,1812(gp)

80001bd8 <inst_476>:
80001bd8:	0000b537          	lui	a0,0xb
80001bdc:	50350513          	addi	a0,a0,1283 # b503 <absimmsh+0xad05>
80001be0:	aab50593          	addi	a1,a0,-1365
80001be4:	70b1ac23          	sw	a1,1816(gp)

80001be8 <inst_477>:
80001be8:	0000b537          	lui	a0,0xb
80001bec:	50350513          	addi	a0,a0,1283 # b503 <absimmsh+0xad05>
80001bf0:	00650593          	addi	a1,a0,6
80001bf4:	70b1ae23          	sw	a1,1820(gp)

80001bf8 <inst_478>:
80001bf8:	0000b537          	lui	a0,0xb
80001bfc:	50350513          	addi	a0,a0,1283 # b503 <absimmsh+0xad05>
80001c00:	33450593          	addi	a1,a0,820
80001c04:	72b1a023          	sw	a1,1824(gp)

80001c08 <inst_479>:
80001c08:	0000b537          	lui	a0,0xb
80001c0c:	50350513          	addi	a0,a0,1283 # b503 <absimmsh+0xad05>
80001c10:	66750593          	addi	a1,a0,1639
80001c14:	72b1a223          	sw	a1,1828(gp)

80001c18 <inst_480>:
80001c18:	0000b537          	lui	a0,0xb
80001c1c:	50350513          	addi	a0,a0,1283 # b503 <absimmsh+0xad05>
80001c20:	fd450593          	addi	a1,a0,-44
80001c24:	72b1a423          	sw	a1,1832(gp)

80001c28 <inst_481>:
80001c28:	0000b537          	lui	a0,0xb
80001c2c:	50350513          	addi	a0,a0,1283 # b503 <absimmsh+0xad05>
80001c30:	02e50593          	addi	a1,a0,46
80001c34:	72b1a623          	sw	a1,1836(gp)

80001c38 <inst_482>:
80001c38:	55555537          	lui	a0,0x55555
80001c3c:	55650513          	addi	a0,a0,1366 # 55555556 <absimm+0x55355556>
80001c40:	00350593          	addi	a1,a0,3
80001c44:	72b1a823          	sw	a1,1840(gp)

80001c48 <inst_483>:
80001c48:	55555537          	lui	a0,0x55555
80001c4c:	55650513          	addi	a0,a0,1366 # 55555556 <absimm+0x55355556>
80001c50:	55550593          	addi	a1,a0,1365
80001c54:	72b1aa23          	sw	a1,1844(gp)

80001c58 <inst_484>:
80001c58:	55555537          	lui	a0,0x55555
80001c5c:	55650513          	addi	a0,a0,1366 # 55555556 <absimm+0x55355556>
80001c60:	aaa50593          	addi	a1,a0,-1366
80001c64:	72b1ac23          	sw	a1,1848(gp)

80001c68 <inst_485>:
80001c68:	55555537          	lui	a0,0x55555
80001c6c:	55650513          	addi	a0,a0,1366 # 55555556 <absimm+0x55355556>
80001c70:	00550593          	addi	a1,a0,5
80001c74:	72b1ae23          	sw	a1,1852(gp)

80001c78 <inst_486>:
80001c78:	55555537          	lui	a0,0x55555
80001c7c:	55650513          	addi	a0,a0,1366 # 55555556 <absimm+0x55355556>
80001c80:	33350593          	addi	a1,a0,819
80001c84:	74b1a023          	sw	a1,1856(gp)

80001c88 <inst_487>:
80001c88:	55555537          	lui	a0,0x55555
80001c8c:	55650513          	addi	a0,a0,1366 # 55555556 <absimm+0x55355556>
80001c90:	66650593          	addi	a1,a0,1638
80001c94:	74b1a223          	sw	a1,1860(gp)

80001c98 <inst_488>:
80001c98:	55555537          	lui	a0,0x55555
80001c9c:	55650513          	addi	a0,a0,1366 # 55555556 <absimm+0x55355556>
80001ca0:	fd350593          	addi	a1,a0,-45
80001ca4:	74b1a423          	sw	a1,1864(gp)

80001ca8 <inst_489>:
80001ca8:	55555537          	lui	a0,0x55555
80001cac:	55650513          	addi	a0,a0,1366 # 55555556 <absimm+0x55355556>
80001cb0:	02d50593          	addi	a1,a0,45
80001cb4:	74b1a623          	sw	a1,1868(gp)

80001cb8 <inst_490>:
80001cb8:	55555537          	lui	a0,0x55555
80001cbc:	55650513          	addi	a0,a0,1366 # 55555556 <absimm+0x55355556>
80001cc0:	00250593          	addi	a1,a0,2
80001cc4:	74b1a823          	sw	a1,1872(gp)

80001cc8 <inst_491>:
80001cc8:	55555537          	lui	a0,0x55555
80001ccc:	55650513          	addi	a0,a0,1366 # 55555556 <absimm+0x55355556>
80001cd0:	55450593          	addi	a1,a0,1364
80001cd4:	74b1aa23          	sw	a1,1876(gp)

80001cd8 <inst_492>:
80001cd8:	55555537          	lui	a0,0x55555
80001cdc:	55650513          	addi	a0,a0,1366 # 55555556 <absimm+0x55355556>
80001ce0:	00050593          	mv	a1,a0
80001ce4:	74b1ac23          	sw	a1,1880(gp)

80001ce8 <inst_493>:
80001ce8:	55555537          	lui	a0,0x55555
80001cec:	55650513          	addi	a0,a0,1366 # 55555556 <absimm+0x55355556>
80001cf0:	00450593          	addi	a1,a0,4
80001cf4:	74b1ae23          	sw	a1,1884(gp)

80001cf8 <inst_494>:
80001cf8:	55555537          	lui	a0,0x55555
80001cfc:	55650513          	addi	a0,a0,1366 # 55555556 <absimm+0x55355556>
80001d00:	33250593          	addi	a1,a0,818
80001d04:	76b1a023          	sw	a1,1888(gp)

80001d08 <inst_495>:
80001d08:	55555537          	lui	a0,0x55555
80001d0c:	55650513          	addi	a0,a0,1366 # 55555556 <absimm+0x55355556>
80001d10:	66550593          	addi	a1,a0,1637
80001d14:	76b1a223          	sw	a1,1892(gp)

80001d18 <inst_496>:
80001d18:	55555537          	lui	a0,0x55555
80001d1c:	55650513          	addi	a0,a0,1366 # 55555556 <absimm+0x55355556>
80001d20:	02c50593          	addi	a1,a0,44
80001d24:	76b1a423          	sw	a1,1896(gp)

80001d28 <inst_497>:
80001d28:	55555537          	lui	a0,0x55555
80001d2c:	55650513          	addi	a0,a0,1366 # 55555556 <absimm+0x55355556>
80001d30:	55650593          	addi	a1,a0,1366
80001d34:	76b1a623          	sw	a1,1900(gp)

80001d38 <inst_498>:
80001d38:	55555537          	lui	a0,0x55555
80001d3c:	55650513          	addi	a0,a0,1366 # 55555556 <absimm+0x55355556>
80001d40:	aab50593          	addi	a1,a0,-1365
80001d44:	76b1a823          	sw	a1,1904(gp)

80001d48 <inst_499>:
80001d48:	55555537          	lui	a0,0x55555
80001d4c:	55650513          	addi	a0,a0,1366 # 55555556 <absimm+0x55355556>
80001d50:	00650593          	addi	a1,a0,6
80001d54:	76b1aa23          	sw	a1,1908(gp)

80001d58 <inst_500>:
80001d58:	55555537          	lui	a0,0x55555
80001d5c:	55650513          	addi	a0,a0,1366 # 55555556 <absimm+0x55355556>
80001d60:	33450593          	addi	a1,a0,820
80001d64:	76b1ac23          	sw	a1,1912(gp)

80001d68 <inst_501>:
80001d68:	55555537          	lui	a0,0x55555
80001d6c:	55650513          	addi	a0,a0,1366 # 55555556 <absimm+0x55355556>
80001d70:	66750593          	addi	a1,a0,1639
80001d74:	76b1ae23          	sw	a1,1916(gp)

80001d78 <inst_502>:
80001d78:	55555537          	lui	a0,0x55555
80001d7c:	55650513          	addi	a0,a0,1366 # 55555556 <absimm+0x55355556>
80001d80:	fd450593          	addi	a1,a0,-44
80001d84:	78b1a023          	sw	a1,1920(gp)

80001d88 <inst_503>:
80001d88:	55555537          	lui	a0,0x55555
80001d8c:	55650513          	addi	a0,a0,1366 # 55555556 <absimm+0x55355556>
80001d90:	02e50593          	addi	a1,a0,46
80001d94:	78b1a223          	sw	a1,1924(gp)

80001d98 <inst_504>:
80001d98:	aaaab537          	lui	a0,0xaaaab
80001d9c:	aab50513          	addi	a0,a0,-1365 # aaaaaaab <imm12+0xaaaaaaac>
80001da0:	00350593          	addi	a1,a0,3
80001da4:	78b1a423          	sw	a1,1928(gp)

80001da8 <inst_505>:
80001da8:	aaaab537          	lui	a0,0xaaaab
80001dac:	aab50513          	addi	a0,a0,-1365 # aaaaaaab <imm12+0xaaaaaaac>
80001db0:	55550593          	addi	a1,a0,1365
80001db4:	78b1a623          	sw	a1,1932(gp)

80001db8 <inst_506>:
80001db8:	aaaab537          	lui	a0,0xaaaab
80001dbc:	aab50513          	addi	a0,a0,-1365 # aaaaaaab <imm12+0xaaaaaaac>
80001dc0:	aaa50593          	addi	a1,a0,-1366
80001dc4:	78b1a823          	sw	a1,1936(gp)

80001dc8 <inst_507>:
80001dc8:	aaaab537          	lui	a0,0xaaaab
80001dcc:	aab50513          	addi	a0,a0,-1365 # aaaaaaab <imm12+0xaaaaaaac>
80001dd0:	00550593          	addi	a1,a0,5
80001dd4:	78b1aa23          	sw	a1,1940(gp)

80001dd8 <inst_508>:
80001dd8:	aaaab537          	lui	a0,0xaaaab
80001ddc:	aab50513          	addi	a0,a0,-1365 # aaaaaaab <imm12+0xaaaaaaac>
80001de0:	33350593          	addi	a1,a0,819
80001de4:	78b1ac23          	sw	a1,1944(gp)

80001de8 <inst_509>:
80001de8:	aaaab537          	lui	a0,0xaaaab
80001dec:	aab50513          	addi	a0,a0,-1365 # aaaaaaab <imm12+0xaaaaaaac>
80001df0:	66650593          	addi	a1,a0,1638
80001df4:	78b1ae23          	sw	a1,1948(gp)

80001df8 <inst_510>:
80001df8:	aaaab537          	lui	a0,0xaaaab
80001dfc:	aab50513          	addi	a0,a0,-1365 # aaaaaaab <imm12+0xaaaaaaac>
80001e00:	fd350593          	addi	a1,a0,-45
80001e04:	7ab1a023          	sw	a1,1952(gp)

80001e08 <inst_511>:
80001e08:	aaaab537          	lui	a0,0xaaaab
80001e0c:	aab50513          	addi	a0,a0,-1365 # aaaaaaab <imm12+0xaaaaaaac>
80001e10:	02d50593          	addi	a1,a0,45
80001e14:	7ab1a223          	sw	a1,1956(gp)

80001e18 <inst_512>:
80001e18:	aaaab537          	lui	a0,0xaaaab
80001e1c:	aab50513          	addi	a0,a0,-1365 # aaaaaaab <imm12+0xaaaaaaac>
80001e20:	00250593          	addi	a1,a0,2
80001e24:	7ab1a423          	sw	a1,1960(gp)

80001e28 <inst_513>:
80001e28:	aaaab537          	lui	a0,0xaaaab
80001e2c:	aab50513          	addi	a0,a0,-1365 # aaaaaaab <imm12+0xaaaaaaac>
80001e30:	55450593          	addi	a1,a0,1364
80001e34:	7ab1a623          	sw	a1,1964(gp)

80001e38 <inst_514>:
80001e38:	aaaab537          	lui	a0,0xaaaab
80001e3c:	aab50513          	addi	a0,a0,-1365 # aaaaaaab <imm12+0xaaaaaaac>
80001e40:	00050593          	mv	a1,a0
80001e44:	7ab1a823          	sw	a1,1968(gp)

80001e48 <inst_515>:
80001e48:	aaaab537          	lui	a0,0xaaaab
80001e4c:	aab50513          	addi	a0,a0,-1365 # aaaaaaab <imm12+0xaaaaaaac>
80001e50:	00450593          	addi	a1,a0,4
80001e54:	7ab1aa23          	sw	a1,1972(gp)

80001e58 <inst_516>:
80001e58:	aaaab537          	lui	a0,0xaaaab
80001e5c:	aab50513          	addi	a0,a0,-1365 # aaaaaaab <imm12+0xaaaaaaac>
80001e60:	33250593          	addi	a1,a0,818
80001e64:	7ab1ac23          	sw	a1,1976(gp)

80001e68 <inst_517>:
80001e68:	aaaab537          	lui	a0,0xaaaab
80001e6c:	aab50513          	addi	a0,a0,-1365 # aaaaaaab <imm12+0xaaaaaaac>
80001e70:	66550593          	addi	a1,a0,1637
80001e74:	7ab1ae23          	sw	a1,1980(gp)

80001e78 <inst_518>:
80001e78:	aaaab537          	lui	a0,0xaaaab
80001e7c:	aab50513          	addi	a0,a0,-1365 # aaaaaaab <imm12+0xaaaaaaac>
80001e80:	02c50593          	addi	a1,a0,44
80001e84:	7cb1a023          	sw	a1,1984(gp)

80001e88 <inst_519>:
80001e88:	aaaab537          	lui	a0,0xaaaab
80001e8c:	aab50513          	addi	a0,a0,-1365 # aaaaaaab <imm12+0xaaaaaaac>
80001e90:	55650593          	addi	a1,a0,1366
80001e94:	7cb1a223          	sw	a1,1988(gp)

80001e98 <inst_520>:
80001e98:	aaaab537          	lui	a0,0xaaaab
80001e9c:	aab50513          	addi	a0,a0,-1365 # aaaaaaab <imm12+0xaaaaaaac>
80001ea0:	aab50593          	addi	a1,a0,-1365
80001ea4:	7cb1a423          	sw	a1,1992(gp)

80001ea8 <inst_521>:
80001ea8:	aaaab537          	lui	a0,0xaaaab
80001eac:	aab50513          	addi	a0,a0,-1365 # aaaaaaab <imm12+0xaaaaaaac>
80001eb0:	00650593          	addi	a1,a0,6
80001eb4:	7cb1a623          	sw	a1,1996(gp)

80001eb8 <inst_522>:
80001eb8:	aaaab537          	lui	a0,0xaaaab
80001ebc:	aab50513          	addi	a0,a0,-1365 # aaaaaaab <imm12+0xaaaaaaac>
80001ec0:	33450593          	addi	a1,a0,820
80001ec4:	7cb1a823          	sw	a1,2000(gp)

80001ec8 <inst_523>:
80001ec8:	aaaab537          	lui	a0,0xaaaab
80001ecc:	aab50513          	addi	a0,a0,-1365 # aaaaaaab <imm12+0xaaaaaaac>
80001ed0:	66750593          	addi	a1,a0,1639
80001ed4:	7cb1aa23          	sw	a1,2004(gp)

80001ed8 <inst_524>:
80001ed8:	aaaab537          	lui	a0,0xaaaab
80001edc:	aab50513          	addi	a0,a0,-1365 # aaaaaaab <imm12+0xaaaaaaac>
80001ee0:	fd450593          	addi	a1,a0,-44
80001ee4:	7cb1ac23          	sw	a1,2008(gp)

80001ee8 <inst_525>:
80001ee8:	aaaab537          	lui	a0,0xaaaab
80001eec:	aab50513          	addi	a0,a0,-1365 # aaaaaaab <imm12+0xaaaaaaac>
80001ef0:	02e50593          	addi	a1,a0,46
80001ef4:	7cb1ae23          	sw	a1,2012(gp)

80001ef8 <inst_526>:
80001ef8:	00600513          	li	a0,6
80001efc:	00350593          	addi	a1,a0,3
80001f00:	7eb1a023          	sw	a1,2016(gp)

80001f04 <inst_527>:
80001f04:	00600513          	li	a0,6
80001f08:	55550593          	addi	a1,a0,1365
80001f0c:	7eb1a223          	sw	a1,2020(gp)

80001f10 <inst_528>:
80001f10:	00600513          	li	a0,6
80001f14:	aaa50593          	addi	a1,a0,-1366
80001f18:	7eb1a423          	sw	a1,2024(gp)

80001f1c <inst_529>:
80001f1c:	00600513          	li	a0,6
80001f20:	00550593          	addi	a1,a0,5
80001f24:	7eb1a623          	sw	a1,2028(gp)

80001f28 <inst_530>:
80001f28:	00600513          	li	a0,6
80001f2c:	33350593          	addi	a1,a0,819
80001f30:	7eb1a823          	sw	a1,2032(gp)

80001f34 <inst_531>:
80001f34:	00600513          	li	a0,6
80001f38:	66650593          	addi	a1,a0,1638
80001f3c:	7eb1aa23          	sw	a1,2036(gp)

80001f40 <inst_532>:
80001f40:	00600513          	li	a0,6
80001f44:	fd350593          	addi	a1,a0,-45
80001f48:	7eb1ac23          	sw	a1,2040(gp)

80001f4c <inst_533>:
80001f4c:	00600513          	li	a0,6
80001f50:	02d50593          	addi	a1,a0,45
80001f54:	7eb1ae23          	sw	a1,2044(gp)
80001f58:	00004197          	auipc	gp,0x4
80001f5c:	a1418193          	addi	gp,gp,-1516 # 8000596c <signature_x3_1>

80001f60 <inst_534>:
80001f60:	00600513          	li	a0,6
80001f64:	00250593          	addi	a1,a0,2
80001f68:	00b1a023          	sw	a1,0(gp)

80001f6c <inst_535>:
80001f6c:	00600513          	li	a0,6
80001f70:	55450593          	addi	a1,a0,1364
80001f74:	00b1a223          	sw	a1,4(gp)

80001f78 <inst_536>:
80001f78:	00600513          	li	a0,6
80001f7c:	00050593          	mv	a1,a0
80001f80:	00b1a423          	sw	a1,8(gp)

80001f84 <inst_537>:
80001f84:	00600513          	li	a0,6
80001f88:	00450593          	addi	a1,a0,4
80001f8c:	00b1a623          	sw	a1,12(gp)

80001f90 <inst_538>:
80001f90:	00600513          	li	a0,6
80001f94:	33250593          	addi	a1,a0,818
80001f98:	00b1a823          	sw	a1,16(gp)

80001f9c <inst_539>:
80001f9c:	00600513          	li	a0,6
80001fa0:	66550593          	addi	a1,a0,1637
80001fa4:	00b1aa23          	sw	a1,20(gp)

80001fa8 <inst_540>:
80001fa8:	00600513          	li	a0,6
80001fac:	02c50593          	addi	a1,a0,44
80001fb0:	00b1ac23          	sw	a1,24(gp)

80001fb4 <inst_541>:
80001fb4:	00600513          	li	a0,6
80001fb8:	55650593          	addi	a1,a0,1366
80001fbc:	00b1ae23          	sw	a1,28(gp)

80001fc0 <inst_542>:
80001fc0:	00600513          	li	a0,6
80001fc4:	aab50593          	addi	a1,a0,-1365
80001fc8:	02b1a023          	sw	a1,32(gp)

80001fcc <inst_543>:
80001fcc:	00600513          	li	a0,6
80001fd0:	00650593          	addi	a1,a0,6
80001fd4:	02b1a223          	sw	a1,36(gp)

80001fd8 <inst_544>:
80001fd8:	00600513          	li	a0,6
80001fdc:	33450593          	addi	a1,a0,820
80001fe0:	02b1a423          	sw	a1,40(gp)

80001fe4 <inst_545>:
80001fe4:	00600513          	li	a0,6
80001fe8:	66750593          	addi	a1,a0,1639
80001fec:	02b1a623          	sw	a1,44(gp)

80001ff0 <inst_546>:
80001ff0:	00600513          	li	a0,6
80001ff4:	fd450593          	addi	a1,a0,-44
80001ff8:	02b1a823          	sw	a1,48(gp)

80001ffc <inst_547>:
80001ffc:	00600513          	li	a0,6
80002000:	02e50593          	addi	a1,a0,46
80002004:	02b1aa23          	sw	a1,52(gp)

80002008 <inst_548>:
80002008:	33333537          	lui	a0,0x33333
8000200c:	33450513          	addi	a0,a0,820 # 33333334 <absimm+0x33133334>
80002010:	00350593          	addi	a1,a0,3
80002014:	02b1ac23          	sw	a1,56(gp)

80002018 <inst_549>:
80002018:	33333537          	lui	a0,0x33333
8000201c:	33450513          	addi	a0,a0,820 # 33333334 <absimm+0x33133334>
80002020:	55550593          	addi	a1,a0,1365
80002024:	02b1ae23          	sw	a1,60(gp)

80002028 <inst_550>:
80002028:	33333537          	lui	a0,0x33333
8000202c:	33450513          	addi	a0,a0,820 # 33333334 <absimm+0x33133334>
80002030:	aaa50593          	addi	a1,a0,-1366
80002034:	04b1a023          	sw	a1,64(gp)

80002038 <inst_551>:
80002038:	33333537          	lui	a0,0x33333
8000203c:	33450513          	addi	a0,a0,820 # 33333334 <absimm+0x33133334>
80002040:	00550593          	addi	a1,a0,5
80002044:	04b1a223          	sw	a1,68(gp)

80002048 <inst_552>:
80002048:	33333537          	lui	a0,0x33333
8000204c:	33450513          	addi	a0,a0,820 # 33333334 <absimm+0x33133334>
80002050:	33350593          	addi	a1,a0,819
80002054:	04b1a423          	sw	a1,72(gp)

80002058 <inst_553>:
80002058:	33333537          	lui	a0,0x33333
8000205c:	33450513          	addi	a0,a0,820 # 33333334 <absimm+0x33133334>
80002060:	66650593          	addi	a1,a0,1638
80002064:	04b1a623          	sw	a1,76(gp)

80002068 <inst_554>:
80002068:	33333537          	lui	a0,0x33333
8000206c:	33450513          	addi	a0,a0,820 # 33333334 <absimm+0x33133334>
80002070:	fd350593          	addi	a1,a0,-45
80002074:	04b1a823          	sw	a1,80(gp)

80002078 <inst_555>:
80002078:	33333537          	lui	a0,0x33333
8000207c:	33450513          	addi	a0,a0,820 # 33333334 <absimm+0x33133334>
80002080:	02d50593          	addi	a1,a0,45
80002084:	04b1aa23          	sw	a1,84(gp)

80002088 <inst_556>:
80002088:	33333537          	lui	a0,0x33333
8000208c:	33450513          	addi	a0,a0,820 # 33333334 <absimm+0x33133334>
80002090:	00250593          	addi	a1,a0,2
80002094:	04b1ac23          	sw	a1,88(gp)

80002098 <inst_557>:
80002098:	33333537          	lui	a0,0x33333
8000209c:	33450513          	addi	a0,a0,820 # 33333334 <absimm+0x33133334>
800020a0:	55450593          	addi	a1,a0,1364
800020a4:	04b1ae23          	sw	a1,92(gp)

800020a8 <inst_558>:
800020a8:	33333537          	lui	a0,0x33333
800020ac:	33450513          	addi	a0,a0,820 # 33333334 <absimm+0x33133334>
800020b0:	00050593          	mv	a1,a0
800020b4:	06b1a023          	sw	a1,96(gp)

800020b8 <inst_559>:
800020b8:	33333537          	lui	a0,0x33333
800020bc:	33450513          	addi	a0,a0,820 # 33333334 <absimm+0x33133334>
800020c0:	00450593          	addi	a1,a0,4
800020c4:	06b1a223          	sw	a1,100(gp)

800020c8 <inst_560>:
800020c8:	ffe00537          	lui	a0,0xffe00
800020cc:	fff50513          	addi	a0,a0,-1 # ffdfffff <imm12+0xffe00000>
800020d0:	04050593          	addi	a1,a0,64
800020d4:	06b1a423          	sw	a1,104(gp)

800020d8 <cleanup_epilogs>:
800020d8:	0040006f          	j	800020dc <exit_cleanup>

800020dc <exit_cleanup>:
800020dc:	00100093          	li	ra,1

800020e0 <write_tohost>:
800020e0:	00001f17          	auipc	t5,0x1
800020e4:	f21f2023          	sw	ra,-224(t5) # 80003000 <tohost>
800020e8:	ff9ff06f          	j	800020e0 <write_tohost>
	...

Disassembly of section .tohost:

80003000 <tohost>:
	...

80003100 <fromhost>:
	...

Disassembly of section .data:

80004000 <rvtest_trap_sig>:
80004000:	4020                	lw	s0,64(s0)
80004002:	8000                	0x8000
	...

80004010 <rvtest_data_begin>:
80004010:	cafe                	sw	t6,84(sp)
80004012:	babe                	fsd	fa5,368(sp)
80004014:	cafe                	sw	t6,84(sp)
80004016:	babe                	fsd	fa5,368(sp)
80004018:	cafe                	sw	t6,84(sp)
8000401a:	babe                	fsd	fa5,368(sp)
8000401c:	cafe                	sw	t6,84(sp)
8000401e:	babe                	fsd	fa5,368(sp)

80004020 <mtrap_sigptr>:
80004020:	deadbeef          	jal	t4,7ffdf60a <absimm+0x7fddf60a>
80004024:	deadbeef          	jal	t4,7ffdf60e <absimm+0x7fddf60e>

80004028 <rvtest_data_end>:
	...

80005000 <begin_regstate>:
80005000:	0080                	addi	s0,sp,64
	...

80005100 <end_regstate>:
80005100:	0004                	0x4
	...

80005110 <begin_signature>:
80005110:	a309                	j	80005612 <signature_x3_0+0x4a6>
80005112:	6f5c                	flw	fa5,28(a4)

80005114 <signature_x14_0>:
80005114:	deadbeef          	jal	t4,7ffe06fe <absimm+0x7fde06fe>
80005118:	deadbeef          	jal	t4,7ffe0702 <absimm+0x7fde0702>
8000511c:	deadbeef          	jal	t4,7ffe0706 <absimm+0x7fde0706>
80005120:	deadbeef          	jal	t4,7ffe070a <absimm+0x7fde070a>
80005124:	deadbeef          	jal	t4,7ffe070e <absimm+0x7fde070e>
80005128:	deadbeef          	jal	t4,7ffe0712 <absimm+0x7fde0712>
8000512c:	deadbeef          	jal	t4,7ffe0716 <absimm+0x7fde0716>
80005130:	deadbeef          	jal	t4,7ffe071a <absimm+0x7fde071a>
80005134:	deadbeef          	jal	t4,7ffe071e <absimm+0x7fde071e>
80005138:	deadbeef          	jal	t4,7ffe0722 <absimm+0x7fde0722>
8000513c:	deadbeef          	jal	t4,7ffe0726 <absimm+0x7fde0726>
80005140:	deadbeef          	jal	t4,7ffe072a <absimm+0x7fde072a>
80005144:	deadbeef          	jal	t4,7ffe072e <absimm+0x7fde072e>
80005148:	deadbeef          	jal	t4,7ffe0732 <absimm+0x7fde0732>
8000514c:	deadbeef          	jal	t4,7ffe0736 <absimm+0x7fde0736>
80005150:	deadbeef          	jal	t4,7ffe073a <absimm+0x7fde073a>
80005154:	deadbeef          	jal	t4,7ffe073e <absimm+0x7fde073e>
80005158:	deadbeef          	jal	t4,7ffe0742 <absimm+0x7fde0742>
8000515c:	deadbeef          	jal	t4,7ffe0746 <absimm+0x7fde0746>
80005160:	deadbeef          	jal	t4,7ffe074a <absimm+0x7fde074a>
80005164:	deadbeef          	jal	t4,7ffe074e <absimm+0x7fde074e>
80005168:	deadbeef          	jal	t4,7ffe0752 <absimm+0x7fde0752>

8000516c <signature_x3_0>:
8000516c:	deadbeef          	jal	t4,7ffe0756 <absimm+0x7fde0756>
80005170:	deadbeef          	jal	t4,7ffe075a <absimm+0x7fde075a>
80005174:	deadbeef          	jal	t4,7ffe075e <absimm+0x7fde075e>
80005178:	deadbeef          	jal	t4,7ffe0762 <absimm+0x7fde0762>
8000517c:	deadbeef          	jal	t4,7ffe0766 <absimm+0x7fde0766>
80005180:	deadbeef          	jal	t4,7ffe076a <absimm+0x7fde076a>
80005184:	deadbeef          	jal	t4,7ffe076e <absimm+0x7fde076e>
80005188:	deadbeef          	jal	t4,7ffe0772 <absimm+0x7fde0772>
8000518c:	deadbeef          	jal	t4,7ffe0776 <absimm+0x7fde0776>
80005190:	deadbeef          	jal	t4,7ffe077a <absimm+0x7fde077a>
80005194:	deadbeef          	jal	t4,7ffe077e <absimm+0x7fde077e>
80005198:	deadbeef          	jal	t4,7ffe0782 <absimm+0x7fde0782>
8000519c:	deadbeef          	jal	t4,7ffe0786 <absimm+0x7fde0786>
800051a0:	deadbeef          	jal	t4,7ffe078a <absimm+0x7fde078a>
800051a4:	deadbeef          	jal	t4,7ffe078e <absimm+0x7fde078e>
800051a8:	deadbeef          	jal	t4,7ffe0792 <absimm+0x7fde0792>
800051ac:	deadbeef          	jal	t4,7ffe0796 <absimm+0x7fde0796>
800051b0:	deadbeef          	jal	t4,7ffe079a <absimm+0x7fde079a>
800051b4:	deadbeef          	jal	t4,7ffe079e <absimm+0x7fde079e>
800051b8:	deadbeef          	jal	t4,7ffe07a2 <absimm+0x7fde07a2>
800051bc:	deadbeef          	jal	t4,7ffe07a6 <absimm+0x7fde07a6>
800051c0:	deadbeef          	jal	t4,7ffe07aa <absimm+0x7fde07aa>
800051c4:	deadbeef          	jal	t4,7ffe07ae <absimm+0x7fde07ae>
800051c8:	deadbeef          	jal	t4,7ffe07b2 <absimm+0x7fde07b2>
800051cc:	deadbeef          	jal	t4,7ffe07b6 <absimm+0x7fde07b6>
800051d0:	deadbeef          	jal	t4,7ffe07ba <absimm+0x7fde07ba>
800051d4:	deadbeef          	jal	t4,7ffe07be <absimm+0x7fde07be>
800051d8:	deadbeef          	jal	t4,7ffe07c2 <absimm+0x7fde07c2>
800051dc:	deadbeef          	jal	t4,7ffe07c6 <absimm+0x7fde07c6>
800051e0:	deadbeef          	jal	t4,7ffe07ca <absimm+0x7fde07ca>
800051e4:	deadbeef          	jal	t4,7ffe07ce <absimm+0x7fde07ce>
800051e8:	deadbeef          	jal	t4,7ffe07d2 <absimm+0x7fde07d2>
800051ec:	deadbeef          	jal	t4,7ffe07d6 <absimm+0x7fde07d6>
800051f0:	deadbeef          	jal	t4,7ffe07da <absimm+0x7fde07da>
800051f4:	deadbeef          	jal	t4,7ffe07de <absimm+0x7fde07de>
800051f8:	deadbeef          	jal	t4,7ffe07e2 <absimm+0x7fde07e2>
800051fc:	deadbeef          	jal	t4,7ffe07e6 <absimm+0x7fde07e6>
80005200:	deadbeef          	jal	t4,7ffe07ea <absimm+0x7fde07ea>
80005204:	deadbeef          	jal	t4,7ffe07ee <absimm+0x7fde07ee>
80005208:	deadbeef          	jal	t4,7ffe07f2 <absimm+0x7fde07f2>
8000520c:	deadbeef          	jal	t4,7ffe07f6 <absimm+0x7fde07f6>
80005210:	deadbeef          	jal	t4,7ffe07fa <absimm+0x7fde07fa>
80005214:	deadbeef          	jal	t4,7ffe07fe <absimm+0x7fde07fe>
80005218:	deadbeef          	jal	t4,7ffe0802 <absimm+0x7fde0802>
8000521c:	deadbeef          	jal	t4,7ffe0806 <absimm+0x7fde0806>
80005220:	deadbeef          	jal	t4,7ffe080a <absimm+0x7fde080a>
80005224:	deadbeef          	jal	t4,7ffe080e <absimm+0x7fde080e>
80005228:	deadbeef          	jal	t4,7ffe0812 <absimm+0x7fde0812>
8000522c:	deadbeef          	jal	t4,7ffe0816 <absimm+0x7fde0816>
80005230:	deadbeef          	jal	t4,7ffe081a <absimm+0x7fde081a>
80005234:	deadbeef          	jal	t4,7ffe081e <absimm+0x7fde081e>
80005238:	deadbeef          	jal	t4,7ffe0822 <absimm+0x7fde0822>
8000523c:	deadbeef          	jal	t4,7ffe0826 <absimm+0x7fde0826>
80005240:	deadbeef          	jal	t4,7ffe082a <absimm+0x7fde082a>
80005244:	deadbeef          	jal	t4,7ffe082e <absimm+0x7fde082e>
80005248:	deadbeef          	jal	t4,7ffe0832 <absimm+0x7fde0832>
8000524c:	deadbeef          	jal	t4,7ffe0836 <absimm+0x7fde0836>
80005250:	deadbeef          	jal	t4,7ffe083a <absimm+0x7fde083a>
80005254:	deadbeef          	jal	t4,7ffe083e <absimm+0x7fde083e>
80005258:	deadbeef          	jal	t4,7ffe0842 <absimm+0x7fde0842>
8000525c:	deadbeef          	jal	t4,7ffe0846 <absimm+0x7fde0846>
80005260:	deadbeef          	jal	t4,7ffe084a <absimm+0x7fde084a>
80005264:	deadbeef          	jal	t4,7ffe084e <absimm+0x7fde084e>
80005268:	deadbeef          	jal	t4,7ffe0852 <absimm+0x7fde0852>
8000526c:	deadbeef          	jal	t4,7ffe0856 <absimm+0x7fde0856>
80005270:	deadbeef          	jal	t4,7ffe085a <absimm+0x7fde085a>
80005274:	deadbeef          	jal	t4,7ffe085e <absimm+0x7fde085e>
80005278:	deadbeef          	jal	t4,7ffe0862 <absimm+0x7fde0862>
8000527c:	deadbeef          	jal	t4,7ffe0866 <absimm+0x7fde0866>
80005280:	deadbeef          	jal	t4,7ffe086a <absimm+0x7fde086a>
80005284:	deadbeef          	jal	t4,7ffe086e <absimm+0x7fde086e>
80005288:	deadbeef          	jal	t4,7ffe0872 <absimm+0x7fde0872>
8000528c:	deadbeef          	jal	t4,7ffe0876 <absimm+0x7fde0876>
80005290:	deadbeef          	jal	t4,7ffe087a <absimm+0x7fde087a>
80005294:	deadbeef          	jal	t4,7ffe087e <absimm+0x7fde087e>
80005298:	deadbeef          	jal	t4,7ffe0882 <absimm+0x7fde0882>
8000529c:	deadbeef          	jal	t4,7ffe0886 <absimm+0x7fde0886>
800052a0:	deadbeef          	jal	t4,7ffe088a <absimm+0x7fde088a>
800052a4:	deadbeef          	jal	t4,7ffe088e <absimm+0x7fde088e>
800052a8:	deadbeef          	jal	t4,7ffe0892 <absimm+0x7fde0892>
800052ac:	deadbeef          	jal	t4,7ffe0896 <absimm+0x7fde0896>
800052b0:	deadbeef          	jal	t4,7ffe089a <absimm+0x7fde089a>
800052b4:	deadbeef          	jal	t4,7ffe089e <absimm+0x7fde089e>
800052b8:	deadbeef          	jal	t4,7ffe08a2 <absimm+0x7fde08a2>
800052bc:	deadbeef          	jal	t4,7ffe08a6 <absimm+0x7fde08a6>
800052c0:	deadbeef          	jal	t4,7ffe08aa <absimm+0x7fde08aa>
800052c4:	deadbeef          	jal	t4,7ffe08ae <absimm+0x7fde08ae>
800052c8:	deadbeef          	jal	t4,7ffe08b2 <absimm+0x7fde08b2>
800052cc:	deadbeef          	jal	t4,7ffe08b6 <absimm+0x7fde08b6>
800052d0:	deadbeef          	jal	t4,7ffe08ba <absimm+0x7fde08ba>
800052d4:	deadbeef          	jal	t4,7ffe08be <absimm+0x7fde08be>
800052d8:	deadbeef          	jal	t4,7ffe08c2 <absimm+0x7fde08c2>
800052dc:	deadbeef          	jal	t4,7ffe08c6 <absimm+0x7fde08c6>
800052e0:	deadbeef          	jal	t4,7ffe08ca <absimm+0x7fde08ca>
800052e4:	deadbeef          	jal	t4,7ffe08ce <absimm+0x7fde08ce>
800052e8:	deadbeef          	jal	t4,7ffe08d2 <absimm+0x7fde08d2>
800052ec:	deadbeef          	jal	t4,7ffe08d6 <absimm+0x7fde08d6>
800052f0:	deadbeef          	jal	t4,7ffe08da <absimm+0x7fde08da>
800052f4:	deadbeef          	jal	t4,7ffe08de <absimm+0x7fde08de>
800052f8:	deadbeef          	jal	t4,7ffe08e2 <absimm+0x7fde08e2>
800052fc:	deadbeef          	jal	t4,7ffe08e6 <absimm+0x7fde08e6>
80005300:	deadbeef          	jal	t4,7ffe08ea <absimm+0x7fde08ea>
80005304:	deadbeef          	jal	t4,7ffe08ee <absimm+0x7fde08ee>
80005308:	deadbeef          	jal	t4,7ffe08f2 <absimm+0x7fde08f2>
8000530c:	deadbeef          	jal	t4,7ffe08f6 <absimm+0x7fde08f6>
80005310:	deadbeef          	jal	t4,7ffe08fa <absimm+0x7fde08fa>
80005314:	deadbeef          	jal	t4,7ffe08fe <absimm+0x7fde08fe>
80005318:	deadbeef          	jal	t4,7ffe0902 <absimm+0x7fde0902>
8000531c:	deadbeef          	jal	t4,7ffe0906 <absimm+0x7fde0906>
80005320:	deadbeef          	jal	t4,7ffe090a <absimm+0x7fde090a>
80005324:	deadbeef          	jal	t4,7ffe090e <absimm+0x7fde090e>
80005328:	deadbeef          	jal	t4,7ffe0912 <absimm+0x7fde0912>
8000532c:	deadbeef          	jal	t4,7ffe0916 <absimm+0x7fde0916>
80005330:	deadbeef          	jal	t4,7ffe091a <absimm+0x7fde091a>
80005334:	deadbeef          	jal	t4,7ffe091e <absimm+0x7fde091e>
80005338:	deadbeef          	jal	t4,7ffe0922 <absimm+0x7fde0922>
8000533c:	deadbeef          	jal	t4,7ffe0926 <absimm+0x7fde0926>
80005340:	deadbeef          	jal	t4,7ffe092a <absimm+0x7fde092a>
80005344:	deadbeef          	jal	t4,7ffe092e <absimm+0x7fde092e>
80005348:	deadbeef          	jal	t4,7ffe0932 <absimm+0x7fde0932>
8000534c:	deadbeef          	jal	t4,7ffe0936 <absimm+0x7fde0936>
80005350:	deadbeef          	jal	t4,7ffe093a <absimm+0x7fde093a>
80005354:	deadbeef          	jal	t4,7ffe093e <absimm+0x7fde093e>
80005358:	deadbeef          	jal	t4,7ffe0942 <absimm+0x7fde0942>
8000535c:	deadbeef          	jal	t4,7ffe0946 <absimm+0x7fde0946>
80005360:	deadbeef          	jal	t4,7ffe094a <absimm+0x7fde094a>
80005364:	deadbeef          	jal	t4,7ffe094e <absimm+0x7fde094e>
80005368:	deadbeef          	jal	t4,7ffe0952 <absimm+0x7fde0952>
8000536c:	deadbeef          	jal	t4,7ffe0956 <absimm+0x7fde0956>
80005370:	deadbeef          	jal	t4,7ffe095a <absimm+0x7fde095a>
80005374:	deadbeef          	jal	t4,7ffe095e <absimm+0x7fde095e>
80005378:	deadbeef          	jal	t4,7ffe0962 <absimm+0x7fde0962>
8000537c:	deadbeef          	jal	t4,7ffe0966 <absimm+0x7fde0966>
80005380:	deadbeef          	jal	t4,7ffe096a <absimm+0x7fde096a>
80005384:	deadbeef          	jal	t4,7ffe096e <absimm+0x7fde096e>
80005388:	deadbeef          	jal	t4,7ffe0972 <absimm+0x7fde0972>
8000538c:	deadbeef          	jal	t4,7ffe0976 <absimm+0x7fde0976>
80005390:	deadbeef          	jal	t4,7ffe097a <absimm+0x7fde097a>
80005394:	deadbeef          	jal	t4,7ffe097e <absimm+0x7fde097e>
80005398:	deadbeef          	jal	t4,7ffe0982 <absimm+0x7fde0982>
8000539c:	deadbeef          	jal	t4,7ffe0986 <absimm+0x7fde0986>
800053a0:	deadbeef          	jal	t4,7ffe098a <absimm+0x7fde098a>
800053a4:	deadbeef          	jal	t4,7ffe098e <absimm+0x7fde098e>
800053a8:	deadbeef          	jal	t4,7ffe0992 <absimm+0x7fde0992>
800053ac:	deadbeef          	jal	t4,7ffe0996 <absimm+0x7fde0996>
800053b0:	deadbeef          	jal	t4,7ffe099a <absimm+0x7fde099a>
800053b4:	deadbeef          	jal	t4,7ffe099e <absimm+0x7fde099e>
800053b8:	deadbeef          	jal	t4,7ffe09a2 <absimm+0x7fde09a2>
800053bc:	deadbeef          	jal	t4,7ffe09a6 <absimm+0x7fde09a6>
800053c0:	deadbeef          	jal	t4,7ffe09aa <absimm+0x7fde09aa>
800053c4:	deadbeef          	jal	t4,7ffe09ae <absimm+0x7fde09ae>
800053c8:	deadbeef          	jal	t4,7ffe09b2 <absimm+0x7fde09b2>
800053cc:	deadbeef          	jal	t4,7ffe09b6 <absimm+0x7fde09b6>
800053d0:	deadbeef          	jal	t4,7ffe09ba <absimm+0x7fde09ba>
800053d4:	deadbeef          	jal	t4,7ffe09be <absimm+0x7fde09be>
800053d8:	deadbeef          	jal	t4,7ffe09c2 <absimm+0x7fde09c2>
800053dc:	deadbeef          	jal	t4,7ffe09c6 <absimm+0x7fde09c6>
800053e0:	deadbeef          	jal	t4,7ffe09ca <absimm+0x7fde09ca>
800053e4:	deadbeef          	jal	t4,7ffe09ce <absimm+0x7fde09ce>
800053e8:	deadbeef          	jal	t4,7ffe09d2 <absimm+0x7fde09d2>
800053ec:	deadbeef          	jal	t4,7ffe09d6 <absimm+0x7fde09d6>
800053f0:	deadbeef          	jal	t4,7ffe09da <absimm+0x7fde09da>
800053f4:	deadbeef          	jal	t4,7ffe09de <absimm+0x7fde09de>
800053f8:	deadbeef          	jal	t4,7ffe09e2 <absimm+0x7fde09e2>
800053fc:	deadbeef          	jal	t4,7ffe09e6 <absimm+0x7fde09e6>
80005400:	deadbeef          	jal	t4,7ffe09ea <absimm+0x7fde09ea>
80005404:	deadbeef          	jal	t4,7ffe09ee <absimm+0x7fde09ee>
80005408:	deadbeef          	jal	t4,7ffe09f2 <absimm+0x7fde09f2>
8000540c:	deadbeef          	jal	t4,7ffe09f6 <absimm+0x7fde09f6>
80005410:	deadbeef          	jal	t4,7ffe09fa <absimm+0x7fde09fa>
80005414:	deadbeef          	jal	t4,7ffe09fe <absimm+0x7fde09fe>
80005418:	deadbeef          	jal	t4,7ffe0a02 <absimm+0x7fde0a02>
8000541c:	deadbeef          	jal	t4,7ffe0a06 <absimm+0x7fde0a06>
80005420:	deadbeef          	jal	t4,7ffe0a0a <absimm+0x7fde0a0a>
80005424:	deadbeef          	jal	t4,7ffe0a0e <absimm+0x7fde0a0e>
80005428:	deadbeef          	jal	t4,7ffe0a12 <absimm+0x7fde0a12>
8000542c:	deadbeef          	jal	t4,7ffe0a16 <absimm+0x7fde0a16>
80005430:	deadbeef          	jal	t4,7ffe0a1a <absimm+0x7fde0a1a>
80005434:	deadbeef          	jal	t4,7ffe0a1e <absimm+0x7fde0a1e>
80005438:	deadbeef          	jal	t4,7ffe0a22 <absimm+0x7fde0a22>
8000543c:	deadbeef          	jal	t4,7ffe0a26 <absimm+0x7fde0a26>
80005440:	deadbeef          	jal	t4,7ffe0a2a <absimm+0x7fde0a2a>
80005444:	deadbeef          	jal	t4,7ffe0a2e <absimm+0x7fde0a2e>
80005448:	deadbeef          	jal	t4,7ffe0a32 <absimm+0x7fde0a32>
8000544c:	deadbeef          	jal	t4,7ffe0a36 <absimm+0x7fde0a36>
80005450:	deadbeef          	jal	t4,7ffe0a3a <absimm+0x7fde0a3a>
80005454:	deadbeef          	jal	t4,7ffe0a3e <absimm+0x7fde0a3e>
80005458:	deadbeef          	jal	t4,7ffe0a42 <absimm+0x7fde0a42>
8000545c:	deadbeef          	jal	t4,7ffe0a46 <absimm+0x7fde0a46>
80005460:	deadbeef          	jal	t4,7ffe0a4a <absimm+0x7fde0a4a>
80005464:	deadbeef          	jal	t4,7ffe0a4e <absimm+0x7fde0a4e>
80005468:	deadbeef          	jal	t4,7ffe0a52 <absimm+0x7fde0a52>
8000546c:	deadbeef          	jal	t4,7ffe0a56 <absimm+0x7fde0a56>
80005470:	deadbeef          	jal	t4,7ffe0a5a <absimm+0x7fde0a5a>
80005474:	deadbeef          	jal	t4,7ffe0a5e <absimm+0x7fde0a5e>
80005478:	deadbeef          	jal	t4,7ffe0a62 <absimm+0x7fde0a62>
8000547c:	deadbeef          	jal	t4,7ffe0a66 <absimm+0x7fde0a66>
80005480:	deadbeef          	jal	t4,7ffe0a6a <absimm+0x7fde0a6a>
80005484:	deadbeef          	jal	t4,7ffe0a6e <absimm+0x7fde0a6e>
80005488:	deadbeef          	jal	t4,7ffe0a72 <absimm+0x7fde0a72>
8000548c:	deadbeef          	jal	t4,7ffe0a76 <absimm+0x7fde0a76>
80005490:	deadbeef          	jal	t4,7ffe0a7a <absimm+0x7fde0a7a>
80005494:	deadbeef          	jal	t4,7ffe0a7e <absimm+0x7fde0a7e>
80005498:	deadbeef          	jal	t4,7ffe0a82 <absimm+0x7fde0a82>
8000549c:	deadbeef          	jal	t4,7ffe0a86 <absimm+0x7fde0a86>
800054a0:	deadbeef          	jal	t4,7ffe0a8a <absimm+0x7fde0a8a>
800054a4:	deadbeef          	jal	t4,7ffe0a8e <absimm+0x7fde0a8e>
800054a8:	deadbeef          	jal	t4,7ffe0a92 <absimm+0x7fde0a92>
800054ac:	deadbeef          	jal	t4,7ffe0a96 <absimm+0x7fde0a96>
800054b0:	deadbeef          	jal	t4,7ffe0a9a <absimm+0x7fde0a9a>
800054b4:	deadbeef          	jal	t4,7ffe0a9e <absimm+0x7fde0a9e>
800054b8:	deadbeef          	jal	t4,7ffe0aa2 <absimm+0x7fde0aa2>
800054bc:	deadbeef          	jal	t4,7ffe0aa6 <absimm+0x7fde0aa6>
800054c0:	deadbeef          	jal	t4,7ffe0aaa <absimm+0x7fde0aaa>
800054c4:	deadbeef          	jal	t4,7ffe0aae <absimm+0x7fde0aae>
800054c8:	deadbeef          	jal	t4,7ffe0ab2 <absimm+0x7fde0ab2>
800054cc:	deadbeef          	jal	t4,7ffe0ab6 <absimm+0x7fde0ab6>
800054d0:	deadbeef          	jal	t4,7ffe0aba <absimm+0x7fde0aba>
800054d4:	deadbeef          	jal	t4,7ffe0abe <absimm+0x7fde0abe>
800054d8:	deadbeef          	jal	t4,7ffe0ac2 <absimm+0x7fde0ac2>
800054dc:	deadbeef          	jal	t4,7ffe0ac6 <absimm+0x7fde0ac6>
800054e0:	deadbeef          	jal	t4,7ffe0aca <absimm+0x7fde0aca>
800054e4:	deadbeef          	jal	t4,7ffe0ace <absimm+0x7fde0ace>
800054e8:	deadbeef          	jal	t4,7ffe0ad2 <absimm+0x7fde0ad2>
800054ec:	deadbeef          	jal	t4,7ffe0ad6 <absimm+0x7fde0ad6>
800054f0:	deadbeef          	jal	t4,7ffe0ada <absimm+0x7fde0ada>
800054f4:	deadbeef          	jal	t4,7ffe0ade <absimm+0x7fde0ade>
800054f8:	deadbeef          	jal	t4,7ffe0ae2 <absimm+0x7fde0ae2>
800054fc:	deadbeef          	jal	t4,7ffe0ae6 <absimm+0x7fde0ae6>
80005500:	deadbeef          	jal	t4,7ffe0aea <absimm+0x7fde0aea>
80005504:	deadbeef          	jal	t4,7ffe0aee <absimm+0x7fde0aee>
80005508:	deadbeef          	jal	t4,7ffe0af2 <absimm+0x7fde0af2>
8000550c:	deadbeef          	jal	t4,7ffe0af6 <absimm+0x7fde0af6>
80005510:	deadbeef          	jal	t4,7ffe0afa <absimm+0x7fde0afa>
80005514:	deadbeef          	jal	t4,7ffe0afe <absimm+0x7fde0afe>
80005518:	deadbeef          	jal	t4,7ffe0b02 <absimm+0x7fde0b02>
8000551c:	deadbeef          	jal	t4,7ffe0b06 <absimm+0x7fde0b06>
80005520:	deadbeef          	jal	t4,7ffe0b0a <absimm+0x7fde0b0a>
80005524:	deadbeef          	jal	t4,7ffe0b0e <absimm+0x7fde0b0e>
80005528:	deadbeef          	jal	t4,7ffe0b12 <absimm+0x7fde0b12>
8000552c:	deadbeef          	jal	t4,7ffe0b16 <absimm+0x7fde0b16>
80005530:	deadbeef          	jal	t4,7ffe0b1a <absimm+0x7fde0b1a>
80005534:	deadbeef          	jal	t4,7ffe0b1e <absimm+0x7fde0b1e>
80005538:	deadbeef          	jal	t4,7ffe0b22 <absimm+0x7fde0b22>
8000553c:	deadbeef          	jal	t4,7ffe0b26 <absimm+0x7fde0b26>
80005540:	deadbeef          	jal	t4,7ffe0b2a <absimm+0x7fde0b2a>
80005544:	deadbeef          	jal	t4,7ffe0b2e <absimm+0x7fde0b2e>
80005548:	deadbeef          	jal	t4,7ffe0b32 <absimm+0x7fde0b32>
8000554c:	deadbeef          	jal	t4,7ffe0b36 <absimm+0x7fde0b36>
80005550:	deadbeef          	jal	t4,7ffe0b3a <absimm+0x7fde0b3a>
80005554:	deadbeef          	jal	t4,7ffe0b3e <absimm+0x7fde0b3e>
80005558:	deadbeef          	jal	t4,7ffe0b42 <absimm+0x7fde0b42>
8000555c:	deadbeef          	jal	t4,7ffe0b46 <absimm+0x7fde0b46>
80005560:	deadbeef          	jal	t4,7ffe0b4a <absimm+0x7fde0b4a>
80005564:	deadbeef          	jal	t4,7ffe0b4e <absimm+0x7fde0b4e>
80005568:	deadbeef          	jal	t4,7ffe0b52 <absimm+0x7fde0b52>
8000556c:	deadbeef          	jal	t4,7ffe0b56 <absimm+0x7fde0b56>
80005570:	deadbeef          	jal	t4,7ffe0b5a <absimm+0x7fde0b5a>
80005574:	deadbeef          	jal	t4,7ffe0b5e <absimm+0x7fde0b5e>
80005578:	deadbeef          	jal	t4,7ffe0b62 <absimm+0x7fde0b62>
8000557c:	deadbeef          	jal	t4,7ffe0b66 <absimm+0x7fde0b66>
80005580:	deadbeef          	jal	t4,7ffe0b6a <absimm+0x7fde0b6a>
80005584:	deadbeef          	jal	t4,7ffe0b6e <absimm+0x7fde0b6e>
80005588:	deadbeef          	jal	t4,7ffe0b72 <absimm+0x7fde0b72>
8000558c:	deadbeef          	jal	t4,7ffe0b76 <absimm+0x7fde0b76>
80005590:	deadbeef          	jal	t4,7ffe0b7a <absimm+0x7fde0b7a>
80005594:	deadbeef          	jal	t4,7ffe0b7e <absimm+0x7fde0b7e>
80005598:	deadbeef          	jal	t4,7ffe0b82 <absimm+0x7fde0b82>
8000559c:	deadbeef          	jal	t4,7ffe0b86 <absimm+0x7fde0b86>
800055a0:	deadbeef          	jal	t4,7ffe0b8a <absimm+0x7fde0b8a>
800055a4:	deadbeef          	jal	t4,7ffe0b8e <absimm+0x7fde0b8e>
800055a8:	deadbeef          	jal	t4,7ffe0b92 <absimm+0x7fde0b92>
800055ac:	deadbeef          	jal	t4,7ffe0b96 <absimm+0x7fde0b96>
800055b0:	deadbeef          	jal	t4,7ffe0b9a <absimm+0x7fde0b9a>
800055b4:	deadbeef          	jal	t4,7ffe0b9e <absimm+0x7fde0b9e>
800055b8:	deadbeef          	jal	t4,7ffe0ba2 <absimm+0x7fde0ba2>
800055bc:	deadbeef          	jal	t4,7ffe0ba6 <absimm+0x7fde0ba6>
800055c0:	deadbeef          	jal	t4,7ffe0baa <absimm+0x7fde0baa>
800055c4:	deadbeef          	jal	t4,7ffe0bae <absimm+0x7fde0bae>
800055c8:	deadbeef          	jal	t4,7ffe0bb2 <absimm+0x7fde0bb2>
800055cc:	deadbeef          	jal	t4,7ffe0bb6 <absimm+0x7fde0bb6>
800055d0:	deadbeef          	jal	t4,7ffe0bba <absimm+0x7fde0bba>
800055d4:	deadbeef          	jal	t4,7ffe0bbe <absimm+0x7fde0bbe>
800055d8:	deadbeef          	jal	t4,7ffe0bc2 <absimm+0x7fde0bc2>
800055dc:	deadbeef          	jal	t4,7ffe0bc6 <absimm+0x7fde0bc6>
800055e0:	deadbeef          	jal	t4,7ffe0bca <absimm+0x7fde0bca>
800055e4:	deadbeef          	jal	t4,7ffe0bce <absimm+0x7fde0bce>
800055e8:	deadbeef          	jal	t4,7ffe0bd2 <absimm+0x7fde0bd2>
800055ec:	deadbeef          	jal	t4,7ffe0bd6 <absimm+0x7fde0bd6>
800055f0:	deadbeef          	jal	t4,7ffe0bda <absimm+0x7fde0bda>
800055f4:	deadbeef          	jal	t4,7ffe0bde <absimm+0x7fde0bde>
800055f8:	deadbeef          	jal	t4,7ffe0be2 <absimm+0x7fde0be2>
800055fc:	deadbeef          	jal	t4,7ffe0be6 <absimm+0x7fde0be6>
80005600:	deadbeef          	jal	t4,7ffe0bea <absimm+0x7fde0bea>
80005604:	deadbeef          	jal	t4,7ffe0bee <absimm+0x7fde0bee>
80005608:	deadbeef          	jal	t4,7ffe0bf2 <absimm+0x7fde0bf2>
8000560c:	deadbeef          	jal	t4,7ffe0bf6 <absimm+0x7fde0bf6>
80005610:	deadbeef          	jal	t4,7ffe0bfa <absimm+0x7fde0bfa>
80005614:	deadbeef          	jal	t4,7ffe0bfe <absimm+0x7fde0bfe>
80005618:	deadbeef          	jal	t4,7ffe0c02 <absimm+0x7fde0c02>
8000561c:	deadbeef          	jal	t4,7ffe0c06 <absimm+0x7fde0c06>
80005620:	deadbeef          	jal	t4,7ffe0c0a <absimm+0x7fde0c0a>
80005624:	deadbeef          	jal	t4,7ffe0c0e <absimm+0x7fde0c0e>
80005628:	deadbeef          	jal	t4,7ffe0c12 <absimm+0x7fde0c12>
8000562c:	deadbeef          	jal	t4,7ffe0c16 <absimm+0x7fde0c16>
80005630:	deadbeef          	jal	t4,7ffe0c1a <absimm+0x7fde0c1a>
80005634:	deadbeef          	jal	t4,7ffe0c1e <absimm+0x7fde0c1e>
80005638:	deadbeef          	jal	t4,7ffe0c22 <absimm+0x7fde0c22>
8000563c:	deadbeef          	jal	t4,7ffe0c26 <absimm+0x7fde0c26>
80005640:	deadbeef          	jal	t4,7ffe0c2a <absimm+0x7fde0c2a>
80005644:	deadbeef          	jal	t4,7ffe0c2e <absimm+0x7fde0c2e>
80005648:	deadbeef          	jal	t4,7ffe0c32 <absimm+0x7fde0c32>
8000564c:	deadbeef          	jal	t4,7ffe0c36 <absimm+0x7fde0c36>
80005650:	deadbeef          	jal	t4,7ffe0c3a <absimm+0x7fde0c3a>
80005654:	deadbeef          	jal	t4,7ffe0c3e <absimm+0x7fde0c3e>
80005658:	deadbeef          	jal	t4,7ffe0c42 <absimm+0x7fde0c42>
8000565c:	deadbeef          	jal	t4,7ffe0c46 <absimm+0x7fde0c46>
80005660:	deadbeef          	jal	t4,7ffe0c4a <absimm+0x7fde0c4a>
80005664:	deadbeef          	jal	t4,7ffe0c4e <absimm+0x7fde0c4e>
80005668:	deadbeef          	jal	t4,7ffe0c52 <absimm+0x7fde0c52>
8000566c:	deadbeef          	jal	t4,7ffe0c56 <absimm+0x7fde0c56>
80005670:	deadbeef          	jal	t4,7ffe0c5a <absimm+0x7fde0c5a>
80005674:	deadbeef          	jal	t4,7ffe0c5e <absimm+0x7fde0c5e>
80005678:	deadbeef          	jal	t4,7ffe0c62 <absimm+0x7fde0c62>
8000567c:	deadbeef          	jal	t4,7ffe0c66 <absimm+0x7fde0c66>
80005680:	deadbeef          	jal	t4,7ffe0c6a <absimm+0x7fde0c6a>
80005684:	deadbeef          	jal	t4,7ffe0c6e <absimm+0x7fde0c6e>
80005688:	deadbeef          	jal	t4,7ffe0c72 <absimm+0x7fde0c72>
8000568c:	deadbeef          	jal	t4,7ffe0c76 <absimm+0x7fde0c76>
80005690:	deadbeef          	jal	t4,7ffe0c7a <absimm+0x7fde0c7a>
80005694:	deadbeef          	jal	t4,7ffe0c7e <absimm+0x7fde0c7e>
80005698:	deadbeef          	jal	t4,7ffe0c82 <absimm+0x7fde0c82>
8000569c:	deadbeef          	jal	t4,7ffe0c86 <absimm+0x7fde0c86>
800056a0:	deadbeef          	jal	t4,7ffe0c8a <absimm+0x7fde0c8a>
800056a4:	deadbeef          	jal	t4,7ffe0c8e <absimm+0x7fde0c8e>
800056a8:	deadbeef          	jal	t4,7ffe0c92 <absimm+0x7fde0c92>
800056ac:	deadbeef          	jal	t4,7ffe0c96 <absimm+0x7fde0c96>
800056b0:	deadbeef          	jal	t4,7ffe0c9a <absimm+0x7fde0c9a>
800056b4:	deadbeef          	jal	t4,7ffe0c9e <absimm+0x7fde0c9e>
800056b8:	deadbeef          	jal	t4,7ffe0ca2 <absimm+0x7fde0ca2>
800056bc:	deadbeef          	jal	t4,7ffe0ca6 <absimm+0x7fde0ca6>
800056c0:	deadbeef          	jal	t4,7ffe0caa <absimm+0x7fde0caa>
800056c4:	deadbeef          	jal	t4,7ffe0cae <absimm+0x7fde0cae>
800056c8:	deadbeef          	jal	t4,7ffe0cb2 <absimm+0x7fde0cb2>
800056cc:	deadbeef          	jal	t4,7ffe0cb6 <absimm+0x7fde0cb6>
800056d0:	deadbeef          	jal	t4,7ffe0cba <absimm+0x7fde0cba>
800056d4:	deadbeef          	jal	t4,7ffe0cbe <absimm+0x7fde0cbe>
800056d8:	deadbeef          	jal	t4,7ffe0cc2 <absimm+0x7fde0cc2>
800056dc:	deadbeef          	jal	t4,7ffe0cc6 <absimm+0x7fde0cc6>
800056e0:	deadbeef          	jal	t4,7ffe0cca <absimm+0x7fde0cca>
800056e4:	deadbeef          	jal	t4,7ffe0cce <absimm+0x7fde0cce>
800056e8:	deadbeef          	jal	t4,7ffe0cd2 <absimm+0x7fde0cd2>
800056ec:	deadbeef          	jal	t4,7ffe0cd6 <absimm+0x7fde0cd6>
800056f0:	deadbeef          	jal	t4,7ffe0cda <absimm+0x7fde0cda>
800056f4:	deadbeef          	jal	t4,7ffe0cde <absimm+0x7fde0cde>
800056f8:	deadbeef          	jal	t4,7ffe0ce2 <absimm+0x7fde0ce2>
800056fc:	deadbeef          	jal	t4,7ffe0ce6 <absimm+0x7fde0ce6>
80005700:	deadbeef          	jal	t4,7ffe0cea <absimm+0x7fde0cea>
80005704:	deadbeef          	jal	t4,7ffe0cee <absimm+0x7fde0cee>
80005708:	deadbeef          	jal	t4,7ffe0cf2 <absimm+0x7fde0cf2>
8000570c:	deadbeef          	jal	t4,7ffe0cf6 <absimm+0x7fde0cf6>
80005710:	deadbeef          	jal	t4,7ffe0cfa <absimm+0x7fde0cfa>
80005714:	deadbeef          	jal	t4,7ffe0cfe <absimm+0x7fde0cfe>
80005718:	deadbeef          	jal	t4,7ffe0d02 <absimm+0x7fde0d02>
8000571c:	deadbeef          	jal	t4,7ffe0d06 <absimm+0x7fde0d06>
80005720:	deadbeef          	jal	t4,7ffe0d0a <absimm+0x7fde0d0a>
80005724:	deadbeef          	jal	t4,7ffe0d0e <absimm+0x7fde0d0e>
80005728:	deadbeef          	jal	t4,7ffe0d12 <absimm+0x7fde0d12>
8000572c:	deadbeef          	jal	t4,7ffe0d16 <absimm+0x7fde0d16>
80005730:	deadbeef          	jal	t4,7ffe0d1a <absimm+0x7fde0d1a>
80005734:	deadbeef          	jal	t4,7ffe0d1e <absimm+0x7fde0d1e>
80005738:	deadbeef          	jal	t4,7ffe0d22 <absimm+0x7fde0d22>
8000573c:	deadbeef          	jal	t4,7ffe0d26 <absimm+0x7fde0d26>
80005740:	deadbeef          	jal	t4,7ffe0d2a <absimm+0x7fde0d2a>
80005744:	deadbeef          	jal	t4,7ffe0d2e <absimm+0x7fde0d2e>
80005748:	deadbeef          	jal	t4,7ffe0d32 <absimm+0x7fde0d32>
8000574c:	deadbeef          	jal	t4,7ffe0d36 <absimm+0x7fde0d36>
80005750:	deadbeef          	jal	t4,7ffe0d3a <absimm+0x7fde0d3a>
80005754:	deadbeef          	jal	t4,7ffe0d3e <absimm+0x7fde0d3e>
80005758:	deadbeef          	jal	t4,7ffe0d42 <absimm+0x7fde0d42>
8000575c:	deadbeef          	jal	t4,7ffe0d46 <absimm+0x7fde0d46>
80005760:	deadbeef          	jal	t4,7ffe0d4a <absimm+0x7fde0d4a>
80005764:	deadbeef          	jal	t4,7ffe0d4e <absimm+0x7fde0d4e>
80005768:	deadbeef          	jal	t4,7ffe0d52 <absimm+0x7fde0d52>
8000576c:	deadbeef          	jal	t4,7ffe0d56 <absimm+0x7fde0d56>
80005770:	deadbeef          	jal	t4,7ffe0d5a <absimm+0x7fde0d5a>
80005774:	deadbeef          	jal	t4,7ffe0d5e <absimm+0x7fde0d5e>
80005778:	deadbeef          	jal	t4,7ffe0d62 <absimm+0x7fde0d62>
8000577c:	deadbeef          	jal	t4,7ffe0d66 <absimm+0x7fde0d66>
80005780:	deadbeef          	jal	t4,7ffe0d6a <absimm+0x7fde0d6a>
80005784:	deadbeef          	jal	t4,7ffe0d6e <absimm+0x7fde0d6e>
80005788:	deadbeef          	jal	t4,7ffe0d72 <absimm+0x7fde0d72>
8000578c:	deadbeef          	jal	t4,7ffe0d76 <absimm+0x7fde0d76>
80005790:	deadbeef          	jal	t4,7ffe0d7a <absimm+0x7fde0d7a>
80005794:	deadbeef          	jal	t4,7ffe0d7e <absimm+0x7fde0d7e>
80005798:	deadbeef          	jal	t4,7ffe0d82 <absimm+0x7fde0d82>
8000579c:	deadbeef          	jal	t4,7ffe0d86 <absimm+0x7fde0d86>
800057a0:	deadbeef          	jal	t4,7ffe0d8a <absimm+0x7fde0d8a>
800057a4:	deadbeef          	jal	t4,7ffe0d8e <absimm+0x7fde0d8e>
800057a8:	deadbeef          	jal	t4,7ffe0d92 <absimm+0x7fde0d92>
800057ac:	deadbeef          	jal	t4,7ffe0d96 <absimm+0x7fde0d96>
800057b0:	deadbeef          	jal	t4,7ffe0d9a <absimm+0x7fde0d9a>
800057b4:	deadbeef          	jal	t4,7ffe0d9e <absimm+0x7fde0d9e>
800057b8:	deadbeef          	jal	t4,7ffe0da2 <absimm+0x7fde0da2>
800057bc:	deadbeef          	jal	t4,7ffe0da6 <absimm+0x7fde0da6>
800057c0:	deadbeef          	jal	t4,7ffe0daa <absimm+0x7fde0daa>
800057c4:	deadbeef          	jal	t4,7ffe0dae <absimm+0x7fde0dae>
800057c8:	deadbeef          	jal	t4,7ffe0db2 <absimm+0x7fde0db2>
800057cc:	deadbeef          	jal	t4,7ffe0db6 <absimm+0x7fde0db6>
800057d0:	deadbeef          	jal	t4,7ffe0dba <absimm+0x7fde0dba>
800057d4:	deadbeef          	jal	t4,7ffe0dbe <absimm+0x7fde0dbe>
800057d8:	deadbeef          	jal	t4,7ffe0dc2 <absimm+0x7fde0dc2>
800057dc:	deadbeef          	jal	t4,7ffe0dc6 <absimm+0x7fde0dc6>
800057e0:	deadbeef          	jal	t4,7ffe0dca <absimm+0x7fde0dca>
800057e4:	deadbeef          	jal	t4,7ffe0dce <absimm+0x7fde0dce>
800057e8:	deadbeef          	jal	t4,7ffe0dd2 <absimm+0x7fde0dd2>
800057ec:	deadbeef          	jal	t4,7ffe0dd6 <absimm+0x7fde0dd6>
800057f0:	deadbeef          	jal	t4,7ffe0dda <absimm+0x7fde0dda>
800057f4:	deadbeef          	jal	t4,7ffe0dde <absimm+0x7fde0dde>
800057f8:	deadbeef          	jal	t4,7ffe0de2 <absimm+0x7fde0de2>
800057fc:	deadbeef          	jal	t4,7ffe0de6 <absimm+0x7fde0de6>
80005800:	deadbeef          	jal	t4,7ffe0dea <absimm+0x7fde0dea>
80005804:	deadbeef          	jal	t4,7ffe0dee <absimm+0x7fde0dee>
80005808:	deadbeef          	jal	t4,7ffe0df2 <absimm+0x7fde0df2>
8000580c:	deadbeef          	jal	t4,7ffe0df6 <absimm+0x7fde0df6>
80005810:	deadbeef          	jal	t4,7ffe0dfa <absimm+0x7fde0dfa>
80005814:	deadbeef          	jal	t4,7ffe0dfe <absimm+0x7fde0dfe>
80005818:	deadbeef          	jal	t4,7ffe0e02 <absimm+0x7fde0e02>
8000581c:	deadbeef          	jal	t4,7ffe0e06 <absimm+0x7fde0e06>
80005820:	deadbeef          	jal	t4,7ffe0e0a <absimm+0x7fde0e0a>
80005824:	deadbeef          	jal	t4,7ffe0e0e <absimm+0x7fde0e0e>
80005828:	deadbeef          	jal	t4,7ffe0e12 <absimm+0x7fde0e12>
8000582c:	deadbeef          	jal	t4,7ffe0e16 <absimm+0x7fde0e16>
80005830:	deadbeef          	jal	t4,7ffe0e1a <absimm+0x7fde0e1a>
80005834:	deadbeef          	jal	t4,7ffe0e1e <absimm+0x7fde0e1e>
80005838:	deadbeef          	jal	t4,7ffe0e22 <absimm+0x7fde0e22>
8000583c:	deadbeef          	jal	t4,7ffe0e26 <absimm+0x7fde0e26>
80005840:	deadbeef          	jal	t4,7ffe0e2a <absimm+0x7fde0e2a>
80005844:	deadbeef          	jal	t4,7ffe0e2e <absimm+0x7fde0e2e>
80005848:	deadbeef          	jal	t4,7ffe0e32 <absimm+0x7fde0e32>
8000584c:	deadbeef          	jal	t4,7ffe0e36 <absimm+0x7fde0e36>
80005850:	deadbeef          	jal	t4,7ffe0e3a <absimm+0x7fde0e3a>
80005854:	deadbeef          	jal	t4,7ffe0e3e <absimm+0x7fde0e3e>
80005858:	deadbeef          	jal	t4,7ffe0e42 <absimm+0x7fde0e42>
8000585c:	deadbeef          	jal	t4,7ffe0e46 <absimm+0x7fde0e46>
80005860:	deadbeef          	jal	t4,7ffe0e4a <absimm+0x7fde0e4a>
80005864:	deadbeef          	jal	t4,7ffe0e4e <absimm+0x7fde0e4e>
80005868:	deadbeef          	jal	t4,7ffe0e52 <absimm+0x7fde0e52>
8000586c:	deadbeef          	jal	t4,7ffe0e56 <absimm+0x7fde0e56>
80005870:	deadbeef          	jal	t4,7ffe0e5a <absimm+0x7fde0e5a>
80005874:	deadbeef          	jal	t4,7ffe0e5e <absimm+0x7fde0e5e>
80005878:	deadbeef          	jal	t4,7ffe0e62 <absimm+0x7fde0e62>
8000587c:	deadbeef          	jal	t4,7ffe0e66 <absimm+0x7fde0e66>
80005880:	deadbeef          	jal	t4,7ffe0e6a <absimm+0x7fde0e6a>
80005884:	deadbeef          	jal	t4,7ffe0e6e <absimm+0x7fde0e6e>
80005888:	deadbeef          	jal	t4,7ffe0e72 <absimm+0x7fde0e72>
8000588c:	deadbeef          	jal	t4,7ffe0e76 <absimm+0x7fde0e76>
80005890:	deadbeef          	jal	t4,7ffe0e7a <absimm+0x7fde0e7a>
80005894:	deadbeef          	jal	t4,7ffe0e7e <absimm+0x7fde0e7e>
80005898:	deadbeef          	jal	t4,7ffe0e82 <absimm+0x7fde0e82>
8000589c:	deadbeef          	jal	t4,7ffe0e86 <absimm+0x7fde0e86>
800058a0:	deadbeef          	jal	t4,7ffe0e8a <absimm+0x7fde0e8a>
800058a4:	deadbeef          	jal	t4,7ffe0e8e <absimm+0x7fde0e8e>
800058a8:	deadbeef          	jal	t4,7ffe0e92 <absimm+0x7fde0e92>
800058ac:	deadbeef          	jal	t4,7ffe0e96 <absimm+0x7fde0e96>
800058b0:	deadbeef          	jal	t4,7ffe0e9a <absimm+0x7fde0e9a>
800058b4:	deadbeef          	jal	t4,7ffe0e9e <absimm+0x7fde0e9e>
800058b8:	deadbeef          	jal	t4,7ffe0ea2 <absimm+0x7fde0ea2>
800058bc:	deadbeef          	jal	t4,7ffe0ea6 <absimm+0x7fde0ea6>
800058c0:	deadbeef          	jal	t4,7ffe0eaa <absimm+0x7fde0eaa>
800058c4:	deadbeef          	jal	t4,7ffe0eae <absimm+0x7fde0eae>
800058c8:	deadbeef          	jal	t4,7ffe0eb2 <absimm+0x7fde0eb2>
800058cc:	deadbeef          	jal	t4,7ffe0eb6 <absimm+0x7fde0eb6>
800058d0:	deadbeef          	jal	t4,7ffe0eba <absimm+0x7fde0eba>
800058d4:	deadbeef          	jal	t4,7ffe0ebe <absimm+0x7fde0ebe>
800058d8:	deadbeef          	jal	t4,7ffe0ec2 <absimm+0x7fde0ec2>
800058dc:	deadbeef          	jal	t4,7ffe0ec6 <absimm+0x7fde0ec6>
800058e0:	deadbeef          	jal	t4,7ffe0eca <absimm+0x7fde0eca>
800058e4:	deadbeef          	jal	t4,7ffe0ece <absimm+0x7fde0ece>
800058e8:	deadbeef          	jal	t4,7ffe0ed2 <absimm+0x7fde0ed2>
800058ec:	deadbeef          	jal	t4,7ffe0ed6 <absimm+0x7fde0ed6>
800058f0:	deadbeef          	jal	t4,7ffe0eda <absimm+0x7fde0eda>
800058f4:	deadbeef          	jal	t4,7ffe0ede <absimm+0x7fde0ede>
800058f8:	deadbeef          	jal	t4,7ffe0ee2 <absimm+0x7fde0ee2>
800058fc:	deadbeef          	jal	t4,7ffe0ee6 <absimm+0x7fde0ee6>
80005900:	deadbeef          	jal	t4,7ffe0eea <absimm+0x7fde0eea>
80005904:	deadbeef          	jal	t4,7ffe0eee <absimm+0x7fde0eee>
80005908:	deadbeef          	jal	t4,7ffe0ef2 <absimm+0x7fde0ef2>
8000590c:	deadbeef          	jal	t4,7ffe0ef6 <absimm+0x7fde0ef6>
80005910:	deadbeef          	jal	t4,7ffe0efa <absimm+0x7fde0efa>
80005914:	deadbeef          	jal	t4,7ffe0efe <absimm+0x7fde0efe>
80005918:	deadbeef          	jal	t4,7ffe0f02 <absimm+0x7fde0f02>
8000591c:	deadbeef          	jal	t4,7ffe0f06 <absimm+0x7fde0f06>
80005920:	deadbeef          	jal	t4,7ffe0f0a <absimm+0x7fde0f0a>
80005924:	deadbeef          	jal	t4,7ffe0f0e <absimm+0x7fde0f0e>
80005928:	deadbeef          	jal	t4,7ffe0f12 <absimm+0x7fde0f12>
8000592c:	deadbeef          	jal	t4,7ffe0f16 <absimm+0x7fde0f16>
80005930:	deadbeef          	jal	t4,7ffe0f1a <absimm+0x7fde0f1a>
80005934:	deadbeef          	jal	t4,7ffe0f1e <absimm+0x7fde0f1e>
80005938:	deadbeef          	jal	t4,7ffe0f22 <absimm+0x7fde0f22>
8000593c:	deadbeef          	jal	t4,7ffe0f26 <absimm+0x7fde0f26>
80005940:	deadbeef          	jal	t4,7ffe0f2a <absimm+0x7fde0f2a>
80005944:	deadbeef          	jal	t4,7ffe0f2e <absimm+0x7fde0f2e>
80005948:	deadbeef          	jal	t4,7ffe0f32 <absimm+0x7fde0f32>
8000594c:	deadbeef          	jal	t4,7ffe0f36 <absimm+0x7fde0f36>
80005950:	deadbeef          	jal	t4,7ffe0f3a <absimm+0x7fde0f3a>
80005954:	deadbeef          	jal	t4,7ffe0f3e <absimm+0x7fde0f3e>
80005958:	deadbeef          	jal	t4,7ffe0f42 <absimm+0x7fde0f42>
8000595c:	deadbeef          	jal	t4,7ffe0f46 <absimm+0x7fde0f46>
80005960:	deadbeef          	jal	t4,7ffe0f4a <absimm+0x7fde0f4a>
80005964:	deadbeef          	jal	t4,7ffe0f4e <absimm+0x7fde0f4e>
80005968:	deadbeef          	jal	t4,7ffe0f52 <absimm+0x7fde0f52>

8000596c <signature_x3_1>:
8000596c:	deadbeef          	jal	t4,7ffe0f56 <absimm+0x7fde0f56>
80005970:	deadbeef          	jal	t4,7ffe0f5a <absimm+0x7fde0f5a>
80005974:	deadbeef          	jal	t4,7ffe0f5e <absimm+0x7fde0f5e>
80005978:	deadbeef          	jal	t4,7ffe0f62 <absimm+0x7fde0f62>
8000597c:	deadbeef          	jal	t4,7ffe0f66 <absimm+0x7fde0f66>
80005980:	deadbeef          	jal	t4,7ffe0f6a <absimm+0x7fde0f6a>
80005984:	deadbeef          	jal	t4,7ffe0f6e <absimm+0x7fde0f6e>
80005988:	deadbeef          	jal	t4,7ffe0f72 <absimm+0x7fde0f72>
8000598c:	deadbeef          	jal	t4,7ffe0f76 <absimm+0x7fde0f76>
80005990:	deadbeef          	jal	t4,7ffe0f7a <absimm+0x7fde0f7a>
80005994:	deadbeef          	jal	t4,7ffe0f7e <absimm+0x7fde0f7e>
80005998:	deadbeef          	jal	t4,7ffe0f82 <absimm+0x7fde0f82>
8000599c:	deadbeef          	jal	t4,7ffe0f86 <absimm+0x7fde0f86>
800059a0:	deadbeef          	jal	t4,7ffe0f8a <absimm+0x7fde0f8a>
800059a4:	deadbeef          	jal	t4,7ffe0f8e <absimm+0x7fde0f8e>
800059a8:	deadbeef          	jal	t4,7ffe0f92 <absimm+0x7fde0f92>
800059ac:	deadbeef          	jal	t4,7ffe0f96 <absimm+0x7fde0f96>
800059b0:	deadbeef          	jal	t4,7ffe0f9a <absimm+0x7fde0f9a>
800059b4:	deadbeef          	jal	t4,7ffe0f9e <absimm+0x7fde0f9e>
800059b8:	deadbeef          	jal	t4,7ffe0fa2 <absimm+0x7fde0fa2>
800059bc:	deadbeef          	jal	t4,7ffe0fa6 <absimm+0x7fde0fa6>
800059c0:	deadbeef          	jal	t4,7ffe0faa <absimm+0x7fde0faa>
800059c4:	deadbeef          	jal	t4,7ffe0fae <absimm+0x7fde0fae>
800059c8:	deadbeef          	jal	t4,7ffe0fb2 <absimm+0x7fde0fb2>
800059cc:	deadbeef          	jal	t4,7ffe0fb6 <absimm+0x7fde0fb6>
800059d0:	deadbeef          	jal	t4,7ffe0fba <absimm+0x7fde0fba>
800059d4:	deadbeef          	jal	t4,7ffe0fbe <absimm+0x7fde0fbe>

800059d8 <sig_end_canary>:
800059d8:	a309                	j	80005eda <_end+0x4fa>
800059da:	6f5c                	flw	fa5,28(a4)

800059dc <rvtest_sig_end>:
800059dc:	0000                	unimp
	...

Disassembly of section .riscv.attributes:

00000000 <.riscv.attributes>:
   0:	1941                	addi	s2,s2,-16
   2:	0000                	unimp
   4:	7200                	flw	fs0,32(a2)
   6:	7369                	lui	t1,0xffffa
   8:	01007663          	bgeu	zero,a6,14 <MMODE_SIG+0x11>
   c:	0000000f          	fence	unknown,unknown
  10:	7205                	lui	tp,0xfffe1
  12:	3376                	fld	ft6,376(sp)
  14:	6932                	flw	fs2,12(sp)
  16:	7032                	flw	ft0,44(sp)
  18:	0030                	addi	a2,sp,8

Disassembly of section .debug_line:

00000000 <.debug_line>:
   0:	00000dcf          	fnmadd.s	fs11,ft0,ft0,ft0,rne
   4:	00750003          	lb	zero,7(a0)
   8:	0000                	unimp
   a:	0101                	addi	sp,sp,0
   c:	000d0efb          	0xd0efb
  10:	0101                	addi	sp,sp,0
  12:	0101                	addi	sp,sp,0
  14:	0000                	unimp
  16:	0100                	addi	s0,sp,128
  18:	0000                	unimp
  1a:	2f01                	jal	72a <offset+0x6be>
  1c:	6f68                	flw	fa0,92(a4)
  1e:	656d                	lui	a0,0x1b
  20:	766f6c2f          	0x766f6c2f
  24:	7369                	lui	t1,0xffffa
  26:	7365442f          	0x7365442f
  2a:	706f746b          	0x706f746b
  2e:	5669522f          	0x5669522f
  32:	7265                	lui	tp,0xffff9
  34:	635f 726f 2f65      	0x2f65726f635f
  3a:	6972                	flw	fs2,28(sp)
  3c:	666f6373          	csrrsi	t1,0x666,30
  40:	7369722f          	0x7369722f
  44:	612d7663          	bgeu	s10,s2,650 <offset+0x5e4>
  48:	6372                	flw	ft6,28(sp)
  4a:	2d68                	fld	fa0,216(a0)
  4c:	6574                	flw	fa3,76(a0)
  4e:	722f7473          	csrrci	s0,0x722,30
  52:	7369                	lui	t1,0xffffa
  54:	742d7663          	bgeu	s10,sp,7a0 <offset+0x734>
  58:	7365                	lui	t1,0xffff9
  5a:	2d74                	fld	fa3,216(a0)
  5c:	74697573          	csrrci	a0,0x746,18
  60:	2f65                	jal	818 <absimmsh+0x1a>
  62:	7672                	flw	fa2,60(sp)
  64:	5f693233          	0x5f693233
  68:	2f6d                	jal	822 <absimmsh+0x24>
  6a:	2f49                	jal	7fc <offset+0x790>
  6c:	00637273          	csrrci	tp,0x6,6
  70:	6100                	flw	fs0,0(a0)
  72:	6464                	flw	fs1,76(s0)
  74:	2d69                	jal	70e <offset+0x6a2>
  76:	3130                	fld	fa2,96(a0)
  78:	532e                	lw	t1,232(sp)
  7a:	0100                	addi	s0,sp,128
  7c:	0000                	unimp
  7e:	0000                	unimp
  80:	0205                	addi	tp,tp,1
  82:	0000                	unimp
  84:	8000                	0x8000
  86:	03011903          	lh	s2,48(sp)
  8a:	0906                	slli	s2,s2,0x1
  8c:	0078                	addi	a4,sp,12
  8e:	0301                	addi	t1,t1,0
  90:	0905                	addi	s2,s2,1
  92:	0008                	0x8
  94:	0301                	addi	t1,t1,0
  96:	0905                	addi	s2,s2,1
  98:	000c                	0xc
  9a:	0301                	addi	t1,t1,0
  9c:	0905                	addi	s2,s2,1
  9e:	000c                	0xc
  a0:	0301                	addi	t1,t1,0
  a2:	0905                	addi	s2,s2,1
  a4:	000c                	0xc
  a6:	0301                	addi	t1,t1,0
  a8:	0905                	addi	s2,s2,1
  aa:	000c                	0xc
  ac:	0301                	addi	t1,t1,0
  ae:	0905                	addi	s2,s2,1
  b0:	000c                	0xc
  b2:	0301                	addi	t1,t1,0
  b4:	0905                	addi	s2,s2,1
  b6:	0010                	0x10
  b8:	0301                	addi	t1,t1,0
  ba:	0905                	addi	s2,s2,1
  bc:	000c                	0xc
  be:	0301                	addi	t1,t1,0
  c0:	0905                	addi	s2,s2,1
  c2:	000c                	0xc
  c4:	0301                	addi	t1,t1,0
  c6:	0905                	addi	s2,s2,1
  c8:	0010                	0x10
  ca:	0301                	addi	t1,t1,0
  cc:	0905                	addi	s2,s2,1
  ce:	000c                	0xc
  d0:	0301                	addi	t1,t1,0
  d2:	0905                	addi	s2,s2,1
  d4:	0010                	0x10
  d6:	0301                	addi	t1,t1,0
  d8:	0905                	addi	s2,s2,1
  da:	0010                	0x10
  dc:	0301                	addi	t1,t1,0
  de:	0905                	addi	s2,s2,1
  e0:	0010                	0x10
  e2:	0301                	addi	t1,t1,0
  e4:	0905                	addi	s2,s2,1
  e6:	000c                	0xc
  e8:	0301                	addi	t1,t1,0
  ea:	0905                	addi	s2,s2,1
  ec:	0010                	0x10
  ee:	0301                	addi	t1,t1,0
  f0:	0905                	addi	s2,s2,1
  f2:	000c                	0xc
  f4:	0301                	addi	t1,t1,0
  f6:	0905                	addi	s2,s2,1
  f8:	000c                	0xc
  fa:	0301                	addi	t1,t1,0
  fc:	0905                	addi	s2,s2,1
  fe:	0010                	0x10
 100:	0301                	addi	t1,t1,0
 102:	0905                	addi	s2,s2,1
 104:	0010                	0x10
 106:	0301                	addi	t1,t1,0
 108:	0905                	addi	s2,s2,1
 10a:	0010                	0x10
 10c:	0301                	addi	t1,t1,0
 10e:	0905                	addi	s2,s2,1
 110:	000c                	0xc
 112:	0301                	addi	t1,t1,0
 114:	0901                	addi	s2,s2,0
 116:	000c                	0xc
 118:	0301                	addi	t1,t1,0
 11a:	0905                	addi	s2,s2,1
 11c:	0008                	0x8
 11e:	0301                	addi	t1,t1,0
 120:	0905                	addi	s2,s2,1
 122:	000c                	0xc
 124:	0301                	addi	t1,t1,0
 126:	0905                	addi	s2,s2,1
 128:	000c                	0xc
 12a:	0301                	addi	t1,t1,0
 12c:	0905                	addi	s2,s2,1
 12e:	0010                	0x10
 130:	0301                	addi	t1,t1,0
 132:	0905                	addi	s2,s2,1
 134:	0010                	0x10
 136:	0301                	addi	t1,t1,0
 138:	0905                	addi	s2,s2,1
 13a:	000c                	0xc
 13c:	0301                	addi	t1,t1,0
 13e:	0905                	addi	s2,s2,1
 140:	0010                	0x10
 142:	0301                	addi	t1,t1,0
 144:	0905                	addi	s2,s2,1
 146:	000c                	0xc
 148:	0301                	addi	t1,t1,0
 14a:	0905                	addi	s2,s2,1
 14c:	000c                	0xc
 14e:	0301                	addi	t1,t1,0
 150:	0905                	addi	s2,s2,1
 152:	000c                	0xc
 154:	0301                	addi	t1,t1,0
 156:	0905                	addi	s2,s2,1
 158:	000c                	0xc
 15a:	0301                	addi	t1,t1,0
 15c:	0905                	addi	s2,s2,1
 15e:	000c                	0xc
 160:	0301                	addi	t1,t1,0
 162:	0905                	addi	s2,s2,1
 164:	000c                	0xc
 166:	0301                	addi	t1,t1,0
 168:	0905                	addi	s2,s2,1
 16a:	000c                	0xc
 16c:	0301                	addi	t1,t1,0
 16e:	0905                	addi	s2,s2,1
 170:	000c                	0xc
 172:	0301                	addi	t1,t1,0
 174:	0905                	addi	s2,s2,1
 176:	0010                	0x10
 178:	0301                	addi	t1,t1,0
 17a:	0905                	addi	s2,s2,1
 17c:	000c                	0xc
 17e:	0301                	addi	t1,t1,0
 180:	0905                	addi	s2,s2,1
 182:	000c                	0xc
 184:	0301                	addi	t1,t1,0
 186:	0905                	addi	s2,s2,1
 188:	000c                	0xc
 18a:	0301                	addi	t1,t1,0
 18c:	0905                	addi	s2,s2,1
 18e:	000c                	0xc
 190:	0301                	addi	t1,t1,0
 192:	0905                	addi	s2,s2,1
 194:	000c                	0xc
 196:	0301                	addi	t1,t1,0
 198:	0905                	addi	s2,s2,1
 19a:	000c                	0xc
 19c:	0301                	addi	t1,t1,0
 19e:	0905                	addi	s2,s2,1
 1a0:	000c                	0xc
 1a2:	0301                	addi	t1,t1,0
 1a4:	0905                	addi	s2,s2,1
 1a6:	000c                	0xc
 1a8:	0301                	addi	t1,t1,0
 1aa:	0905                	addi	s2,s2,1
 1ac:	000c                	0xc
 1ae:	0301                	addi	t1,t1,0
 1b0:	0905                	addi	s2,s2,1
 1b2:	000c                	0xc
 1b4:	0301                	addi	t1,t1,0
 1b6:	0905                	addi	s2,s2,1
 1b8:	000c                	0xc
 1ba:	0301                	addi	t1,t1,0
 1bc:	0905                	addi	s2,s2,1
 1be:	000c                	0xc
 1c0:	0301                	addi	t1,t1,0
 1c2:	0905                	addi	s2,s2,1
 1c4:	000c                	0xc
 1c6:	0301                	addi	t1,t1,0
 1c8:	0905                	addi	s2,s2,1
 1ca:	000c                	0xc
 1cc:	0301                	addi	t1,t1,0
 1ce:	0905                	addi	s2,s2,1
 1d0:	000c                	0xc
 1d2:	0301                	addi	t1,t1,0
 1d4:	0905                	addi	s2,s2,1
 1d6:	000c                	0xc
 1d8:	0301                	addi	t1,t1,0
 1da:	0905                	addi	s2,s2,1
 1dc:	000c                	0xc
 1de:	0301                	addi	t1,t1,0
 1e0:	0905                	addi	s2,s2,1
 1e2:	000c                	0xc
 1e4:	0301                	addi	t1,t1,0
 1e6:	0905                	addi	s2,s2,1
 1e8:	000c                	0xc
 1ea:	0301                	addi	t1,t1,0
 1ec:	0905                	addi	s2,s2,1
 1ee:	000c                	0xc
 1f0:	0301                	addi	t1,t1,0
 1f2:	0905                	addi	s2,s2,1
 1f4:	000c                	0xc
 1f6:	0301                	addi	t1,t1,0
 1f8:	0905                	addi	s2,s2,1
 1fa:	000c                	0xc
 1fc:	0301                	addi	t1,t1,0
 1fe:	0905                	addi	s2,s2,1
 200:	000c                	0xc
 202:	0301                	addi	t1,t1,0
 204:	0905                	addi	s2,s2,1
 206:	000c                	0xc
 208:	0301                	addi	t1,t1,0
 20a:	0905                	addi	s2,s2,1
 20c:	000c                	0xc
 20e:	0301                	addi	t1,t1,0
 210:	0905                	addi	s2,s2,1
 212:	0010                	0x10
 214:	0301                	addi	t1,t1,0
 216:	0905                	addi	s2,s2,1
 218:	0010                	0x10
 21a:	0301                	addi	t1,t1,0
 21c:	0905                	addi	s2,s2,1
 21e:	0010                	0x10
 220:	0301                	addi	t1,t1,0
 222:	0905                	addi	s2,s2,1
 224:	0010                	0x10
 226:	0301                	addi	t1,t1,0
 228:	0905                	addi	s2,s2,1
 22a:	0010                	0x10
 22c:	0301                	addi	t1,t1,0
 22e:	0905                	addi	s2,s2,1
 230:	0010                	0x10
 232:	0301                	addi	t1,t1,0
 234:	0905                	addi	s2,s2,1
 236:	0010                	0x10
 238:	0301                	addi	t1,t1,0
 23a:	0905                	addi	s2,s2,1
 23c:	0010                	0x10
 23e:	0301                	addi	t1,t1,0
 240:	0905                	addi	s2,s2,1
 242:	0010                	0x10
 244:	0301                	addi	t1,t1,0
 246:	0905                	addi	s2,s2,1
 248:	0010                	0x10
 24a:	0301                	addi	t1,t1,0
 24c:	0905                	addi	s2,s2,1
 24e:	0010                	0x10
 250:	0301                	addi	t1,t1,0
 252:	0905                	addi	s2,s2,1
 254:	0010                	0x10
 256:	0301                	addi	t1,t1,0
 258:	0905                	addi	s2,s2,1
 25a:	0010                	0x10
 25c:	0301                	addi	t1,t1,0
 25e:	0905                	addi	s2,s2,1
 260:	0010                	0x10
 262:	0301                	addi	t1,t1,0
 264:	0905                	addi	s2,s2,1
 266:	0010                	0x10
 268:	0301                	addi	t1,t1,0
 26a:	0905                	addi	s2,s2,1
 26c:	0010                	0x10
 26e:	0301                	addi	t1,t1,0
 270:	0905                	addi	s2,s2,1
 272:	0010                	0x10
 274:	0301                	addi	t1,t1,0
 276:	0905                	addi	s2,s2,1
 278:	0010                	0x10
 27a:	0301                	addi	t1,t1,0
 27c:	0905                	addi	s2,s2,1
 27e:	000c                	0xc
 280:	0301                	addi	t1,t1,0
 282:	0905                	addi	s2,s2,1
 284:	000c                	0xc
 286:	0301                	addi	t1,t1,0
 288:	0905                	addi	s2,s2,1
 28a:	000c                	0xc
 28c:	0301                	addi	t1,t1,0
 28e:	0905                	addi	s2,s2,1
 290:	000c                	0xc
 292:	0301                	addi	t1,t1,0
 294:	0905                	addi	s2,s2,1
 296:	000c                	0xc
 298:	0301                	addi	t1,t1,0
 29a:	0905                	addi	s2,s2,1
 29c:	000c                	0xc
 29e:	0301                	addi	t1,t1,0
 2a0:	0905                	addi	s2,s2,1
 2a2:	000c                	0xc
 2a4:	0301                	addi	t1,t1,0
 2a6:	0905                	addi	s2,s2,1
 2a8:	000c                	0xc
 2aa:	0301                	addi	t1,t1,0
 2ac:	0905                	addi	s2,s2,1
 2ae:	000c                	0xc
 2b0:	0301                	addi	t1,t1,0
 2b2:	0905                	addi	s2,s2,1
 2b4:	000c                	0xc
 2b6:	0301                	addi	t1,t1,0
 2b8:	0905                	addi	s2,s2,1
 2ba:	000c                	0xc
 2bc:	0301                	addi	t1,t1,0
 2be:	0905                	addi	s2,s2,1
 2c0:	000c                	0xc
 2c2:	0301                	addi	t1,t1,0
 2c4:	0905                	addi	s2,s2,1
 2c6:	000c                	0xc
 2c8:	0301                	addi	t1,t1,0
 2ca:	0905                	addi	s2,s2,1
 2cc:	000c                	0xc
 2ce:	0301                	addi	t1,t1,0
 2d0:	0905                	addi	s2,s2,1
 2d2:	000c                	0xc
 2d4:	0301                	addi	t1,t1,0
 2d6:	0905                	addi	s2,s2,1
 2d8:	000c                	0xc
 2da:	0301                	addi	t1,t1,0
 2dc:	0905                	addi	s2,s2,1
 2de:	000c                	0xc
 2e0:	0301                	addi	t1,t1,0
 2e2:	0905                	addi	s2,s2,1
 2e4:	000c                	0xc
 2e6:	0301                	addi	t1,t1,0
 2e8:	0905                	addi	s2,s2,1
 2ea:	000c                	0xc
 2ec:	0301                	addi	t1,t1,0
 2ee:	0905                	addi	s2,s2,1
 2f0:	000c                	0xc
 2f2:	0301                	addi	t1,t1,0
 2f4:	0905                	addi	s2,s2,1
 2f6:	000c                	0xc
 2f8:	0301                	addi	t1,t1,0
 2fa:	0905                	addi	s2,s2,1
 2fc:	000c                	0xc
 2fe:	0301                	addi	t1,t1,0
 300:	0905                	addi	s2,s2,1
 302:	0010                	0x10
 304:	0301                	addi	t1,t1,0
 306:	0905                	addi	s2,s2,1
 308:	0010                	0x10
 30a:	0301                	addi	t1,t1,0
 30c:	0905                	addi	s2,s2,1
 30e:	0010                	0x10
 310:	0301                	addi	t1,t1,0
 312:	0905                	addi	s2,s2,1
 314:	0010                	0x10
 316:	0301                	addi	t1,t1,0
 318:	0905                	addi	s2,s2,1
 31a:	0010                	0x10
 31c:	0301                	addi	t1,t1,0
 31e:	0905                	addi	s2,s2,1
 320:	0010                	0x10
 322:	0301                	addi	t1,t1,0
 324:	0905                	addi	s2,s2,1
 326:	0010                	0x10
 328:	0301                	addi	t1,t1,0
 32a:	0905                	addi	s2,s2,1
 32c:	0010                	0x10
 32e:	0301                	addi	t1,t1,0
 330:	0905                	addi	s2,s2,1
 332:	0010                	0x10
 334:	0301                	addi	t1,t1,0
 336:	0905                	addi	s2,s2,1
 338:	0010                	0x10
 33a:	0301                	addi	t1,t1,0
 33c:	0905                	addi	s2,s2,1
 33e:	0010                	0x10
 340:	0301                	addi	t1,t1,0
 342:	0905                	addi	s2,s2,1
 344:	0010                	0x10
 346:	0301                	addi	t1,t1,0
 348:	0905                	addi	s2,s2,1
 34a:	0010                	0x10
 34c:	0301                	addi	t1,t1,0
 34e:	0905                	addi	s2,s2,1
 350:	0010                	0x10
 352:	0301                	addi	t1,t1,0
 354:	0905                	addi	s2,s2,1
 356:	0010                	0x10
 358:	0301                	addi	t1,t1,0
 35a:	0905                	addi	s2,s2,1
 35c:	0010                	0x10
 35e:	0301                	addi	t1,t1,0
 360:	0905                	addi	s2,s2,1
 362:	0010                	0x10
 364:	0301                	addi	t1,t1,0
 366:	0905                	addi	s2,s2,1
 368:	0010                	0x10
 36a:	0301                	addi	t1,t1,0
 36c:	0905                	addi	s2,s2,1
 36e:	0010                	0x10
 370:	0301                	addi	t1,t1,0
 372:	0905                	addi	s2,s2,1
 374:	0010                	0x10
 376:	0301                	addi	t1,t1,0
 378:	0905                	addi	s2,s2,1
 37a:	0010                	0x10
 37c:	0301                	addi	t1,t1,0
 37e:	0905                	addi	s2,s2,1
 380:	0010                	0x10
 382:	0301                	addi	t1,t1,0
 384:	0905                	addi	s2,s2,1
 386:	0010                	0x10
 388:	0301                	addi	t1,t1,0
 38a:	0905                	addi	s2,s2,1
 38c:	0010                	0x10
 38e:	0301                	addi	t1,t1,0
 390:	0905                	addi	s2,s2,1
 392:	0010                	0x10
 394:	0301                	addi	t1,t1,0
 396:	0905                	addi	s2,s2,1
 398:	0010                	0x10
 39a:	0301                	addi	t1,t1,0
 39c:	0905                	addi	s2,s2,1
 39e:	0010                	0x10
 3a0:	0301                	addi	t1,t1,0
 3a2:	0905                	addi	s2,s2,1
 3a4:	0010                	0x10
 3a6:	0301                	addi	t1,t1,0
 3a8:	0905                	addi	s2,s2,1
 3aa:	0010                	0x10
 3ac:	0301                	addi	t1,t1,0
 3ae:	0905                	addi	s2,s2,1
 3b0:	0010                	0x10
 3b2:	0301                	addi	t1,t1,0
 3b4:	0905                	addi	s2,s2,1
 3b6:	0010                	0x10
 3b8:	0301                	addi	t1,t1,0
 3ba:	0905                	addi	s2,s2,1
 3bc:	0010                	0x10
 3be:	0301                	addi	t1,t1,0
 3c0:	0905                	addi	s2,s2,1
 3c2:	0010                	0x10
 3c4:	0301                	addi	t1,t1,0
 3c6:	0905                	addi	s2,s2,1
 3c8:	0010                	0x10
 3ca:	0301                	addi	t1,t1,0
 3cc:	0905                	addi	s2,s2,1
 3ce:	0010                	0x10
 3d0:	0301                	addi	t1,t1,0
 3d2:	0905                	addi	s2,s2,1
 3d4:	0010                	0x10
 3d6:	0301                	addi	t1,t1,0
 3d8:	0905                	addi	s2,s2,1
 3da:	0010                	0x10
 3dc:	0301                	addi	t1,t1,0
 3de:	0905                	addi	s2,s2,1
 3e0:	0010                	0x10
 3e2:	0301                	addi	t1,t1,0
 3e4:	0905                	addi	s2,s2,1
 3e6:	0010                	0x10
 3e8:	0301                	addi	t1,t1,0
 3ea:	0905                	addi	s2,s2,1
 3ec:	0010                	0x10
 3ee:	0301                	addi	t1,t1,0
 3f0:	0905                	addi	s2,s2,1
 3f2:	0010                	0x10
 3f4:	0301                	addi	t1,t1,0
 3f6:	0905                	addi	s2,s2,1
 3f8:	0010                	0x10
 3fa:	0301                	addi	t1,t1,0
 3fc:	0905                	addi	s2,s2,1
 3fe:	0010                	0x10
 400:	0301                	addi	t1,t1,0
 402:	0905                	addi	s2,s2,1
 404:	000c                	0xc
 406:	0301                	addi	t1,t1,0
 408:	0905                	addi	s2,s2,1
 40a:	000c                	0xc
 40c:	0301                	addi	t1,t1,0
 40e:	0905                	addi	s2,s2,1
 410:	000c                	0xc
 412:	0301                	addi	t1,t1,0
 414:	0905                	addi	s2,s2,1
 416:	000c                	0xc
 418:	0301                	addi	t1,t1,0
 41a:	0905                	addi	s2,s2,1
 41c:	000c                	0xc
 41e:	0301                	addi	t1,t1,0
 420:	0905                	addi	s2,s2,1
 422:	000c                	0xc
 424:	0301                	addi	t1,t1,0
 426:	0905                	addi	s2,s2,1
 428:	000c                	0xc
 42a:	0301                	addi	t1,t1,0
 42c:	0905                	addi	s2,s2,1
 42e:	000c                	0xc
 430:	0301                	addi	t1,t1,0
 432:	0905                	addi	s2,s2,1
 434:	000c                	0xc
 436:	0301                	addi	t1,t1,0
 438:	0905                	addi	s2,s2,1
 43a:	000c                	0xc
 43c:	0301                	addi	t1,t1,0
 43e:	0905                	addi	s2,s2,1
 440:	000c                	0xc
 442:	0301                	addi	t1,t1,0
 444:	0905                	addi	s2,s2,1
 446:	000c                	0xc
 448:	0301                	addi	t1,t1,0
 44a:	0905                	addi	s2,s2,1
 44c:	000c                	0xc
 44e:	0301                	addi	t1,t1,0
 450:	0905                	addi	s2,s2,1
 452:	000c                	0xc
 454:	0301                	addi	t1,t1,0
 456:	0905                	addi	s2,s2,1
 458:	000c                	0xc
 45a:	0301                	addi	t1,t1,0
 45c:	0905                	addi	s2,s2,1
 45e:	000c                	0xc
 460:	0301                	addi	t1,t1,0
 462:	0905                	addi	s2,s2,1
 464:	000c                	0xc
 466:	0301                	addi	t1,t1,0
 468:	0905                	addi	s2,s2,1
 46a:	000c                	0xc
 46c:	0301                	addi	t1,t1,0
 46e:	0905                	addi	s2,s2,1
 470:	000c                	0xc
 472:	0301                	addi	t1,t1,0
 474:	0905                	addi	s2,s2,1
 476:	000c                	0xc
 478:	0301                	addi	t1,t1,0
 47a:	0905                	addi	s2,s2,1
 47c:	000c                	0xc
 47e:	0301                	addi	t1,t1,0
 480:	0905                	addi	s2,s2,1
 482:	0010                	0x10
 484:	0301                	addi	t1,t1,0
 486:	0905                	addi	s2,s2,1
 488:	0010                	0x10
 48a:	0301                	addi	t1,t1,0
 48c:	0905                	addi	s2,s2,1
 48e:	0010                	0x10
 490:	0301                	addi	t1,t1,0
 492:	0905                	addi	s2,s2,1
 494:	0010                	0x10
 496:	0301                	addi	t1,t1,0
 498:	0905                	addi	s2,s2,1
 49a:	0010                	0x10
 49c:	0301                	addi	t1,t1,0
 49e:	0905                	addi	s2,s2,1
 4a0:	0010                	0x10
 4a2:	0301                	addi	t1,t1,0
 4a4:	0905                	addi	s2,s2,1
 4a6:	0010                	0x10
 4a8:	0301                	addi	t1,t1,0
 4aa:	0905                	addi	s2,s2,1
 4ac:	0010                	0x10
 4ae:	0301                	addi	t1,t1,0
 4b0:	0905                	addi	s2,s2,1
 4b2:	0010                	0x10
 4b4:	0301                	addi	t1,t1,0
 4b6:	0905                	addi	s2,s2,1
 4b8:	0010                	0x10
 4ba:	0301                	addi	t1,t1,0
 4bc:	0905                	addi	s2,s2,1
 4be:	0010                	0x10
 4c0:	0301                	addi	t1,t1,0
 4c2:	0905                	addi	s2,s2,1
 4c4:	0010                	0x10
 4c6:	0301                	addi	t1,t1,0
 4c8:	0905                	addi	s2,s2,1
 4ca:	0010                	0x10
 4cc:	0301                	addi	t1,t1,0
 4ce:	0905                	addi	s2,s2,1
 4d0:	0010                	0x10
 4d2:	0301                	addi	t1,t1,0
 4d4:	0905                	addi	s2,s2,1
 4d6:	0010                	0x10
 4d8:	0301                	addi	t1,t1,0
 4da:	0905                	addi	s2,s2,1
 4dc:	0010                	0x10
 4de:	0301                	addi	t1,t1,0
 4e0:	0905                	addi	s2,s2,1
 4e2:	0010                	0x10
 4e4:	0301                	addi	t1,t1,0
 4e6:	0905                	addi	s2,s2,1
 4e8:	0010                	0x10
 4ea:	0301                	addi	t1,t1,0
 4ec:	0905                	addi	s2,s2,1
 4ee:	0010                	0x10
 4f0:	0301                	addi	t1,t1,0
 4f2:	0905                	addi	s2,s2,1
 4f4:	0010                	0x10
 4f6:	0301                	addi	t1,t1,0
 4f8:	0905                	addi	s2,s2,1
 4fa:	0010                	0x10
 4fc:	0301                	addi	t1,t1,0
 4fe:	0905                	addi	s2,s2,1
 500:	0010                	0x10
 502:	0301                	addi	t1,t1,0
 504:	0905                	addi	s2,s2,1
 506:	0010                	0x10
 508:	0301                	addi	t1,t1,0
 50a:	0905                	addi	s2,s2,1
 50c:	0010                	0x10
 50e:	0301                	addi	t1,t1,0
 510:	0905                	addi	s2,s2,1
 512:	0010                	0x10
 514:	0301                	addi	t1,t1,0
 516:	0905                	addi	s2,s2,1
 518:	0010                	0x10
 51a:	0301                	addi	t1,t1,0
 51c:	0905                	addi	s2,s2,1
 51e:	0010                	0x10
 520:	0301                	addi	t1,t1,0
 522:	0905                	addi	s2,s2,1
 524:	0010                	0x10
 526:	0301                	addi	t1,t1,0
 528:	0905                	addi	s2,s2,1
 52a:	0010                	0x10
 52c:	0301                	addi	t1,t1,0
 52e:	0905                	addi	s2,s2,1
 530:	0010                	0x10
 532:	0301                	addi	t1,t1,0
 534:	0905                	addi	s2,s2,1
 536:	0010                	0x10
 538:	0301                	addi	t1,t1,0
 53a:	0905                	addi	s2,s2,1
 53c:	0010                	0x10
 53e:	0301                	addi	t1,t1,0
 540:	0905                	addi	s2,s2,1
 542:	0010                	0x10
 544:	0301                	addi	t1,t1,0
 546:	0905                	addi	s2,s2,1
 548:	0010                	0x10
 54a:	0301                	addi	t1,t1,0
 54c:	0905                	addi	s2,s2,1
 54e:	0010                	0x10
 550:	0301                	addi	t1,t1,0
 552:	0905                	addi	s2,s2,1
 554:	0010                	0x10
 556:	0301                	addi	t1,t1,0
 558:	0905                	addi	s2,s2,1
 55a:	0010                	0x10
 55c:	0301                	addi	t1,t1,0
 55e:	0905                	addi	s2,s2,1
 560:	0010                	0x10
 562:	0301                	addi	t1,t1,0
 564:	0905                	addi	s2,s2,1
 566:	0010                	0x10
 568:	0301                	addi	t1,t1,0
 56a:	0905                	addi	s2,s2,1
 56c:	0010                	0x10
 56e:	0301                	addi	t1,t1,0
 570:	0905                	addi	s2,s2,1
 572:	0010                	0x10
 574:	0301                	addi	t1,t1,0
 576:	0905                	addi	s2,s2,1
 578:	0010                	0x10
 57a:	0301                	addi	t1,t1,0
 57c:	0905                	addi	s2,s2,1
 57e:	0010                	0x10
 580:	0301                	addi	t1,t1,0
 582:	0905                	addi	s2,s2,1
 584:	0010                	0x10
 586:	0301                	addi	t1,t1,0
 588:	0905                	addi	s2,s2,1
 58a:	0010                	0x10
 58c:	0301                	addi	t1,t1,0
 58e:	0905                	addi	s2,s2,1
 590:	0010                	0x10
 592:	0301                	addi	t1,t1,0
 594:	0905                	addi	s2,s2,1
 596:	0010                	0x10
 598:	0301                	addi	t1,t1,0
 59a:	0905                	addi	s2,s2,1
 59c:	0010                	0x10
 59e:	0301                	addi	t1,t1,0
 5a0:	0905                	addi	s2,s2,1
 5a2:	0010                	0x10
 5a4:	0301                	addi	t1,t1,0
 5a6:	0905                	addi	s2,s2,1
 5a8:	0010                	0x10
 5aa:	0301                	addi	t1,t1,0
 5ac:	0905                	addi	s2,s2,1
 5ae:	0010                	0x10
 5b0:	0301                	addi	t1,t1,0
 5b2:	0905                	addi	s2,s2,1
 5b4:	0010                	0x10
 5b6:	0301                	addi	t1,t1,0
 5b8:	0905                	addi	s2,s2,1
 5ba:	0010                	0x10
 5bc:	0301                	addi	t1,t1,0
 5be:	0905                	addi	s2,s2,1
 5c0:	0010                	0x10
 5c2:	0301                	addi	t1,t1,0
 5c4:	0905                	addi	s2,s2,1
 5c6:	0010                	0x10
 5c8:	0301                	addi	t1,t1,0
 5ca:	0905                	addi	s2,s2,1
 5cc:	0010                	0x10
 5ce:	0301                	addi	t1,t1,0
 5d0:	0905                	addi	s2,s2,1
 5d2:	0010                	0x10
 5d4:	0301                	addi	t1,t1,0
 5d6:	0905                	addi	s2,s2,1
 5d8:	0010                	0x10
 5da:	0301                	addi	t1,t1,0
 5dc:	0905                	addi	s2,s2,1
 5de:	0010                	0x10
 5e0:	0301                	addi	t1,t1,0
 5e2:	0905                	addi	s2,s2,1
 5e4:	0010                	0x10
 5e6:	0301                	addi	t1,t1,0
 5e8:	0905                	addi	s2,s2,1
 5ea:	0010                	0x10
 5ec:	0301                	addi	t1,t1,0
 5ee:	0905                	addi	s2,s2,1
 5f0:	0010                	0x10
 5f2:	0301                	addi	t1,t1,0
 5f4:	0905                	addi	s2,s2,1
 5f6:	0010                	0x10
 5f8:	0301                	addi	t1,t1,0
 5fa:	0905                	addi	s2,s2,1
 5fc:	0010                	0x10
 5fe:	0301                	addi	t1,t1,0
 600:	0905                	addi	s2,s2,1
 602:	0010                	0x10
 604:	0301                	addi	t1,t1,0
 606:	0905                	addi	s2,s2,1
 608:	0010                	0x10
 60a:	0301                	addi	t1,t1,0
 60c:	0905                	addi	s2,s2,1
 60e:	0010                	0x10
 610:	0301                	addi	t1,t1,0
 612:	0905                	addi	s2,s2,1
 614:	0010                	0x10
 616:	0301                	addi	t1,t1,0
 618:	0905                	addi	s2,s2,1
 61a:	0010                	0x10
 61c:	0301                	addi	t1,t1,0
 61e:	0905                	addi	s2,s2,1
 620:	0010                	0x10
 622:	0301                	addi	t1,t1,0
 624:	0905                	addi	s2,s2,1
 626:	0010                	0x10
 628:	0301                	addi	t1,t1,0
 62a:	0905                	addi	s2,s2,1
 62c:	0010                	0x10
 62e:	0301                	addi	t1,t1,0
 630:	0905                	addi	s2,s2,1
 632:	0010                	0x10
 634:	0301                	addi	t1,t1,0
 636:	0905                	addi	s2,s2,1
 638:	0010                	0x10
 63a:	0301                	addi	t1,t1,0
 63c:	0905                	addi	s2,s2,1
 63e:	0010                	0x10
 640:	0301                	addi	t1,t1,0
 642:	0905                	addi	s2,s2,1
 644:	0010                	0x10
 646:	0301                	addi	t1,t1,0
 648:	0905                	addi	s2,s2,1
 64a:	0010                	0x10
 64c:	0301                	addi	t1,t1,0
 64e:	0905                	addi	s2,s2,1
 650:	0010                	0x10
 652:	0301                	addi	t1,t1,0
 654:	0905                	addi	s2,s2,1
 656:	0010                	0x10
 658:	0301                	addi	t1,t1,0
 65a:	0905                	addi	s2,s2,1
 65c:	0010                	0x10
 65e:	0301                	addi	t1,t1,0
 660:	0905                	addi	s2,s2,1
 662:	0010                	0x10
 664:	0301                	addi	t1,t1,0
 666:	0905                	addi	s2,s2,1
 668:	0010                	0x10
 66a:	0301                	addi	t1,t1,0
 66c:	0905                	addi	s2,s2,1
 66e:	0010                	0x10
 670:	0301                	addi	t1,t1,0
 672:	0905                	addi	s2,s2,1
 674:	0010                	0x10
 676:	0301                	addi	t1,t1,0
 678:	0905                	addi	s2,s2,1
 67a:	0010                	0x10
 67c:	0301                	addi	t1,t1,0
 67e:	0905                	addi	s2,s2,1
 680:	0010                	0x10
 682:	0301                	addi	t1,t1,0
 684:	0905                	addi	s2,s2,1
 686:	0010                	0x10
 688:	0301                	addi	t1,t1,0
 68a:	0905                	addi	s2,s2,1
 68c:	0010                	0x10
 68e:	0301                	addi	t1,t1,0
 690:	0905                	addi	s2,s2,1
 692:	000c                	0xc
 694:	0301                	addi	t1,t1,0
 696:	0905                	addi	s2,s2,1
 698:	000c                	0xc
 69a:	0301                	addi	t1,t1,0
 69c:	0905                	addi	s2,s2,1
 69e:	000c                	0xc
 6a0:	0301                	addi	t1,t1,0
 6a2:	0905                	addi	s2,s2,1
 6a4:	000c                	0xc
 6a6:	0301                	addi	t1,t1,0
 6a8:	0905                	addi	s2,s2,1
 6aa:	000c                	0xc
 6ac:	0301                	addi	t1,t1,0
 6ae:	0905                	addi	s2,s2,1
 6b0:	000c                	0xc
 6b2:	0301                	addi	t1,t1,0
 6b4:	0905                	addi	s2,s2,1
 6b6:	000c                	0xc
 6b8:	0301                	addi	t1,t1,0
 6ba:	0905                	addi	s2,s2,1
 6bc:	000c                	0xc
 6be:	0301                	addi	t1,t1,0
 6c0:	0905                	addi	s2,s2,1
 6c2:	000c                	0xc
 6c4:	0301                	addi	t1,t1,0
 6c6:	0905                	addi	s2,s2,1
 6c8:	000c                	0xc
 6ca:	0301                	addi	t1,t1,0
 6cc:	0905                	addi	s2,s2,1
 6ce:	000c                	0xc
 6d0:	0301                	addi	t1,t1,0
 6d2:	0905                	addi	s2,s2,1
 6d4:	000c                	0xc
 6d6:	0301                	addi	t1,t1,0
 6d8:	0905                	addi	s2,s2,1
 6da:	000c                	0xc
 6dc:	0301                	addi	t1,t1,0
 6de:	0905                	addi	s2,s2,1
 6e0:	000c                	0xc
 6e2:	0301                	addi	t1,t1,0
 6e4:	0905                	addi	s2,s2,1
 6e6:	000c                	0xc
 6e8:	0301                	addi	t1,t1,0
 6ea:	0905                	addi	s2,s2,1
 6ec:	000c                	0xc
 6ee:	0301                	addi	t1,t1,0
 6f0:	0905                	addi	s2,s2,1
 6f2:	000c                	0xc
 6f4:	0301                	addi	t1,t1,0
 6f6:	0905                	addi	s2,s2,1
 6f8:	000c                	0xc
 6fa:	0301                	addi	t1,t1,0
 6fc:	0905                	addi	s2,s2,1
 6fe:	000c                	0xc
 700:	0301                	addi	t1,t1,0
 702:	0905                	addi	s2,s2,1
 704:	000c                	0xc
 706:	0301                	addi	t1,t1,0
 708:	0905                	addi	s2,s2,1
 70a:	000c                	0xc
 70c:	0301                	addi	t1,t1,0
 70e:	0905                	addi	s2,s2,1
 710:	000c                	0xc
 712:	0301                	addi	t1,t1,0
 714:	0905                	addi	s2,s2,1
 716:	0010                	0x10
 718:	0301                	addi	t1,t1,0
 71a:	0905                	addi	s2,s2,1
 71c:	0010                	0x10
 71e:	0301                	addi	t1,t1,0
 720:	0905                	addi	s2,s2,1
 722:	0010                	0x10
 724:	0301                	addi	t1,t1,0
 726:	0905                	addi	s2,s2,1
 728:	0010                	0x10
 72a:	0301                	addi	t1,t1,0
 72c:	0905                	addi	s2,s2,1
 72e:	0010                	0x10
 730:	0301                	addi	t1,t1,0
 732:	0905                	addi	s2,s2,1
 734:	0010                	0x10
 736:	0301                	addi	t1,t1,0
 738:	0905                	addi	s2,s2,1
 73a:	0010                	0x10
 73c:	0301                	addi	t1,t1,0
 73e:	0905                	addi	s2,s2,1
 740:	0010                	0x10
 742:	0301                	addi	t1,t1,0
 744:	0905                	addi	s2,s2,1
 746:	0010                	0x10
 748:	0301                	addi	t1,t1,0
 74a:	0905                	addi	s2,s2,1
 74c:	0010                	0x10
 74e:	0301                	addi	t1,t1,0
 750:	0905                	addi	s2,s2,1
 752:	0010                	0x10
 754:	0301                	addi	t1,t1,0
 756:	0905                	addi	s2,s2,1
 758:	0010                	0x10
 75a:	0301                	addi	t1,t1,0
 75c:	0905                	addi	s2,s2,1
 75e:	0010                	0x10
 760:	0301                	addi	t1,t1,0
 762:	0905                	addi	s2,s2,1
 764:	0010                	0x10
 766:	0301                	addi	t1,t1,0
 768:	0905                	addi	s2,s2,1
 76a:	0010                	0x10
 76c:	0301                	addi	t1,t1,0
 76e:	0905                	addi	s2,s2,1
 770:	0010                	0x10
 772:	0301                	addi	t1,t1,0
 774:	0905                	addi	s2,s2,1
 776:	0010                	0x10
 778:	0301                	addi	t1,t1,0
 77a:	0905                	addi	s2,s2,1
 77c:	0010                	0x10
 77e:	0301                	addi	t1,t1,0
 780:	0905                	addi	s2,s2,1
 782:	0010                	0x10
 784:	0301                	addi	t1,t1,0
 786:	0905                	addi	s2,s2,1
 788:	0010                	0x10
 78a:	0301                	addi	t1,t1,0
 78c:	0905                	addi	s2,s2,1
 78e:	0010                	0x10
 790:	0301                	addi	t1,t1,0
 792:	0905                	addi	s2,s2,1
 794:	0010                	0x10
 796:	0301                	addi	t1,t1,0
 798:	0905                	addi	s2,s2,1
 79a:	000c                	0xc
 79c:	0301                	addi	t1,t1,0
 79e:	0905                	addi	s2,s2,1
 7a0:	000c                	0xc
 7a2:	0301                	addi	t1,t1,0
 7a4:	0905                	addi	s2,s2,1
 7a6:	000c                	0xc
 7a8:	0301                	addi	t1,t1,0
 7aa:	0905                	addi	s2,s2,1
 7ac:	000c                	0xc
 7ae:	0301                	addi	t1,t1,0
 7b0:	0905                	addi	s2,s2,1
 7b2:	000c                	0xc
 7b4:	0301                	addi	t1,t1,0
 7b6:	0905                	addi	s2,s2,1
 7b8:	000c                	0xc
 7ba:	0301                	addi	t1,t1,0
 7bc:	0905                	addi	s2,s2,1
 7be:	000c                	0xc
 7c0:	0301                	addi	t1,t1,0
 7c2:	0905                	addi	s2,s2,1
 7c4:	0010                	0x10
 7c6:	0301                	addi	t1,t1,0
 7c8:	0905                	addi	s2,s2,1
 7ca:	0010                	0x10
 7cc:	0301                	addi	t1,t1,0
 7ce:	0905                	addi	s2,s2,1
 7d0:	0010                	0x10
 7d2:	0301                	addi	t1,t1,0
 7d4:	0905                	addi	s2,s2,1
 7d6:	0010                	0x10
 7d8:	0301                	addi	t1,t1,0
 7da:	0905                	addi	s2,s2,1
 7dc:	0010                	0x10
 7de:	0301                	addi	t1,t1,0
 7e0:	0905                	addi	s2,s2,1
 7e2:	0010                	0x10
 7e4:	0301                	addi	t1,t1,0
 7e6:	0905                	addi	s2,s2,1
 7e8:	0010                	0x10
 7ea:	0301                	addi	t1,t1,0
 7ec:	0905                	addi	s2,s2,1
 7ee:	0010                	0x10
 7f0:	0301                	addi	t1,t1,0
 7f2:	0905                	addi	s2,s2,1
 7f4:	0010                	0x10
 7f6:	0301                	addi	t1,t1,0
 7f8:	0905                	addi	s2,s2,1
 7fa:	0010                	0x10
 7fc:	0301                	addi	t1,t1,0
 7fe:	0905                	addi	s2,s2,1
 800:	0010                	0x10
 802:	0301                	addi	t1,t1,0
 804:	0905                	addi	s2,s2,1
 806:	0010                	0x10
 808:	0301                	addi	t1,t1,0
 80a:	0905                	addi	s2,s2,1
 80c:	0010                	0x10
 80e:	0301                	addi	t1,t1,0
 810:	0905                	addi	s2,s2,1
 812:	0010                	0x10
 814:	0301                	addi	t1,t1,0
 816:	0905                	addi	s2,s2,1
 818:	0010                	0x10
 81a:	0301                	addi	t1,t1,0
 81c:	0905                	addi	s2,s2,1
 81e:	0010                	0x10
 820:	0301                	addi	t1,t1,0
 822:	0905                	addi	s2,s2,1
 824:	0010                	0x10
 826:	0301                	addi	t1,t1,0
 828:	0905                	addi	s2,s2,1
 82a:	0010                	0x10
 82c:	0301                	addi	t1,t1,0
 82e:	0905                	addi	s2,s2,1
 830:	0010                	0x10
 832:	0301                	addi	t1,t1,0
 834:	0905                	addi	s2,s2,1
 836:	0010                	0x10
 838:	0301                	addi	t1,t1,0
 83a:	0905                	addi	s2,s2,1
 83c:	0010                	0x10
 83e:	0301                	addi	t1,t1,0
 840:	0905                	addi	s2,s2,1
 842:	0010                	0x10
 844:	0301                	addi	t1,t1,0
 846:	0905                	addi	s2,s2,1
 848:	0010                	0x10
 84a:	0301                	addi	t1,t1,0
 84c:	0905                	addi	s2,s2,1
 84e:	0010                	0x10
 850:	0301                	addi	t1,t1,0
 852:	0905                	addi	s2,s2,1
 854:	0010                	0x10
 856:	0301                	addi	t1,t1,0
 858:	0905                	addi	s2,s2,1
 85a:	0010                	0x10
 85c:	0301                	addi	t1,t1,0
 85e:	0905                	addi	s2,s2,1
 860:	0010                	0x10
 862:	0301                	addi	t1,t1,0
 864:	0905                	addi	s2,s2,1
 866:	0010                	0x10
 868:	0301                	addi	t1,t1,0
 86a:	0905                	addi	s2,s2,1
 86c:	0010                	0x10
 86e:	0301                	addi	t1,t1,0
 870:	0905                	addi	s2,s2,1
 872:	0010                	0x10
 874:	0301                	addi	t1,t1,0
 876:	0905                	addi	s2,s2,1
 878:	0010                	0x10
 87a:	0301                	addi	t1,t1,0
 87c:	0905                	addi	s2,s2,1
 87e:	0010                	0x10
 880:	0301                	addi	t1,t1,0
 882:	0905                	addi	s2,s2,1
 884:	0010                	0x10
 886:	0301                	addi	t1,t1,0
 888:	0905                	addi	s2,s2,1
 88a:	0010                	0x10
 88c:	0301                	addi	t1,t1,0
 88e:	0905                	addi	s2,s2,1
 890:	0010                	0x10
 892:	0301                	addi	t1,t1,0
 894:	0905                	addi	s2,s2,1
 896:	0010                	0x10
 898:	0301                	addi	t1,t1,0
 89a:	0905                	addi	s2,s2,1
 89c:	0010                	0x10
 89e:	0301                	addi	t1,t1,0
 8a0:	0905                	addi	s2,s2,1
 8a2:	0010                	0x10
 8a4:	0301                	addi	t1,t1,0
 8a6:	0905                	addi	s2,s2,1
 8a8:	0010                	0x10
 8aa:	0301                	addi	t1,t1,0
 8ac:	0905                	addi	s2,s2,1
 8ae:	0010                	0x10
 8b0:	0301                	addi	t1,t1,0
 8b2:	0905                	addi	s2,s2,1
 8b4:	0010                	0x10
 8b6:	0301                	addi	t1,t1,0
 8b8:	0905                	addi	s2,s2,1
 8ba:	0010                	0x10
 8bc:	0301                	addi	t1,t1,0
 8be:	0905                	addi	s2,s2,1
 8c0:	0010                	0x10
 8c2:	0301                	addi	t1,t1,0
 8c4:	0905                	addi	s2,s2,1
 8c6:	0010                	0x10
 8c8:	0301                	addi	t1,t1,0
 8ca:	0905                	addi	s2,s2,1
 8cc:	0010                	0x10
 8ce:	0301                	addi	t1,t1,0
 8d0:	0905                	addi	s2,s2,1
 8d2:	0010                	0x10
 8d4:	0301                	addi	t1,t1,0
 8d6:	0905                	addi	s2,s2,1
 8d8:	0010                	0x10
 8da:	0301                	addi	t1,t1,0
 8dc:	0905                	addi	s2,s2,1
 8de:	0010                	0x10
 8e0:	0301                	addi	t1,t1,0
 8e2:	0905                	addi	s2,s2,1
 8e4:	0010                	0x10
 8e6:	0301                	addi	t1,t1,0
 8e8:	0905                	addi	s2,s2,1
 8ea:	0010                	0x10
 8ec:	0301                	addi	t1,t1,0
 8ee:	0905                	addi	s2,s2,1
 8f0:	0010                	0x10
 8f2:	0301                	addi	t1,t1,0
 8f4:	0905                	addi	s2,s2,1
 8f6:	0010                	0x10
 8f8:	0301                	addi	t1,t1,0
 8fa:	0905                	addi	s2,s2,1
 8fc:	0010                	0x10
 8fe:	0301                	addi	t1,t1,0
 900:	0905                	addi	s2,s2,1
 902:	0010                	0x10
 904:	0301                	addi	t1,t1,0
 906:	0905                	addi	s2,s2,1
 908:	0010                	0x10
 90a:	0301                	addi	t1,t1,0
 90c:	0905                	addi	s2,s2,1
 90e:	0010                	0x10
 910:	0301                	addi	t1,t1,0
 912:	0905                	addi	s2,s2,1
 914:	0010                	0x10
 916:	0301                	addi	t1,t1,0
 918:	0905                	addi	s2,s2,1
 91a:	0010                	0x10
 91c:	0301                	addi	t1,t1,0
 91e:	0905                	addi	s2,s2,1
 920:	0010                	0x10
 922:	0301                	addi	t1,t1,0
 924:	0905                	addi	s2,s2,1
 926:	0010                	0x10
 928:	0301                	addi	t1,t1,0
 92a:	0905                	addi	s2,s2,1
 92c:	0010                	0x10
 92e:	0301                	addi	t1,t1,0
 930:	0905                	addi	s2,s2,1
 932:	0010                	0x10
 934:	0301                	addi	t1,t1,0
 936:	0905                	addi	s2,s2,1
 938:	0010                	0x10
 93a:	0301                	addi	t1,t1,0
 93c:	0905                	addi	s2,s2,1
 93e:	0010                	0x10
 940:	0301                	addi	t1,t1,0
 942:	0905                	addi	s2,s2,1
 944:	0010                	0x10
 946:	0301                	addi	t1,t1,0
 948:	0905                	addi	s2,s2,1
 94a:	0010                	0x10
 94c:	0301                	addi	t1,t1,0
 94e:	0905                	addi	s2,s2,1
 950:	0010                	0x10
 952:	0301                	addi	t1,t1,0
 954:	0905                	addi	s2,s2,1
 956:	0010                	0x10
 958:	0301                	addi	t1,t1,0
 95a:	0905                	addi	s2,s2,1
 95c:	0010                	0x10
 95e:	0301                	addi	t1,t1,0
 960:	0905                	addi	s2,s2,1
 962:	0010                	0x10
 964:	0301                	addi	t1,t1,0
 966:	0905                	addi	s2,s2,1
 968:	0010                	0x10
 96a:	0301                	addi	t1,t1,0
 96c:	0905                	addi	s2,s2,1
 96e:	0010                	0x10
 970:	0301                	addi	t1,t1,0
 972:	0905                	addi	s2,s2,1
 974:	0010                	0x10
 976:	0301                	addi	t1,t1,0
 978:	0905                	addi	s2,s2,1
 97a:	0010                	0x10
 97c:	0301                	addi	t1,t1,0
 97e:	0905                	addi	s2,s2,1
 980:	0010                	0x10
 982:	0301                	addi	t1,t1,0
 984:	0905                	addi	s2,s2,1
 986:	0010                	0x10
 988:	0301                	addi	t1,t1,0
 98a:	0905                	addi	s2,s2,1
 98c:	000c                	0xc
 98e:	0301                	addi	t1,t1,0
 990:	0905                	addi	s2,s2,1
 992:	000c                	0xc
 994:	0301                	addi	t1,t1,0
 996:	0905                	addi	s2,s2,1
 998:	000c                	0xc
 99a:	0301                	addi	t1,t1,0
 99c:	0905                	addi	s2,s2,1
 99e:	000c                	0xc
 9a0:	0301                	addi	t1,t1,0
 9a2:	0905                	addi	s2,s2,1
 9a4:	000c                	0xc
 9a6:	0301                	addi	t1,t1,0
 9a8:	0905                	addi	s2,s2,1
 9aa:	000c                	0xc
 9ac:	0301                	addi	t1,t1,0
 9ae:	0905                	addi	s2,s2,1
 9b0:	000c                	0xc
 9b2:	0301                	addi	t1,t1,0
 9b4:	0905                	addi	s2,s2,1
 9b6:	000c                	0xc
 9b8:	0301                	addi	t1,t1,0
 9ba:	0905                	addi	s2,s2,1
 9bc:	000c                	0xc
 9be:	0301                	addi	t1,t1,0
 9c0:	0905                	addi	s2,s2,1
 9c2:	000c                	0xc
 9c4:	0301                	addi	t1,t1,0
 9c6:	0905                	addi	s2,s2,1
 9c8:	000c                	0xc
 9ca:	0301                	addi	t1,t1,0
 9cc:	0905                	addi	s2,s2,1
 9ce:	000c                	0xc
 9d0:	0301                	addi	t1,t1,0
 9d2:	0905                	addi	s2,s2,1
 9d4:	000c                	0xc
 9d6:	0301                	addi	t1,t1,0
 9d8:	0905                	addi	s2,s2,1
 9da:	000c                	0xc
 9dc:	0301                	addi	t1,t1,0
 9de:	0905                	addi	s2,s2,1
 9e0:	000c                	0xc
 9e2:	0301                	addi	t1,t1,0
 9e4:	0905                	addi	s2,s2,1
 9e6:	000c                	0xc
 9e8:	0301                	addi	t1,t1,0
 9ea:	0905                	addi	s2,s2,1
 9ec:	000c                	0xc
 9ee:	0301                	addi	t1,t1,0
 9f0:	0905                	addi	s2,s2,1
 9f2:	000c                	0xc
 9f4:	0301                	addi	t1,t1,0
 9f6:	0905                	addi	s2,s2,1
 9f8:	000c                	0xc
 9fa:	0301                	addi	t1,t1,0
 9fc:	0905                	addi	s2,s2,1
 9fe:	000c                	0xc
 a00:	0301                	addi	t1,t1,0
 a02:	0905                	addi	s2,s2,1
 a04:	000c                	0xc
 a06:	0301                	addi	t1,t1,0
 a08:	0905                	addi	s2,s2,1
 a0a:	000c                	0xc
 a0c:	0301                	addi	t1,t1,0
 a0e:	0905                	addi	s2,s2,1
 a10:	000c                	0xc
 a12:	0301                	addi	t1,t1,0
 a14:	0905                	addi	s2,s2,1
 a16:	000c                	0xc
 a18:	0301                	addi	t1,t1,0
 a1a:	0905                	addi	s2,s2,1
 a1c:	000c                	0xc
 a1e:	0301                	addi	t1,t1,0
 a20:	0905                	addi	s2,s2,1
 a22:	000c                	0xc
 a24:	0301                	addi	t1,t1,0
 a26:	0905                	addi	s2,s2,1
 a28:	000c                	0xc
 a2a:	0301                	addi	t1,t1,0
 a2c:	0905                	addi	s2,s2,1
 a2e:	000c                	0xc
 a30:	0301                	addi	t1,t1,0
 a32:	0905                	addi	s2,s2,1
 a34:	000c                	0xc
 a36:	0301                	addi	t1,t1,0
 a38:	0905                	addi	s2,s2,1
 a3a:	000c                	0xc
 a3c:	0301                	addi	t1,t1,0
 a3e:	0905                	addi	s2,s2,1
 a40:	000c                	0xc
 a42:	0301                	addi	t1,t1,0
 a44:	0905                	addi	s2,s2,1
 a46:	000c                	0xc
 a48:	0301                	addi	t1,t1,0
 a4a:	0905                	addi	s2,s2,1
 a4c:	000c                	0xc
 a4e:	0301                	addi	t1,t1,0
 a50:	0905                	addi	s2,s2,1
 a52:	000c                	0xc
 a54:	0301                	addi	t1,t1,0
 a56:	0905                	addi	s2,s2,1
 a58:	000c                	0xc
 a5a:	0301                	addi	t1,t1,0
 a5c:	0905                	addi	s2,s2,1
 a5e:	0010                	0x10
 a60:	0301                	addi	t1,t1,0
 a62:	0905                	addi	s2,s2,1
 a64:	0010                	0x10
 a66:	0301                	addi	t1,t1,0
 a68:	0905                	addi	s2,s2,1
 a6a:	0010                	0x10
 a6c:	0301                	addi	t1,t1,0
 a6e:	0905                	addi	s2,s2,1
 a70:	0010                	0x10
 a72:	0301                	addi	t1,t1,0
 a74:	0905                	addi	s2,s2,1
 a76:	0010                	0x10
 a78:	0301                	addi	t1,t1,0
 a7a:	0905                	addi	s2,s2,1
 a7c:	0010                	0x10
 a7e:	0301                	addi	t1,t1,0
 a80:	0905                	addi	s2,s2,1
 a82:	0010                	0x10
 a84:	0301                	addi	t1,t1,0
 a86:	0905                	addi	s2,s2,1
 a88:	0010                	0x10
 a8a:	0301                	addi	t1,t1,0
 a8c:	0905                	addi	s2,s2,1
 a8e:	0010                	0x10
 a90:	0301                	addi	t1,t1,0
 a92:	0905                	addi	s2,s2,1
 a94:	0010                	0x10
 a96:	0301                	addi	t1,t1,0
 a98:	0905                	addi	s2,s2,1
 a9a:	0010                	0x10
 a9c:	0301                	addi	t1,t1,0
 a9e:	0905                	addi	s2,s2,1
 aa0:	0010                	0x10
 aa2:	0301                	addi	t1,t1,0
 aa4:	0905                	addi	s2,s2,1
 aa6:	0010                	0x10
 aa8:	0301                	addi	t1,t1,0
 aaa:	0905                	addi	s2,s2,1
 aac:	0010                	0x10
 aae:	0301                	addi	t1,t1,0
 ab0:	0905                	addi	s2,s2,1
 ab2:	0010                	0x10
 ab4:	0301                	addi	t1,t1,0
 ab6:	0905                	addi	s2,s2,1
 ab8:	0010                	0x10
 aba:	0301                	addi	t1,t1,0
 abc:	0905                	addi	s2,s2,1
 abe:	0010                	0x10
 ac0:	0301                	addi	t1,t1,0
 ac2:	0905                	addi	s2,s2,1
 ac4:	0010                	0x10
 ac6:	0301                	addi	t1,t1,0
 ac8:	0905                	addi	s2,s2,1
 aca:	0010                	0x10
 acc:	0301                	addi	t1,t1,0
 ace:	0905                	addi	s2,s2,1
 ad0:	0010                	0x10
 ad2:	0301                	addi	t1,t1,0
 ad4:	0905                	addi	s2,s2,1
 ad6:	0010                	0x10
 ad8:	0301                	addi	t1,t1,0
 ada:	0905                	addi	s2,s2,1
 adc:	0010                	0x10
 ade:	0301                	addi	t1,t1,0
 ae0:	0905                	addi	s2,s2,1
 ae2:	0010                	0x10
 ae4:	0301                	addi	t1,t1,0
 ae6:	0905                	addi	s2,s2,1
 ae8:	0010                	0x10
 aea:	0301                	addi	t1,t1,0
 aec:	0905                	addi	s2,s2,1
 aee:	0010                	0x10
 af0:	0301                	addi	t1,t1,0
 af2:	0905                	addi	s2,s2,1
 af4:	0010                	0x10
 af6:	0301                	addi	t1,t1,0
 af8:	0905                	addi	s2,s2,1
 afa:	0010                	0x10
 afc:	0301                	addi	t1,t1,0
 afe:	0905                	addi	s2,s2,1
 b00:	0010                	0x10
 b02:	0301                	addi	t1,t1,0
 b04:	0905                	addi	s2,s2,1
 b06:	0010                	0x10
 b08:	0301                	addi	t1,t1,0
 b0a:	0905                	addi	s2,s2,1
 b0c:	0010                	0x10
 b0e:	0301                	addi	t1,t1,0
 b10:	0905                	addi	s2,s2,1
 b12:	0010                	0x10
 b14:	0301                	addi	t1,t1,0
 b16:	0905                	addi	s2,s2,1
 b18:	0010                	0x10
 b1a:	0301                	addi	t1,t1,0
 b1c:	0905                	addi	s2,s2,1
 b1e:	0010                	0x10
 b20:	0301                	addi	t1,t1,0
 b22:	0905                	addi	s2,s2,1
 b24:	0010                	0x10
 b26:	0301                	addi	t1,t1,0
 b28:	0905                	addi	s2,s2,1
 b2a:	0010                	0x10
 b2c:	0301                	addi	t1,t1,0
 b2e:	0905                	addi	s2,s2,1
 b30:	0010                	0x10
 b32:	0301                	addi	t1,t1,0
 b34:	0905                	addi	s2,s2,1
 b36:	0010                	0x10
 b38:	0301                	addi	t1,t1,0
 b3a:	0905                	addi	s2,s2,1
 b3c:	0010                	0x10
 b3e:	0301                	addi	t1,t1,0
 b40:	0905                	addi	s2,s2,1
 b42:	0010                	0x10
 b44:	0301                	addi	t1,t1,0
 b46:	0905                	addi	s2,s2,1
 b48:	0010                	0x10
 b4a:	0301                	addi	t1,t1,0
 b4c:	0905                	addi	s2,s2,1
 b4e:	0010                	0x10
 b50:	0301                	addi	t1,t1,0
 b52:	0905                	addi	s2,s2,1
 b54:	0010                	0x10
 b56:	0301                	addi	t1,t1,0
 b58:	0905                	addi	s2,s2,1
 b5a:	0010                	0x10
 b5c:	0301                	addi	t1,t1,0
 b5e:	0905                	addi	s2,s2,1
 b60:	0010                	0x10
 b62:	0301                	addi	t1,t1,0
 b64:	0905                	addi	s2,s2,1
 b66:	0010                	0x10
 b68:	0301                	addi	t1,t1,0
 b6a:	0905                	addi	s2,s2,1
 b6c:	0010                	0x10
 b6e:	0301                	addi	t1,t1,0
 b70:	0905                	addi	s2,s2,1
 b72:	0010                	0x10
 b74:	0301                	addi	t1,t1,0
 b76:	0905                	addi	s2,s2,1
 b78:	0010                	0x10
 b7a:	0301                	addi	t1,t1,0
 b7c:	0905                	addi	s2,s2,1
 b7e:	0010                	0x10
 b80:	0301                	addi	t1,t1,0
 b82:	0905                	addi	s2,s2,1
 b84:	0010                	0x10
 b86:	0301                	addi	t1,t1,0
 b88:	0905                	addi	s2,s2,1
 b8a:	0010                	0x10
 b8c:	0301                	addi	t1,t1,0
 b8e:	0905                	addi	s2,s2,1
 b90:	0010                	0x10
 b92:	0301                	addi	t1,t1,0
 b94:	0905                	addi	s2,s2,1
 b96:	0010                	0x10
 b98:	0301                	addi	t1,t1,0
 b9a:	0905                	addi	s2,s2,1
 b9c:	0010                	0x10
 b9e:	0301                	addi	t1,t1,0
 ba0:	0905                	addi	s2,s2,1
 ba2:	0010                	0x10
 ba4:	0301                	addi	t1,t1,0
 ba6:	0905                	addi	s2,s2,1
 ba8:	0010                	0x10
 baa:	0301                	addi	t1,t1,0
 bac:	0905                	addi	s2,s2,1
 bae:	0010                	0x10
 bb0:	0301                	addi	t1,t1,0
 bb2:	0905                	addi	s2,s2,1
 bb4:	0010                	0x10
 bb6:	0301                	addi	t1,t1,0
 bb8:	0905                	addi	s2,s2,1
 bba:	0010                	0x10
 bbc:	0301                	addi	t1,t1,0
 bbe:	0905                	addi	s2,s2,1
 bc0:	0010                	0x10
 bc2:	0301                	addi	t1,t1,0
 bc4:	0905                	addi	s2,s2,1
 bc6:	0010                	0x10
 bc8:	0301                	addi	t1,t1,0
 bca:	0905                	addi	s2,s2,1
 bcc:	0010                	0x10
 bce:	0301                	addi	t1,t1,0
 bd0:	0905                	addi	s2,s2,1
 bd2:	0010                	0x10
 bd4:	0301                	addi	t1,t1,0
 bd6:	0905                	addi	s2,s2,1
 bd8:	0010                	0x10
 bda:	0301                	addi	t1,t1,0
 bdc:	0905                	addi	s2,s2,1
 bde:	0010                	0x10
 be0:	0301                	addi	t1,t1,0
 be2:	0905                	addi	s2,s2,1
 be4:	0010                	0x10
 be6:	0301                	addi	t1,t1,0
 be8:	0905                	addi	s2,s2,1
 bea:	0010                	0x10
 bec:	0301                	addi	t1,t1,0
 bee:	0905                	addi	s2,s2,1
 bf0:	0010                	0x10
 bf2:	0301                	addi	t1,t1,0
 bf4:	0905                	addi	s2,s2,1
 bf6:	0010                	0x10
 bf8:	0301                	addi	t1,t1,0
 bfa:	0905                	addi	s2,s2,1
 bfc:	0010                	0x10
 bfe:	0301                	addi	t1,t1,0
 c00:	0905                	addi	s2,s2,1
 c02:	0010                	0x10
 c04:	0301                	addi	t1,t1,0
 c06:	0905                	addi	s2,s2,1
 c08:	0010                	0x10
 c0a:	0301                	addi	t1,t1,0
 c0c:	0905                	addi	s2,s2,1
 c0e:	0010                	0x10
 c10:	0301                	addi	t1,t1,0
 c12:	0905                	addi	s2,s2,1
 c14:	0010                	0x10
 c16:	0301                	addi	t1,t1,0
 c18:	0905                	addi	s2,s2,1
 c1a:	0010                	0x10
 c1c:	0301                	addi	t1,t1,0
 c1e:	0905                	addi	s2,s2,1
 c20:	0010                	0x10
 c22:	0301                	addi	t1,t1,0
 c24:	0905                	addi	s2,s2,1
 c26:	0010                	0x10
 c28:	0301                	addi	t1,t1,0
 c2a:	0905                	addi	s2,s2,1
 c2c:	0010                	0x10
 c2e:	0301                	addi	t1,t1,0
 c30:	0905                	addi	s2,s2,1
 c32:	0010                	0x10
 c34:	0301                	addi	t1,t1,0
 c36:	0905                	addi	s2,s2,1
 c38:	0010                	0x10
 c3a:	0301                	addi	t1,t1,0
 c3c:	0905                	addi	s2,s2,1
 c3e:	0010                	0x10
 c40:	0301                	addi	t1,t1,0
 c42:	0905                	addi	s2,s2,1
 c44:	0010                	0x10
 c46:	0301                	addi	t1,t1,0
 c48:	0905                	addi	s2,s2,1
 c4a:	0010                	0x10
 c4c:	0301                	addi	t1,t1,0
 c4e:	0905                	addi	s2,s2,1
 c50:	0010                	0x10
 c52:	0301                	addi	t1,t1,0
 c54:	0905                	addi	s2,s2,1
 c56:	0010                	0x10
 c58:	0301                	addi	t1,t1,0
 c5a:	0905                	addi	s2,s2,1
 c5c:	0010                	0x10
 c5e:	0301                	addi	t1,t1,0
 c60:	0905                	addi	s2,s2,1
 c62:	0010                	0x10
 c64:	0301                	addi	t1,t1,0
 c66:	0905                	addi	s2,s2,1
 c68:	0010                	0x10
 c6a:	0301                	addi	t1,t1,0
 c6c:	0905                	addi	s2,s2,1
 c6e:	0010                	0x10
 c70:	0301                	addi	t1,t1,0
 c72:	0905                	addi	s2,s2,1
 c74:	0010                	0x10
 c76:	0301                	addi	t1,t1,0
 c78:	0905                	addi	s2,s2,1
 c7a:	0010                	0x10
 c7c:	0301                	addi	t1,t1,0
 c7e:	0905                	addi	s2,s2,1
 c80:	0010                	0x10
 c82:	0301                	addi	t1,t1,0
 c84:	0905                	addi	s2,s2,1
 c86:	0010                	0x10
 c88:	0301                	addi	t1,t1,0
 c8a:	0905                	addi	s2,s2,1
 c8c:	0010                	0x10
 c8e:	0301                	addi	t1,t1,0
 c90:	0905                	addi	s2,s2,1
 c92:	0010                	0x10
 c94:	0301                	addi	t1,t1,0
 c96:	0905                	addi	s2,s2,1
 c98:	0010                	0x10
 c9a:	0301                	addi	t1,t1,0
 c9c:	0905                	addi	s2,s2,1
 c9e:	0010                	0x10
 ca0:	0301                	addi	t1,t1,0
 ca2:	0905                	addi	s2,s2,1
 ca4:	0010                	0x10
 ca6:	0301                	addi	t1,t1,0
 ca8:	0905                	addi	s2,s2,1
 caa:	0010                	0x10
 cac:	0301                	addi	t1,t1,0
 cae:	0905                	addi	s2,s2,1
 cb0:	0010                	0x10
 cb2:	0301                	addi	t1,t1,0
 cb4:	0905                	addi	s2,s2,1
 cb6:	0010                	0x10
 cb8:	0301                	addi	t1,t1,0
 cba:	0905                	addi	s2,s2,1
 cbc:	0010                	0x10
 cbe:	0301                	addi	t1,t1,0
 cc0:	0905                	addi	s2,s2,1
 cc2:	0010                	0x10
 cc4:	0301                	addi	t1,t1,0
 cc6:	0905                	addi	s2,s2,1
 cc8:	0010                	0x10
 cca:	0301                	addi	t1,t1,0
 ccc:	0905                	addi	s2,s2,1
 cce:	0010                	0x10
 cd0:	0301                	addi	t1,t1,0
 cd2:	0905                	addi	s2,s2,1
 cd4:	0010                	0x10
 cd6:	0301                	addi	t1,t1,0
 cd8:	0905                	addi	s2,s2,1
 cda:	0010                	0x10
 cdc:	0301                	addi	t1,t1,0
 cde:	0905                	addi	s2,s2,1
 ce0:	0010                	0x10
 ce2:	0301                	addi	t1,t1,0
 ce4:	0905                	addi	s2,s2,1
 ce6:	0010                	0x10
 ce8:	0301                	addi	t1,t1,0
 cea:	0905                	addi	s2,s2,1
 cec:	0010                	0x10
 cee:	0301                	addi	t1,t1,0
 cf0:	0905                	addi	s2,s2,1
 cf2:	000c                	0xc
 cf4:	0301                	addi	t1,t1,0
 cf6:	0905                	addi	s2,s2,1
 cf8:	000c                	0xc
 cfa:	0301                	addi	t1,t1,0
 cfc:	0905                	addi	s2,s2,1
 cfe:	000c                	0xc
 d00:	0301                	addi	t1,t1,0
 d02:	0905                	addi	s2,s2,1
 d04:	000c                	0xc
 d06:	0301                	addi	t1,t1,0
 d08:	0905                	addi	s2,s2,1
 d0a:	000c                	0xc
 d0c:	0301                	addi	t1,t1,0
 d0e:	0905                	addi	s2,s2,1
 d10:	000c                	0xc
 d12:	0301                	addi	t1,t1,0
 d14:	0905                	addi	s2,s2,1
 d16:	000c                	0xc
 d18:	0301                	addi	t1,t1,0
 d1a:	0901                	addi	s2,s2,0
 d1c:	000c                	0xc
 d1e:	0301                	addi	t1,t1,0
 d20:	0905                	addi	s2,s2,1
 d22:	0008                	0x8
 d24:	0301                	addi	t1,t1,0
 d26:	0905                	addi	s2,s2,1
 d28:	000c                	0xc
 d2a:	0301                	addi	t1,t1,0
 d2c:	0905                	addi	s2,s2,1
 d2e:	000c                	0xc
 d30:	0301                	addi	t1,t1,0
 d32:	0905                	addi	s2,s2,1
 d34:	000c                	0xc
 d36:	0301                	addi	t1,t1,0
 d38:	0905                	addi	s2,s2,1
 d3a:	000c                	0xc
 d3c:	0301                	addi	t1,t1,0
 d3e:	0905                	addi	s2,s2,1
 d40:	000c                	0xc
 d42:	0301                	addi	t1,t1,0
 d44:	0905                	addi	s2,s2,1
 d46:	000c                	0xc
 d48:	0301                	addi	t1,t1,0
 d4a:	0905                	addi	s2,s2,1
 d4c:	000c                	0xc
 d4e:	0301                	addi	t1,t1,0
 d50:	0905                	addi	s2,s2,1
 d52:	000c                	0xc
 d54:	0301                	addi	t1,t1,0
 d56:	0905                	addi	s2,s2,1
 d58:	000c                	0xc
 d5a:	0301                	addi	t1,t1,0
 d5c:	0905                	addi	s2,s2,1
 d5e:	000c                	0xc
 d60:	0301                	addi	t1,t1,0
 d62:	0905                	addi	s2,s2,1
 d64:	000c                	0xc
 d66:	0301                	addi	t1,t1,0
 d68:	0905                	addi	s2,s2,1
 d6a:	000c                	0xc
 d6c:	0301                	addi	t1,t1,0
 d6e:	0905                	addi	s2,s2,1
 d70:	000c                	0xc
 d72:	0301                	addi	t1,t1,0
 d74:	0905                	addi	s2,s2,1
 d76:	000c                	0xc
 d78:	0301                	addi	t1,t1,0
 d7a:	0905                	addi	s2,s2,1
 d7c:	0010                	0x10
 d7e:	0301                	addi	t1,t1,0
 d80:	0905                	addi	s2,s2,1
 d82:	0010                	0x10
 d84:	0301                	addi	t1,t1,0
 d86:	0905                	addi	s2,s2,1
 d88:	0010                	0x10
 d8a:	0301                	addi	t1,t1,0
 d8c:	0905                	addi	s2,s2,1
 d8e:	0010                	0x10
 d90:	0301                	addi	t1,t1,0
 d92:	0905                	addi	s2,s2,1
 d94:	0010                	0x10
 d96:	0301                	addi	t1,t1,0
 d98:	0905                	addi	s2,s2,1
 d9a:	0010                	0x10
 d9c:	0301                	addi	t1,t1,0
 d9e:	0905                	addi	s2,s2,1
 da0:	0010                	0x10
 da2:	0301                	addi	t1,t1,0
 da4:	0905                	addi	s2,s2,1
 da6:	0010                	0x10
 da8:	0301                	addi	t1,t1,0
 daa:	0905                	addi	s2,s2,1
 dac:	0010                	0x10
 dae:	0301                	addi	t1,t1,0
 db0:	0905                	addi	s2,s2,1
 db2:	0010                	0x10
 db4:	0301                	addi	t1,t1,0
 db6:	0905                	addi	s2,s2,1
 db8:	0010                	0x10
 dba:	0301                	addi	t1,t1,0
 dbc:	0905                	addi	s2,s2,1
 dbe:	0010                	0x10
 dc0:	0301                	addi	t1,t1,0
 dc2:	0904                	addi	s1,sp,144
 dc4:	0010                	0x10
 dc6:	0301                	addi	t1,t1,0
 dc8:	0901                	addi	s2,s2,0
 dca:	0004                	0x4
 dcc:	0901                	addi	s2,s2,0
 dce:	0010                	0x10
 dd0:	0100                	addi	s0,sp,128
 dd2:	01              	Address 0x0000000000000dd2 is out of bounds.


Disassembly of section .debug_info:

00000000 <.debug_info>:
   0:	0022                	c.slli	zero,0x8
   2:	0000                	unimp
   4:	0002                	c.slli64	zero
   6:	0000                	unimp
   8:	0000                	unimp
   a:	0104                	addi	s1,sp,128
   c:	0000                	unimp
   e:	0000                	unimp
  10:	0000                	unimp
  12:	8000                	0x8000
  14:	20ec                	fld	fa1,192(s1)
  16:	8000                	0x8000
  18:	0000                	unimp
  1a:	0000                	unimp
  1c:	005f 0000 00ad      	0xad0000005f
  22:	0000                	unimp
  24:	8001                	c.srli64	s0

Disassembly of section .debug_abbrev:

00000000 <.debug_abbrev>:
   0:	1101                	addi	sp,sp,-32
   2:	1000                	addi	s0,sp,32
   4:	1106                	slli	sp,sp,0x21
   6:	1201                	addi	tp,tp,-32
   8:	0301                	addi	t1,t1,0
   a:	1b0e                	slli	s6,s6,0x23
   c:	250e                	fld	fa0,192(sp)
   e:	130e                	slli	t1,t1,0x23
  10:	0005                	c.nop	1
	...

Disassembly of section .debug_aranges:

00000000 <.debug_aranges>:
   0:	001c                	0x1c
   2:	0000                	unimp
   4:	0002                	c.slli64	zero
   6:	0000                	unimp
   8:	0000                	unimp
   a:	0004                	0x4
   c:	0000                	unimp
   e:	0000                	unimp
  10:	0000                	unimp
  12:	8000                	0x8000
  14:	20ec                	fld	fa1,192(s1)
	...

Disassembly of section .debug_str:

00000000 <.debug_str>:
   0:	6d6f682f          	0x6d6f682f
   4:	2f65                	jal	7bc <offset+0x750>
   6:	6f6c                	flw	fa1,92(a4)
   8:	6976                	flw	fs2,92(sp)
   a:	65442f73          	csrrs	t5,0x654,s0
   e:	6f746b73          	csrrsi	s6,0x6f7,8
  12:	2f70                	fld	fa2,216(a4)
  14:	6952                	flw	fs2,20(sp)
  16:	6556                	flw	fa0,84(sp)
  18:	5f72                	lw	t5,60(sp)
  1a:	65726f63          	bltu	tp,s7,678 <offset+0x60c>
  1e:	7369722f          	0x7369722f
  22:	2f666f63          	bltu	a2,s6,320 <offset+0x2b4>
  26:	6972                	flw	fs2,28(sp)
  28:	2d766373          	csrrsi	t1,0x2d7,12
  2c:	7261                	lui	tp,0xffff8
  2e:	742d6863          	bltu	s10,sp,77e <offset+0x712>
  32:	7365                	lui	t1,0xffff9
  34:	2f74                	fld	fa3,216(a4)
  36:	6972                	flw	fs2,28(sp)
  38:	2d766373          	csrrsi	t1,0x2d7,12
  3c:	6574                	flw	fa3,76(a0)
  3e:	732d7473          	csrrci	s0,0x732,26
  42:	6975                	lui	s2,0x1d
  44:	6574                	flw	fa3,76(a0)
  46:	3376722f          	0x3376722f
  4a:	6932                	flw	fs2,12(sp)
  4c:	6d5f 492f 732f      	0x732f492f6d5f
  52:	6372                	flw	ft6,28(sp)
  54:	6464612f          	0x6464612f
  58:	2d69                	jal	6f2 <offset+0x686>
  5a:	3130                	fld	fa2,96(a0)
  5c:	532e                	lw	t1,232(sp)
  5e:	2f00                	fld	fs0,24(a4)
  60:	6f68                	flw	fa0,92(a4)
  62:	656d                	lui	a0,0x1b
  64:	766f6c2f          	0x766f6c2f
  68:	7369                	lui	t1,0xffffa
  6a:	7365442f          	0x7365442f
  6e:	706f746b          	0x706f746b
  72:	5669522f          	0x5669522f
  76:	7265                	lui	tp,0xffff9
  78:	635f 726f 2f65      	0x2f65726f635f
  7e:	6972                	flw	fs2,28(sp)
  80:	666f6373          	csrrsi	t1,0x666,30
  84:	7369722f          	0x7369722f
  88:	5f666f63          	bltu	a2,s6,686 <offset+0x61a>
  8c:	6b726f77          	0x6b726f77
  90:	3376722f          	0x3376722f
  94:	6932                	flw	fs2,12(sp)
  96:	6d5f 492f 732f      	0x732f492f6d5f
  9c:	6372                	flw	ft6,28(sp)
  9e:	6464612f          	0x6464612f
  a2:	2d69                	jal	73c <offset+0x6d0>
  a4:	3130                	fld	fa2,96(a0)
  a6:	532e                	lw	t1,232(sp)
  a8:	7475642f          	0x7475642f
  ac:	4700                	lw	s0,8(a4)
  ae:	554e                	lw	a0,240(sp)
  b0:	4120                	lw	s0,64(a0)
  b2:	2e322053          	0x2e322053
  b6:	          	snez	a0,zero
