
my.elf:     file format elf32-littleriscv


Disassembly of section .text.init:

80000000 <rvtest_entry_point>:
80000000:	feedc0b7          	lui	ra,0xfeedc
80000004:	ead08093          	addi	ra,ra,-339 # feedbead <imm12+0xfeedbeae>
80000008:	ff76e137          	lui	sp,0xff76e
8000000c:	f5610113          	addi	sp,sp,-170 # ff76df56 <imm12+0xff76df57>
80000010:	7fbb71b7          	lui	gp,0x7fbb7
80000014:	fab18193          	addi	gp,gp,-85 # 7fbb6fab <absimm+0x7fab6fab>
80000018:	bfddb237          	lui	tp,0xbfddb
8000001c:	7d520213          	addi	tp,tp,2005 # bfddb7d5 <imm12+0xbfddb7d6>
80000020:	00000297          	auipc	t0,0x0
80000024:	05828293          	addi	t0,t0,88 # 80000078 <rvtest_code_begin>
80000028:	00004317          	auipc	t1,0x4
8000002c:	fe830313          	addi	t1,t1,-24 # 80004010 <rvtest_data_begin>
80000030:	b7fbb3b7          	lui	t2,0xb7fbb
80000034:	6fa38393          	addi	t2,t2,1786 # b7fbb6fa <imm12+0xb7fbb6fb>
80000038:	5bfde437          	lui	s0,0x5bfde
8000003c:	b7d40413          	addi	s0,s0,-1155 # 5bfddb7d <absimm+0x5beddb7d>
80000040:	adfef4b7          	lui	s1,0xadfef
80000044:	dbe48493          	addi	s1,s1,-578 # adfeedbe <imm12+0xadfeedbf>
80000048:	56ff7537          	lui	a0,0x56ff7
8000004c:	6df50513          	addi	a0,a0,1759 # 56ff76df <absimm+0x56ef76df>
80000050:	ab7fc5b7          	lui	a1,0xab7fc
80000054:	b6f58593          	addi	a1,a1,-1169 # ab7fbb6f <imm12+0xab7fbb70>
80000058:	d5bfe637          	lui	a2,0xd5bfe
8000005c:	db760613          	addi	a2,a2,-585 # d5bfddb7 <imm12+0xd5bfddb8>
80000060:	eadff6b7          	lui	a3,0xeadff
80000064:	edb68693          	addi	a3,a3,-293 # eadfeedb <imm12+0xeadfeedc>
80000068:	f56ff737          	lui	a4,0xf56ff
8000006c:	76d70713          	addi	a4,a4,1901 # f56ff76d <imm12+0xf56ff76e>
80000070:	fab807b7          	lui	a5,0xfab80
80000074:	bb678793          	addi	a5,a5,-1098 # fab7fbb6 <imm12+0xfab7fbb7>

80000078 <rvtest_code_begin>:
80000078:	00005117          	auipc	sp,0x5
8000007c:	09c10113          	addi	sp,sp,156 # 80005114 <signature_x2_0>

80000080 <inst_0>:
80000080:	f7f00c93          	li	s9,-129
80000084:	800ca613          	slti	a2,s9,-2048
80000088:	00c12023          	sw	a2,0(sp)

8000008c <inst_1>:
8000008c:	fffff2b7          	lui	t0,0xfffff
80000090:	fff28293          	addi	t0,t0,-1 # ffffefff <imm12+0xfffff000>
80000094:	0002a293          	slti	t0,t0,0
80000098:	00512223          	sw	t0,4(sp)

8000009c <inst_2>:
8000009c:	c0000237          	lui	tp,0xc0000
800000a0:	7ff22e13          	slti	t3,tp,2047
800000a4:	01c12423          	sw	t3,8(sp)

800000a8 <inst_3>:
800000a8:	fef00f93          	li	t6,-17
800000ac:	001fa793          	slti	a5,t6,1
800000b0:	00f12623          	sw	a5,12(sp)

800000b4 <inst_4>:
800000b4:	800000b7          	lui	ra,0x80000
800000b8:	0030a693          	slti	a3,ra,3
800000bc:	00d12823          	sw	a3,16(sp)

800000c0 <inst_5>:
800000c0:	00000793          	li	a5,0
800000c4:	0027a093          	slti	ra,a5,2
800000c8:	00112a23          	sw	ra,20(sp)

800000cc <inst_6>:
800000cc:	80000837          	lui	a6,0x80000
800000d0:	fff80813          	addi	a6,a6,-1 # 7fffffff <imm12+0x80000000>
800000d4:	ff882493          	slti	s1,a6,-8
800000d8:	00912c23          	sw	s1,24(sp)

800000dc <inst_7>:
800000dc:	00100593          	li	a1,1
800000e0:	c005af93          	slti	t6,a1,-1024
800000e4:	01f12e23          	sw	t6,28(sp)

800000e8 <inst_8>:
800000e8:	01000713          	li	a4,16
800000ec:	01072d93          	slti	s11,a4,16
800000f0:	03b12023          	sw	s11,32(sp)

800000f4 <inst_9>:
800000f4:	33333637          	lui	a2,0x33333
800000f8:	33460613          	addi	a2,a2,820 # 33333334 <absimm+0x33233334>
800000fc:	00462d13          	slti	s10,a2,4
80000100:	03a12223          	sw	s10,36(sp)

80000104 <inst_10>:
80000104:	400008b7          	lui	a7,0x40000
80000108:	fff88893          	addi	a7,a7,-1 # 3fffffff <absimm+0x3fefffff>
8000010c:	0088a213          	slti	tp,a7,8
80000110:	02412423          	sw	tp,40(sp)

80000114 <inst_11>:
80000114:	ffffe937          	lui	s2,0xffffe
80000118:	fff90913          	addi	s2,s2,-1 # ffffdfff <imm12+0xffffe000>
8000011c:	02092513          	slti	a0,s2,32
80000120:	02a12623          	sw	a0,44(sp)

80000124 <inst_12>:
80000124:	00300d93          	li	s11,3
80000128:	040daa93          	slti	s5,s11,64
8000012c:	03512823          	sw	s5,48(sp)

80000130 <inst_13>:
80000130:	555551b7          	lui	gp,0x55555
80000134:	55418193          	addi	gp,gp,1364 # 55555554 <absimm+0x55455554>
80000138:	0801a413          	slti	s0,gp,128
8000013c:	02812a23          	sw	s0,52(sp)

80000140 <inst_14>:
80000140:	555553b7          	lui	t2,0x55555
80000144:	55438393          	addi	t2,t2,1364 # 55555554 <absimm+0x55455554>
80000148:	1003a013          	slti	zero,t2,256
8000014c:	02012c23          	sw	zero,56(sp)

80000150 <inst_15>:
80000150:	aaaabb37          	lui	s6,0xaaaab
80000154:	aaab0b13          	addi	s6,s6,-1366 # aaaaaaaa <imm12+0xaaaaaaab>
80000158:	200b2c13          	slti	s8,s6,512
8000015c:	03812e23          	sw	s8,60(sp)

80000160 <inst_16>:
80000160:	00004c37          	lui	s8,0x4
80000164:	400c2913          	slti	s2,s8,1024
80000168:	05212023          	sw	s2,64(sp)

8000016c <inst_17>:
8000016c:	bff00313          	li	t1,-1025
80000170:	ffe32c93          	slti	s9,t1,-2
80000174:	05912223          	sw	s9,68(sp)

80000178 <inst_18>:
80000178:	66666ab7          	lui	s5,0x66666
8000017c:	667a8a93          	addi	s5,s5,1639 # 66666667 <absimm+0x66566667>
80000180:	ffdaab93          	slti	s7,s5,-3
80000184:	05712423          	sw	s7,72(sp)

80000188 <inst_19>:
80000188:	00000013          	nop
8000018c:	ffb02393          	slti	t2,zero,-5
80000190:	04712623          	sw	t2,76(sp)

80000194 <inst_20>:
80000194:	ffff5537          	lui	a0,0xffff5
80000198:	afc50513          	addi	a0,a0,-1284 # ffff4afc <imm12+0xffff4afd>
8000019c:	ff752a13          	slti	s4,a0,-9
800001a0:	05412823          	sw	s4,80(sp)

800001a4 <inst_21>:
800001a4:	40000d37          	lui	s10,0x40000
800001a8:	fffd0d13          	addi	s10,s10,-1 # 3fffffff <absimm+0x3fefffff>
800001ac:	fefd2813          	slti	a6,s10,-17
800001b0:	05012a23          	sw	a6,84(sp)

800001b4 <inst_22>:
800001b4:	fff80a37          	lui	s4,0xfff80
800001b8:	fffa0a13          	addi	s4,s4,-1 # fff7ffff <imm12+0xfff80000>
800001bc:	fdfa2e93          	slti	t4,s4,-33
800001c0:	05d12c23          	sw	t4,88(sp)
800001c4:	00005097          	auipc	ra,0x5
800001c8:	fac08093          	addi	ra,ra,-84 # 80005170 <signature_x1_0>

800001cc <inst_23>:
800001cc:	f00006b7          	lui	a3,0xf0000
800001d0:	fff68693          	addi	a3,a3,-1 # efffffff <imm12+0xf0000000>
800001d4:	fbf6a193          	slti	gp,a3,-65
800001d8:	0030a023          	sw	gp,0(ra)

800001dc <inst_24>:
800001dc:	00800eb7          	lui	t4,0x800
800001e0:	f7fea713          	slti	a4,t4,-129
800001e4:	00e0a223          	sw	a4,4(ra)

800001e8 <inst_25>:
800001e8:	f0000bb7          	lui	s7,0xf0000
800001ec:	fffb8b93          	addi	s7,s7,-1 # efffffff <imm12+0xf0000000>
800001f0:	effba113          	slti	sp,s7,-257
800001f4:	0020a423          	sw	sp,8(ra)

800001f8 <inst_26>:
800001f8:	00000113          	li	sp,0
800001fc:	dff12b13          	slti	s6,sp,-513
80000200:	0160a623          	sw	s6,12(ra)

80000204 <inst_27>:
80000204:	fffc0f37          	lui	t5,0xfffc0
80000208:	ffff0f13          	addi	t5,t5,-1 # fffbffff <imm12+0xfffc0000>
8000020c:	bfff2993          	slti	s3,t5,-1025
80000210:	0130a823          	sw	s3,16(ra)

80000214 <inst_28>:
80000214:	00400993          	li	s3,4
80000218:	5559a593          	slti	a1,s3,1365
8000021c:	00b0aa23          	sw	a1,20(ra)

80000220 <inst_29>:
80000220:	c0000437          	lui	s0,0xc0000
80000224:	aaa42f13          	slti	t5,s0,-1366
80000228:	01e0ac23          	sw	t5,24(ra)

8000022c <inst_30>:
8000022c:	00200493          	li	s1,2
80000230:	7ff4a893          	slti	a7,s1,2047
80000234:	0110ae23          	sw	a7,28(ra)

80000238 <inst_31>:
80000238:	00800e13          	li	t3,8
8000023c:	aabe2313          	slti	t1,t3,-1365
80000240:	0260a023          	sw	t1,32(ra)

80000244 <inst_32>:
80000244:	02000513          	li	a0,32
80000248:	55552593          	slti	a1,a0,1365
8000024c:	02b0a223          	sw	a1,36(ra)

80000250 <inst_33>:
80000250:	04000513          	li	a0,64
80000254:	55552593          	slti	a1,a0,1365
80000258:	02b0a423          	sw	a1,40(ra)

8000025c <inst_34>:
8000025c:	08000513          	li	a0,128
80000260:	20052593          	slti	a1,a0,512
80000264:	02b0a623          	sw	a1,44(ra)

80000268 <inst_35>:
80000268:	10000513          	li	a0,256
8000026c:	02e52593          	slti	a1,a0,46
80000270:	02b0a823          	sw	a1,48(ra)

80000274 <inst_36>:
80000274:	20000513          	li	a0,512
80000278:	ffd52593          	slti	a1,a0,-3
8000027c:	02b0aa23          	sw	a1,52(ra)

80000280 <inst_37>:
80000280:	40000513          	li	a0,1024
80000284:	eff52593          	slti	a1,a0,-257
80000288:	02b0ac23          	sw	a1,56(ra)

8000028c <inst_38>:
8000028c:	00001537          	lui	a0,0x1
80000290:	80050513          	addi	a0,a0,-2048 # 800 <offset+0x79c>
80000294:	02d52593          	slti	a1,a0,45
80000298:	02b0ae23          	sw	a1,60(ra)

8000029c <inst_39>:
8000029c:	00001537          	lui	a0,0x1
800002a0:	ffb52593          	slti	a1,a0,-5
800002a4:	04b0a023          	sw	a1,64(ra)

800002a8 <inst_40>:
800002a8:	00002537          	lui	a0,0x2
800002ac:	00052593          	slti	a1,a0,0
800002b0:	04b0a223          	sw	a1,68(ra)

800002b4 <inst_41>:
800002b4:	00008537          	lui	a0,0x8
800002b8:	aaa52593          	slti	a1,a0,-1366
800002bc:	04b0a423          	sw	a1,72(ra)

800002c0 <inst_42>:
800002c0:	00010537          	lui	a0,0x10
800002c4:	fff52593          	slti	a1,a0,-1
800002c8:	04b0a623          	sw	a1,76(ra)

800002cc <inst_43>:
800002cc:	00020537          	lui	a0,0x20
800002d0:	ffe52593          	slti	a1,a0,-2
800002d4:	04b0a823          	sw	a1,80(ra)

800002d8 <inst_44>:
800002d8:	00040537          	lui	a0,0x40
800002dc:	00652593          	slti	a1,a0,6
800002e0:	04b0aa23          	sw	a1,84(ra)

800002e4 <inst_45>:
800002e4:	00080537          	lui	a0,0x80
800002e8:	fbf52593          	slti	a1,a0,-65
800002ec:	04b0ac23          	sw	a1,88(ra)

800002f0 <inst_46>:
800002f0:	00100537          	lui	a0,0x100
800002f4:	aaa52593          	slti	a1,a0,-1366
800002f8:	04b0ae23          	sw	a1,92(ra)

800002fc <inst_47>:
800002fc:	00200537          	lui	a0,0x200
80000300:	fef52593          	slti	a1,a0,-17
80000304:	06b0a023          	sw	a1,96(ra)

80000308 <inst_48>:
80000308:	00400537          	lui	a0,0x400
8000030c:	02e52593          	slti	a1,a0,46
80000310:	06b0a223          	sw	a1,100(ra)

80000314 <inst_49>:
80000314:	01000537          	lui	a0,0x1000
80000318:	fd452593          	slti	a1,a0,-44
8000031c:	06b0a423          	sw	a1,104(ra)

80000320 <inst_50>:
80000320:	02000537          	lui	a0,0x2000
80000324:	55552593          	slti	a1,a0,1365
80000328:	06b0a623          	sw	a1,108(ra)

8000032c <inst_51>:
8000032c:	04000537          	lui	a0,0x4000
80000330:	fbf52593          	slti	a1,a0,-65
80000334:	06b0a823          	sw	a1,112(ra)

80000338 <inst_52>:
80000338:	08000537          	lui	a0,0x8000
8000033c:	7ff52593          	slti	a1,a0,2047
80000340:	06b0aa23          	sw	a1,116(ra)

80000344 <inst_53>:
80000344:	10000537          	lui	a0,0x10000
80000348:	02d52593          	slti	a1,a0,45
8000034c:	06b0ac23          	sw	a1,120(ra)

80000350 <inst_54>:
80000350:	20000537          	lui	a0,0x20000
80000354:	00052593          	slti	a1,a0,0
80000358:	06b0ae23          	sw	a1,124(ra)

8000035c <inst_55>:
8000035c:	40000537          	lui	a0,0x40000
80000360:	fef52593          	slti	a1,a0,-17
80000364:	08b0a023          	sw	a1,128(ra)

80000368 <inst_56>:
80000368:	ffe00513          	li	a0,-2
8000036c:	00152593          	slti	a1,a0,1
80000370:	08b0a223          	sw	a1,132(ra)

80000374 <inst_57>:
80000374:	ffd00513          	li	a0,-3
80000378:	aab52593          	slti	a1,a0,-1365
8000037c:	08b0a423          	sw	a1,136(ra)

80000380 <inst_58>:
80000380:	ffb00513          	li	a0,-5
80000384:	10052593          	slti	a1,a0,256
80000388:	08b0a623          	sw	a1,140(ra)

8000038c <inst_59>:
8000038c:	ff700513          	li	a0,-9
80000390:	00252593          	slti	a1,a0,2
80000394:	08b0a823          	sw	a1,144(ra)

80000398 <inst_60>:
80000398:	fdf00513          	li	a0,-33
8000039c:	00152593          	slti	a1,a0,1
800003a0:	08b0aa23          	sw	a1,148(ra)

800003a4 <inst_61>:
800003a4:	fbf00513          	li	a0,-65
800003a8:	ffc52593          	slti	a1,a0,-4
800003ac:	08b0ac23          	sw	a1,152(ra)

800003b0 <inst_62>:
800003b0:	eff00513          	li	a0,-257
800003b4:	80052593          	slti	a1,a0,-2048
800003b8:	08b0ae23          	sw	a1,156(ra)

800003bc <inst_63>:
800003bc:	dff00513          	li	a0,-513
800003c0:	00952593          	slti	a1,a0,9
800003c4:	0ab0a023          	sw	a1,160(ra)

800003c8 <inst_64>:
800003c8:	fffff537          	lui	a0,0xfffff
800003cc:	7ff50513          	addi	a0,a0,2047 # fffff7ff <imm12+0xfffff800>
800003d0:	ff852593          	slti	a1,a0,-8
800003d4:	0ab0a223          	sw	a1,164(ra)

800003d8 <inst_65>:
800003d8:	ffffc537          	lui	a0,0xffffc
800003dc:	fff50513          	addi	a0,a0,-1 # ffffbfff <imm12+0xffffc000>
800003e0:	40052593          	slti	a1,a0,1024
800003e4:	0ab0a423          	sw	a1,168(ra)

800003e8 <inst_66>:
800003e8:	ffff8537          	lui	a0,0xffff8
800003ec:	fff50513          	addi	a0,a0,-1 # ffff7fff <imm12+0xffff8000>
800003f0:	33352593          	slti	a1,a0,819
800003f4:	0ab0a623          	sw	a1,172(ra)

800003f8 <inst_67>:
800003f8:	ffff0537          	lui	a0,0xffff0
800003fc:	fff50513          	addi	a0,a0,-1 # fffeffff <imm12+0xffff0000>
80000400:	eff52593          	slti	a1,a0,-257
80000404:	0ab0a823          	sw	a1,176(ra)

80000408 <inst_68>:
80000408:	fffe0537          	lui	a0,0xfffe0
8000040c:	fff50513          	addi	a0,a0,-1 # fffdffff <imm12+0xfffe0000>
80000410:	00352593          	slti	a1,a0,3
80000414:	0ab0aa23          	sw	a1,180(ra)

80000418 <inst_69>:
80000418:	ffe00537          	lui	a0,0xffe00
8000041c:	fff50513          	addi	a0,a0,-1 # ffdfffff <imm12+0xffe00000>
80000420:	ffa52593          	slti	a1,a0,-6
80000424:	0ab0ac23          	sw	a1,184(ra)

80000428 <inst_70>:
80000428:	ffc00537          	lui	a0,0xffc00
8000042c:	fff50513          	addi	a0,a0,-1 # ffbfffff <imm12+0xffc00000>
80000430:	55552593          	slti	a1,a0,1365
80000434:	0ab0ae23          	sw	a1,188(ra)

80000438 <inst_71>:
80000438:	ff800537          	lui	a0,0xff800
8000043c:	fff50513          	addi	a0,a0,-1 # ff7fffff <imm12+0xff800000>
80000440:	00752593          	slti	a1,a0,7
80000444:	0cb0a023          	sw	a1,192(ra)

80000448 <inst_72>:
80000448:	ff000537          	lui	a0,0xff000
8000044c:	fff50513          	addi	a0,a0,-1 # feffffff <imm12+0xff000000>
80000450:	fd352593          	slti	a1,a0,-45
80000454:	0cb0a223          	sw	a1,196(ra)

80000458 <inst_73>:
80000458:	fe000537          	lui	a0,0xfe000
8000045c:	fff50513          	addi	a0,a0,-1 # fdffffff <imm12+0xfe000000>
80000460:	33452593          	slti	a1,a0,820
80000464:	0cb0a423          	sw	a1,200(ra)

80000468 <inst_74>:
80000468:	fc000537          	lui	a0,0xfc000
8000046c:	fff50513          	addi	a0,a0,-1 # fbffffff <imm12+0xfc000000>
80000470:	ffc52593          	slti	a1,a0,-4
80000474:	0cb0a623          	sw	a1,204(ra)

80000478 <inst_75>:
80000478:	f8000537          	lui	a0,0xf8000
8000047c:	fff50513          	addi	a0,a0,-1 # f7ffffff <imm12+0xf8000000>
80000480:	02d52593          	slti	a1,a0,45
80000484:	0cb0a823          	sw	a1,208(ra)

80000488 <inst_76>:
80000488:	e0000537          	lui	a0,0xe0000
8000048c:	fff50513          	addi	a0,a0,-1 # dfffffff <imm12+0xe0000000>
80000490:	01052593          	slti	a1,a0,16
80000494:	0cb0aa23          	sw	a1,212(ra)

80000498 <inst_77>:
80000498:	c0000537          	lui	a0,0xc0000
8000049c:	fff50513          	addi	a0,a0,-1 # bfffffff <imm12+0xc0000000>
800004a0:	eff52593          	slti	a1,a0,-257
800004a4:	0cb0ac23          	sw	a1,216(ra)

800004a8 <inst_78>:
800004a8:	55555537          	lui	a0,0x55555
800004ac:	55550513          	addi	a0,a0,1365 # 55555555 <absimm+0x55455555>
800004b0:	00052593          	slti	a1,a0,0
800004b4:	0cb0ae23          	sw	a1,220(ra)

800004b8 <inst_79>:
800004b8:	00300513          	li	a0,3
800004bc:	00352593          	slti	a1,a0,3
800004c0:	0eb0a023          	sw	a1,224(ra)

800004c4 <inst_80>:
800004c4:	00300513          	li	a0,3
800004c8:	55552593          	slti	a1,a0,1365
800004cc:	0eb0a223          	sw	a1,228(ra)

800004d0 <inst_81>:
800004d0:	00300513          	li	a0,3
800004d4:	aaa52593          	slti	a1,a0,-1366
800004d8:	0eb0a423          	sw	a1,232(ra)

800004dc <inst_82>:
800004dc:	00300513          	li	a0,3
800004e0:	00552593          	slti	a1,a0,5
800004e4:	0eb0a623          	sw	a1,236(ra)

800004e8 <inst_83>:
800004e8:	00300513          	li	a0,3
800004ec:	33352593          	slti	a1,a0,819
800004f0:	0eb0a823          	sw	a1,240(ra)

800004f4 <inst_84>:
800004f4:	00300513          	li	a0,3
800004f8:	66652593          	slti	a1,a0,1638
800004fc:	0eb0aa23          	sw	a1,244(ra)

80000500 <inst_85>:
80000500:	00300513          	li	a0,3
80000504:	fd352593          	slti	a1,a0,-45
80000508:	0eb0ac23          	sw	a1,248(ra)

8000050c <inst_86>:
8000050c:	00300513          	li	a0,3
80000510:	02d52593          	slti	a1,a0,45
80000514:	0eb0ae23          	sw	a1,252(ra)

80000518 <inst_87>:
80000518:	00300513          	li	a0,3
8000051c:	00252593          	slti	a1,a0,2
80000520:	10b0a023          	sw	a1,256(ra)

80000524 <inst_88>:
80000524:	00300513          	li	a0,3
80000528:	55452593          	slti	a1,a0,1364
8000052c:	10b0a223          	sw	a1,260(ra)

80000530 <inst_89>:
80000530:	00300513          	li	a0,3
80000534:	00052593          	slti	a1,a0,0
80000538:	10b0a423          	sw	a1,264(ra)

8000053c <inst_90>:
8000053c:	00300513          	li	a0,3
80000540:	00452593          	slti	a1,a0,4
80000544:	10b0a623          	sw	a1,268(ra)

80000548 <inst_91>:
80000548:	00300513          	li	a0,3
8000054c:	33252593          	slti	a1,a0,818
80000550:	10b0a823          	sw	a1,272(ra)

80000554 <inst_92>:
80000554:	00300513          	li	a0,3
80000558:	66552593          	slti	a1,a0,1637
8000055c:	10b0aa23          	sw	a1,276(ra)

80000560 <inst_93>:
80000560:	00300513          	li	a0,3
80000564:	02c52593          	slti	a1,a0,44
80000568:	10b0ac23          	sw	a1,280(ra)

8000056c <inst_94>:
8000056c:	00300513          	li	a0,3
80000570:	55652593          	slti	a1,a0,1366
80000574:	10b0ae23          	sw	a1,284(ra)

80000578 <inst_95>:
80000578:	00300513          	li	a0,3
8000057c:	aab52593          	slti	a1,a0,-1365
80000580:	12b0a023          	sw	a1,288(ra)

80000584 <inst_96>:
80000584:	00300513          	li	a0,3
80000588:	00652593          	slti	a1,a0,6
8000058c:	12b0a223          	sw	a1,292(ra)

80000590 <inst_97>:
80000590:	00300513          	li	a0,3
80000594:	33452593          	slti	a1,a0,820
80000598:	12b0a423          	sw	a1,296(ra)

8000059c <inst_98>:
8000059c:	00300513          	li	a0,3
800005a0:	66752593          	slti	a1,a0,1639
800005a4:	12b0a623          	sw	a1,300(ra)

800005a8 <inst_99>:
800005a8:	00300513          	li	a0,3
800005ac:	fd452593          	slti	a1,a0,-44
800005b0:	12b0a823          	sw	a1,304(ra)

800005b4 <inst_100>:
800005b4:	00300513          	li	a0,3
800005b8:	02e52593          	slti	a1,a0,46
800005bc:	12b0aa23          	sw	a1,308(ra)

800005c0 <inst_101>:
800005c0:	55555537          	lui	a0,0x55555
800005c4:	55550513          	addi	a0,a0,1365 # 55555555 <absimm+0x55455555>
800005c8:	00352593          	slti	a1,a0,3
800005cc:	12b0ac23          	sw	a1,312(ra)

800005d0 <inst_102>:
800005d0:	55555537          	lui	a0,0x55555
800005d4:	55550513          	addi	a0,a0,1365 # 55555555 <absimm+0x55455555>
800005d8:	55552593          	slti	a1,a0,1365
800005dc:	12b0ae23          	sw	a1,316(ra)

800005e0 <inst_103>:
800005e0:	55555537          	lui	a0,0x55555
800005e4:	55550513          	addi	a0,a0,1365 # 55555555 <absimm+0x55455555>
800005e8:	aaa52593          	slti	a1,a0,-1366
800005ec:	14b0a023          	sw	a1,320(ra)

800005f0 <inst_104>:
800005f0:	55555537          	lui	a0,0x55555
800005f4:	55550513          	addi	a0,a0,1365 # 55555555 <absimm+0x55455555>
800005f8:	00552593          	slti	a1,a0,5
800005fc:	14b0a223          	sw	a1,324(ra)

80000600 <inst_105>:
80000600:	55555537          	lui	a0,0x55555
80000604:	55550513          	addi	a0,a0,1365 # 55555555 <absimm+0x55455555>
80000608:	33352593          	slti	a1,a0,819
8000060c:	14b0a423          	sw	a1,328(ra)

80000610 <inst_106>:
80000610:	55555537          	lui	a0,0x55555
80000614:	55550513          	addi	a0,a0,1365 # 55555555 <absimm+0x55455555>
80000618:	66652593          	slti	a1,a0,1638
8000061c:	14b0a623          	sw	a1,332(ra)

80000620 <inst_107>:
80000620:	55555537          	lui	a0,0x55555
80000624:	55550513          	addi	a0,a0,1365 # 55555555 <absimm+0x55455555>
80000628:	fd352593          	slti	a1,a0,-45
8000062c:	14b0a823          	sw	a1,336(ra)

80000630 <inst_108>:
80000630:	55555537          	lui	a0,0x55555
80000634:	55550513          	addi	a0,a0,1365 # 55555555 <absimm+0x55455555>
80000638:	02d52593          	slti	a1,a0,45
8000063c:	14b0aa23          	sw	a1,340(ra)

80000640 <inst_109>:
80000640:	55555537          	lui	a0,0x55555
80000644:	55550513          	addi	a0,a0,1365 # 55555555 <absimm+0x55455555>
80000648:	00252593          	slti	a1,a0,2
8000064c:	14b0ac23          	sw	a1,344(ra)

80000650 <inst_110>:
80000650:	55555537          	lui	a0,0x55555
80000654:	55550513          	addi	a0,a0,1365 # 55555555 <absimm+0x55455555>
80000658:	55452593          	slti	a1,a0,1364
8000065c:	14b0ae23          	sw	a1,348(ra)

80000660 <inst_111>:
80000660:	55555537          	lui	a0,0x55555
80000664:	55550513          	addi	a0,a0,1365 # 55555555 <absimm+0x55455555>
80000668:	00452593          	slti	a1,a0,4
8000066c:	16b0a023          	sw	a1,352(ra)

80000670 <inst_112>:
80000670:	55555537          	lui	a0,0x55555
80000674:	55550513          	addi	a0,a0,1365 # 55555555 <absimm+0x55455555>
80000678:	33252593          	slti	a1,a0,818
8000067c:	16b0a223          	sw	a1,356(ra)

80000680 <inst_113>:
80000680:	55555537          	lui	a0,0x55555
80000684:	55550513          	addi	a0,a0,1365 # 55555555 <absimm+0x55455555>
80000688:	66552593          	slti	a1,a0,1637
8000068c:	16b0a423          	sw	a1,360(ra)

80000690 <inst_114>:
80000690:	55555537          	lui	a0,0x55555
80000694:	55550513          	addi	a0,a0,1365 # 55555555 <absimm+0x55455555>
80000698:	02c52593          	slti	a1,a0,44
8000069c:	16b0a623          	sw	a1,364(ra)

800006a0 <inst_115>:
800006a0:	55555537          	lui	a0,0x55555
800006a4:	55550513          	addi	a0,a0,1365 # 55555555 <absimm+0x55455555>
800006a8:	55652593          	slti	a1,a0,1366
800006ac:	16b0a823          	sw	a1,368(ra)

800006b0 <inst_116>:
800006b0:	55555537          	lui	a0,0x55555
800006b4:	55550513          	addi	a0,a0,1365 # 55555555 <absimm+0x55455555>
800006b8:	aab52593          	slti	a1,a0,-1365
800006bc:	16b0aa23          	sw	a1,372(ra)

800006c0 <inst_117>:
800006c0:	55555537          	lui	a0,0x55555
800006c4:	55550513          	addi	a0,a0,1365 # 55555555 <absimm+0x55455555>
800006c8:	00652593          	slti	a1,a0,6
800006cc:	16b0ac23          	sw	a1,376(ra)

800006d0 <inst_118>:
800006d0:	55555537          	lui	a0,0x55555
800006d4:	55550513          	addi	a0,a0,1365 # 55555555 <absimm+0x55455555>
800006d8:	33452593          	slti	a1,a0,820
800006dc:	16b0ae23          	sw	a1,380(ra)

800006e0 <inst_119>:
800006e0:	55555537          	lui	a0,0x55555
800006e4:	55550513          	addi	a0,a0,1365 # 55555555 <absimm+0x55455555>
800006e8:	66752593          	slti	a1,a0,1639
800006ec:	18b0a023          	sw	a1,384(ra)

800006f0 <inst_120>:
800006f0:	55555537          	lui	a0,0x55555
800006f4:	55550513          	addi	a0,a0,1365 # 55555555 <absimm+0x55455555>
800006f8:	fd452593          	slti	a1,a0,-44
800006fc:	18b0a223          	sw	a1,388(ra)

80000700 <inst_121>:
80000700:	55555537          	lui	a0,0x55555
80000704:	55550513          	addi	a0,a0,1365 # 55555555 <absimm+0x55455555>
80000708:	02e52593          	slti	a1,a0,46
8000070c:	18b0a423          	sw	a1,392(ra)

80000710 <inst_122>:
80000710:	aaaab537          	lui	a0,0xaaaab
80000714:	aaa50513          	addi	a0,a0,-1366 # aaaaaaaa <imm12+0xaaaaaaab>
80000718:	00352593          	slti	a1,a0,3
8000071c:	18b0a623          	sw	a1,396(ra)

80000720 <inst_123>:
80000720:	aaaab537          	lui	a0,0xaaaab
80000724:	aaa50513          	addi	a0,a0,-1366 # aaaaaaaa <imm12+0xaaaaaaab>
80000728:	55552593          	slti	a1,a0,1365
8000072c:	18b0a823          	sw	a1,400(ra)

80000730 <inst_124>:
80000730:	aaaab537          	lui	a0,0xaaaab
80000734:	aaa50513          	addi	a0,a0,-1366 # aaaaaaaa <imm12+0xaaaaaaab>
80000738:	aaa52593          	slti	a1,a0,-1366
8000073c:	18b0aa23          	sw	a1,404(ra)

80000740 <inst_125>:
80000740:	aaaab537          	lui	a0,0xaaaab
80000744:	aaa50513          	addi	a0,a0,-1366 # aaaaaaaa <imm12+0xaaaaaaab>
80000748:	00552593          	slti	a1,a0,5
8000074c:	18b0ac23          	sw	a1,408(ra)

80000750 <inst_126>:
80000750:	aaaab537          	lui	a0,0xaaaab
80000754:	aaa50513          	addi	a0,a0,-1366 # aaaaaaaa <imm12+0xaaaaaaab>
80000758:	33352593          	slti	a1,a0,819
8000075c:	18b0ae23          	sw	a1,412(ra)

80000760 <inst_127>:
80000760:	aaaab537          	lui	a0,0xaaaab
80000764:	aaa50513          	addi	a0,a0,-1366 # aaaaaaaa <imm12+0xaaaaaaab>
80000768:	66652593          	slti	a1,a0,1638
8000076c:	1ab0a023          	sw	a1,416(ra)

80000770 <inst_128>:
80000770:	aaaab537          	lui	a0,0xaaaab
80000774:	aaa50513          	addi	a0,a0,-1366 # aaaaaaaa <imm12+0xaaaaaaab>
80000778:	fd352593          	slti	a1,a0,-45
8000077c:	1ab0a223          	sw	a1,420(ra)

80000780 <inst_129>:
80000780:	aaaab537          	lui	a0,0xaaaab
80000784:	aaa50513          	addi	a0,a0,-1366 # aaaaaaaa <imm12+0xaaaaaaab>
80000788:	02d52593          	slti	a1,a0,45
8000078c:	1ab0a423          	sw	a1,424(ra)

80000790 <inst_130>:
80000790:	aaaab537          	lui	a0,0xaaaab
80000794:	aaa50513          	addi	a0,a0,-1366 # aaaaaaaa <imm12+0xaaaaaaab>
80000798:	00252593          	slti	a1,a0,2
8000079c:	1ab0a623          	sw	a1,428(ra)

800007a0 <inst_131>:
800007a0:	aaaab537          	lui	a0,0xaaaab
800007a4:	aaa50513          	addi	a0,a0,-1366 # aaaaaaaa <imm12+0xaaaaaaab>
800007a8:	55452593          	slti	a1,a0,1364
800007ac:	1ab0a823          	sw	a1,432(ra)

800007b0 <inst_132>:
800007b0:	aaaab537          	lui	a0,0xaaaab
800007b4:	aaa50513          	addi	a0,a0,-1366 # aaaaaaaa <imm12+0xaaaaaaab>
800007b8:	00052593          	slti	a1,a0,0
800007bc:	1ab0aa23          	sw	a1,436(ra)

800007c0 <inst_133>:
800007c0:	aaaab537          	lui	a0,0xaaaab
800007c4:	aaa50513          	addi	a0,a0,-1366 # aaaaaaaa <imm12+0xaaaaaaab>
800007c8:	00452593          	slti	a1,a0,4
800007cc:	1ab0ac23          	sw	a1,440(ra)

800007d0 <inst_134>:
800007d0:	aaaab537          	lui	a0,0xaaaab
800007d4:	aaa50513          	addi	a0,a0,-1366 # aaaaaaaa <imm12+0xaaaaaaab>
800007d8:	33252593          	slti	a1,a0,818
800007dc:	1ab0ae23          	sw	a1,444(ra)

800007e0 <inst_135>:
800007e0:	aaaab537          	lui	a0,0xaaaab
800007e4:	aaa50513          	addi	a0,a0,-1366 # aaaaaaaa <imm12+0xaaaaaaab>
800007e8:	66552593          	slti	a1,a0,1637
800007ec:	1cb0a023          	sw	a1,448(ra)

800007f0 <inst_136>:
800007f0:	aaaab537          	lui	a0,0xaaaab
800007f4:	aaa50513          	addi	a0,a0,-1366 # aaaaaaaa <imm12+0xaaaaaaab>
800007f8:	02c52593          	slti	a1,a0,44
800007fc:	1cb0a223          	sw	a1,452(ra)

80000800 <inst_137>:
80000800:	aaaab537          	lui	a0,0xaaaab
80000804:	aaa50513          	addi	a0,a0,-1366 # aaaaaaaa <imm12+0xaaaaaaab>
80000808:	55652593          	slti	a1,a0,1366
8000080c:	1cb0a423          	sw	a1,456(ra)

80000810 <inst_138>:
80000810:	aaaab537          	lui	a0,0xaaaab
80000814:	aaa50513          	addi	a0,a0,-1366 # aaaaaaaa <imm12+0xaaaaaaab>
80000818:	aab52593          	slti	a1,a0,-1365
8000081c:	1cb0a623          	sw	a1,460(ra)

80000820 <inst_139>:
80000820:	aaaab537          	lui	a0,0xaaaab
80000824:	aaa50513          	addi	a0,a0,-1366 # aaaaaaaa <imm12+0xaaaaaaab>
80000828:	00652593          	slti	a1,a0,6
8000082c:	1cb0a823          	sw	a1,464(ra)

80000830 <inst_140>:
80000830:	aaaab537          	lui	a0,0xaaaab
80000834:	aaa50513          	addi	a0,a0,-1366 # aaaaaaaa <imm12+0xaaaaaaab>
80000838:	33452593          	slti	a1,a0,820
8000083c:	1cb0aa23          	sw	a1,468(ra)

80000840 <inst_141>:
80000840:	aaaab537          	lui	a0,0xaaaab
80000844:	aaa50513          	addi	a0,a0,-1366 # aaaaaaaa <imm12+0xaaaaaaab>
80000848:	66752593          	slti	a1,a0,1639
8000084c:	1cb0ac23          	sw	a1,472(ra)

80000850 <inst_142>:
80000850:	aaaab537          	lui	a0,0xaaaab
80000854:	aaa50513          	addi	a0,a0,-1366 # aaaaaaaa <imm12+0xaaaaaaab>
80000858:	fd452593          	slti	a1,a0,-44
8000085c:	1cb0ae23          	sw	a1,476(ra)

80000860 <inst_143>:
80000860:	aaaab537          	lui	a0,0xaaaab
80000864:	aaa50513          	addi	a0,a0,-1366 # aaaaaaaa <imm12+0xaaaaaaab>
80000868:	02e52593          	slti	a1,a0,46
8000086c:	1eb0a023          	sw	a1,480(ra)

80000870 <inst_144>:
80000870:	00500513          	li	a0,5
80000874:	00352593          	slti	a1,a0,3
80000878:	1eb0a223          	sw	a1,484(ra)

8000087c <inst_145>:
8000087c:	00500513          	li	a0,5
80000880:	55552593          	slti	a1,a0,1365
80000884:	1eb0a423          	sw	a1,488(ra)

80000888 <inst_146>:
80000888:	00500513          	li	a0,5
8000088c:	aaa52593          	slti	a1,a0,-1366
80000890:	1eb0a623          	sw	a1,492(ra)

80000894 <inst_147>:
80000894:	00500513          	li	a0,5
80000898:	00552593          	slti	a1,a0,5
8000089c:	1eb0a823          	sw	a1,496(ra)

800008a0 <inst_148>:
800008a0:	00500513          	li	a0,5
800008a4:	33352593          	slti	a1,a0,819
800008a8:	1eb0aa23          	sw	a1,500(ra)

800008ac <inst_149>:
800008ac:	00500513          	li	a0,5
800008b0:	66652593          	slti	a1,a0,1638
800008b4:	1eb0ac23          	sw	a1,504(ra)

800008b8 <inst_150>:
800008b8:	00500513          	li	a0,5
800008bc:	fd352593          	slti	a1,a0,-45
800008c0:	1eb0ae23          	sw	a1,508(ra)

800008c4 <inst_151>:
800008c4:	00500513          	li	a0,5
800008c8:	02d52593          	slti	a1,a0,45
800008cc:	20b0a023          	sw	a1,512(ra)

800008d0 <inst_152>:
800008d0:	00500513          	li	a0,5
800008d4:	00252593          	slti	a1,a0,2
800008d8:	20b0a223          	sw	a1,516(ra)

800008dc <inst_153>:
800008dc:	00500513          	li	a0,5
800008e0:	55452593          	slti	a1,a0,1364
800008e4:	20b0a423          	sw	a1,520(ra)

800008e8 <inst_154>:
800008e8:	00500513          	li	a0,5
800008ec:	00052593          	slti	a1,a0,0
800008f0:	20b0a623          	sw	a1,524(ra)

800008f4 <inst_155>:
800008f4:	00500513          	li	a0,5
800008f8:	00452593          	slti	a1,a0,4
800008fc:	20b0a823          	sw	a1,528(ra)

80000900 <inst_156>:
80000900:	00500513          	li	a0,5
80000904:	33252593          	slti	a1,a0,818
80000908:	20b0aa23          	sw	a1,532(ra)

8000090c <inst_157>:
8000090c:	00500513          	li	a0,5
80000910:	66552593          	slti	a1,a0,1637
80000914:	20b0ac23          	sw	a1,536(ra)

80000918 <inst_158>:
80000918:	00500513          	li	a0,5
8000091c:	02c52593          	slti	a1,a0,44
80000920:	20b0ae23          	sw	a1,540(ra)

80000924 <inst_159>:
80000924:	00500513          	li	a0,5
80000928:	55652593          	slti	a1,a0,1366
8000092c:	22b0a023          	sw	a1,544(ra)

80000930 <inst_160>:
80000930:	00500513          	li	a0,5
80000934:	aab52593          	slti	a1,a0,-1365
80000938:	22b0a223          	sw	a1,548(ra)

8000093c <inst_161>:
8000093c:	00500513          	li	a0,5
80000940:	00652593          	slti	a1,a0,6
80000944:	22b0a423          	sw	a1,552(ra)

80000948 <inst_162>:
80000948:	00500513          	li	a0,5
8000094c:	33452593          	slti	a1,a0,820
80000950:	22b0a623          	sw	a1,556(ra)

80000954 <inst_163>:
80000954:	00500513          	li	a0,5
80000958:	66752593          	slti	a1,a0,1639
8000095c:	22b0a823          	sw	a1,560(ra)

80000960 <inst_164>:
80000960:	00500513          	li	a0,5
80000964:	fd452593          	slti	a1,a0,-44
80000968:	22b0aa23          	sw	a1,564(ra)

8000096c <inst_165>:
8000096c:	00500513          	li	a0,5
80000970:	02e52593          	slti	a1,a0,46
80000974:	22b0ac23          	sw	a1,568(ra)

80000978 <inst_166>:
80000978:	33333537          	lui	a0,0x33333
8000097c:	33350513          	addi	a0,a0,819 # 33333333 <absimm+0x33233333>
80000980:	00352593          	slti	a1,a0,3
80000984:	22b0ae23          	sw	a1,572(ra)

80000988 <inst_167>:
80000988:	33333537          	lui	a0,0x33333
8000098c:	33350513          	addi	a0,a0,819 # 33333333 <absimm+0x33233333>
80000990:	55552593          	slti	a1,a0,1365
80000994:	24b0a023          	sw	a1,576(ra)

80000998 <inst_168>:
80000998:	33333537          	lui	a0,0x33333
8000099c:	33350513          	addi	a0,a0,819 # 33333333 <absimm+0x33233333>
800009a0:	aaa52593          	slti	a1,a0,-1366
800009a4:	24b0a223          	sw	a1,580(ra)

800009a8 <inst_169>:
800009a8:	33333537          	lui	a0,0x33333
800009ac:	33350513          	addi	a0,a0,819 # 33333333 <absimm+0x33233333>
800009b0:	00552593          	slti	a1,a0,5
800009b4:	24b0a423          	sw	a1,584(ra)

800009b8 <inst_170>:
800009b8:	33333537          	lui	a0,0x33333
800009bc:	33350513          	addi	a0,a0,819 # 33333333 <absimm+0x33233333>
800009c0:	33352593          	slti	a1,a0,819
800009c4:	24b0a623          	sw	a1,588(ra)

800009c8 <inst_171>:
800009c8:	33333537          	lui	a0,0x33333
800009cc:	33350513          	addi	a0,a0,819 # 33333333 <absimm+0x33233333>
800009d0:	66652593          	slti	a1,a0,1638
800009d4:	24b0a823          	sw	a1,592(ra)

800009d8 <inst_172>:
800009d8:	33333537          	lui	a0,0x33333
800009dc:	33350513          	addi	a0,a0,819 # 33333333 <absimm+0x33233333>
800009e0:	fd352593          	slti	a1,a0,-45
800009e4:	24b0aa23          	sw	a1,596(ra)

800009e8 <inst_173>:
800009e8:	33333537          	lui	a0,0x33333
800009ec:	33350513          	addi	a0,a0,819 # 33333333 <absimm+0x33233333>
800009f0:	02d52593          	slti	a1,a0,45
800009f4:	24b0ac23          	sw	a1,600(ra)

800009f8 <inst_174>:
800009f8:	33333537          	lui	a0,0x33333
800009fc:	33350513          	addi	a0,a0,819 # 33333333 <absimm+0x33233333>
80000a00:	00252593          	slti	a1,a0,2
80000a04:	24b0ae23          	sw	a1,604(ra)

80000a08 <inst_175>:
80000a08:	33333537          	lui	a0,0x33333
80000a0c:	33350513          	addi	a0,a0,819 # 33333333 <absimm+0x33233333>
80000a10:	55452593          	slti	a1,a0,1364
80000a14:	26b0a023          	sw	a1,608(ra)

80000a18 <inst_176>:
80000a18:	33333537          	lui	a0,0x33333
80000a1c:	33350513          	addi	a0,a0,819 # 33333333 <absimm+0x33233333>
80000a20:	00052593          	slti	a1,a0,0
80000a24:	26b0a223          	sw	a1,612(ra)

80000a28 <inst_177>:
80000a28:	33333537          	lui	a0,0x33333
80000a2c:	33350513          	addi	a0,a0,819 # 33333333 <absimm+0x33233333>
80000a30:	00452593          	slti	a1,a0,4
80000a34:	26b0a423          	sw	a1,616(ra)

80000a38 <inst_178>:
80000a38:	33333537          	lui	a0,0x33333
80000a3c:	33350513          	addi	a0,a0,819 # 33333333 <absimm+0x33233333>
80000a40:	33252593          	slti	a1,a0,818
80000a44:	26b0a623          	sw	a1,620(ra)

80000a48 <inst_179>:
80000a48:	33333537          	lui	a0,0x33333
80000a4c:	33350513          	addi	a0,a0,819 # 33333333 <absimm+0x33233333>
80000a50:	66552593          	slti	a1,a0,1637
80000a54:	26b0a823          	sw	a1,624(ra)

80000a58 <inst_180>:
80000a58:	33333537          	lui	a0,0x33333
80000a5c:	33350513          	addi	a0,a0,819 # 33333333 <absimm+0x33233333>
80000a60:	02c52593          	slti	a1,a0,44
80000a64:	26b0aa23          	sw	a1,628(ra)

80000a68 <inst_181>:
80000a68:	33333537          	lui	a0,0x33333
80000a6c:	33350513          	addi	a0,a0,819 # 33333333 <absimm+0x33233333>
80000a70:	55652593          	slti	a1,a0,1366
80000a74:	26b0ac23          	sw	a1,632(ra)

80000a78 <inst_182>:
80000a78:	33333537          	lui	a0,0x33333
80000a7c:	33350513          	addi	a0,a0,819 # 33333333 <absimm+0x33233333>
80000a80:	aab52593          	slti	a1,a0,-1365
80000a84:	26b0ae23          	sw	a1,636(ra)

80000a88 <inst_183>:
80000a88:	33333537          	lui	a0,0x33333
80000a8c:	33350513          	addi	a0,a0,819 # 33333333 <absimm+0x33233333>
80000a90:	00652593          	slti	a1,a0,6
80000a94:	28b0a023          	sw	a1,640(ra)

80000a98 <inst_184>:
80000a98:	33333537          	lui	a0,0x33333
80000a9c:	33350513          	addi	a0,a0,819 # 33333333 <absimm+0x33233333>
80000aa0:	33452593          	slti	a1,a0,820
80000aa4:	28b0a223          	sw	a1,644(ra)

80000aa8 <inst_185>:
80000aa8:	33333537          	lui	a0,0x33333
80000aac:	33350513          	addi	a0,a0,819 # 33333333 <absimm+0x33233333>
80000ab0:	66752593          	slti	a1,a0,1639
80000ab4:	28b0a423          	sw	a1,648(ra)

80000ab8 <inst_186>:
80000ab8:	33333537          	lui	a0,0x33333
80000abc:	33350513          	addi	a0,a0,819 # 33333333 <absimm+0x33233333>
80000ac0:	fd452593          	slti	a1,a0,-44
80000ac4:	28b0a623          	sw	a1,652(ra)

80000ac8 <inst_187>:
80000ac8:	33333537          	lui	a0,0x33333
80000acc:	33350513          	addi	a0,a0,819 # 33333333 <absimm+0x33233333>
80000ad0:	02e52593          	slti	a1,a0,46
80000ad4:	28b0a823          	sw	a1,656(ra)

80000ad8 <inst_188>:
80000ad8:	66666537          	lui	a0,0x66666
80000adc:	66650513          	addi	a0,a0,1638 # 66666666 <absimm+0x66566666>
80000ae0:	00352593          	slti	a1,a0,3
80000ae4:	28b0aa23          	sw	a1,660(ra)

80000ae8 <inst_189>:
80000ae8:	66666537          	lui	a0,0x66666
80000aec:	66650513          	addi	a0,a0,1638 # 66666666 <absimm+0x66566666>
80000af0:	55552593          	slti	a1,a0,1365
80000af4:	28b0ac23          	sw	a1,664(ra)

80000af8 <inst_190>:
80000af8:	66666537          	lui	a0,0x66666
80000afc:	66650513          	addi	a0,a0,1638 # 66666666 <absimm+0x66566666>
80000b00:	aaa52593          	slti	a1,a0,-1366
80000b04:	28b0ae23          	sw	a1,668(ra)

80000b08 <inst_191>:
80000b08:	66666537          	lui	a0,0x66666
80000b0c:	66650513          	addi	a0,a0,1638 # 66666666 <absimm+0x66566666>
80000b10:	00552593          	slti	a1,a0,5
80000b14:	2ab0a023          	sw	a1,672(ra)

80000b18 <inst_192>:
80000b18:	66666537          	lui	a0,0x66666
80000b1c:	66650513          	addi	a0,a0,1638 # 66666666 <absimm+0x66566666>
80000b20:	33352593          	slti	a1,a0,819
80000b24:	2ab0a223          	sw	a1,676(ra)

80000b28 <inst_193>:
80000b28:	66666537          	lui	a0,0x66666
80000b2c:	66650513          	addi	a0,a0,1638 # 66666666 <absimm+0x66566666>
80000b30:	66652593          	slti	a1,a0,1638
80000b34:	2ab0a423          	sw	a1,680(ra)

80000b38 <inst_194>:
80000b38:	66666537          	lui	a0,0x66666
80000b3c:	66650513          	addi	a0,a0,1638 # 66666666 <absimm+0x66566666>
80000b40:	fd352593          	slti	a1,a0,-45
80000b44:	2ab0a623          	sw	a1,684(ra)

80000b48 <inst_195>:
80000b48:	66666537          	lui	a0,0x66666
80000b4c:	66650513          	addi	a0,a0,1638 # 66666666 <absimm+0x66566666>
80000b50:	02d52593          	slti	a1,a0,45
80000b54:	2ab0a823          	sw	a1,688(ra)

80000b58 <inst_196>:
80000b58:	66666537          	lui	a0,0x66666
80000b5c:	66650513          	addi	a0,a0,1638 # 66666666 <absimm+0x66566666>
80000b60:	00252593          	slti	a1,a0,2
80000b64:	2ab0aa23          	sw	a1,692(ra)

80000b68 <inst_197>:
80000b68:	66666537          	lui	a0,0x66666
80000b6c:	66650513          	addi	a0,a0,1638 # 66666666 <absimm+0x66566666>
80000b70:	55452593          	slti	a1,a0,1364
80000b74:	2ab0ac23          	sw	a1,696(ra)

80000b78 <inst_198>:
80000b78:	66666537          	lui	a0,0x66666
80000b7c:	66650513          	addi	a0,a0,1638 # 66666666 <absimm+0x66566666>
80000b80:	00052593          	slti	a1,a0,0
80000b84:	2ab0ae23          	sw	a1,700(ra)

80000b88 <inst_199>:
80000b88:	66666537          	lui	a0,0x66666
80000b8c:	66650513          	addi	a0,a0,1638 # 66666666 <absimm+0x66566666>
80000b90:	00452593          	slti	a1,a0,4
80000b94:	2cb0a023          	sw	a1,704(ra)

80000b98 <inst_200>:
80000b98:	66666537          	lui	a0,0x66666
80000b9c:	66650513          	addi	a0,a0,1638 # 66666666 <absimm+0x66566666>
80000ba0:	33252593          	slti	a1,a0,818
80000ba4:	2cb0a223          	sw	a1,708(ra)

80000ba8 <inst_201>:
80000ba8:	66666537          	lui	a0,0x66666
80000bac:	66650513          	addi	a0,a0,1638 # 66666666 <absimm+0x66566666>
80000bb0:	66552593          	slti	a1,a0,1637
80000bb4:	2cb0a423          	sw	a1,712(ra)

80000bb8 <inst_202>:
80000bb8:	66666537          	lui	a0,0x66666
80000bbc:	66650513          	addi	a0,a0,1638 # 66666666 <absimm+0x66566666>
80000bc0:	02c52593          	slti	a1,a0,44
80000bc4:	2cb0a623          	sw	a1,716(ra)

80000bc8 <inst_203>:
80000bc8:	66666537          	lui	a0,0x66666
80000bcc:	66650513          	addi	a0,a0,1638 # 66666666 <absimm+0x66566666>
80000bd0:	55652593          	slti	a1,a0,1366
80000bd4:	2cb0a823          	sw	a1,720(ra)

80000bd8 <inst_204>:
80000bd8:	66666537          	lui	a0,0x66666
80000bdc:	66650513          	addi	a0,a0,1638 # 66666666 <absimm+0x66566666>
80000be0:	aab52593          	slti	a1,a0,-1365
80000be4:	2cb0aa23          	sw	a1,724(ra)

80000be8 <inst_205>:
80000be8:	66666537          	lui	a0,0x66666
80000bec:	66650513          	addi	a0,a0,1638 # 66666666 <absimm+0x66566666>
80000bf0:	00652593          	slti	a1,a0,6
80000bf4:	2cb0ac23          	sw	a1,728(ra)

80000bf8 <inst_206>:
80000bf8:	66666537          	lui	a0,0x66666
80000bfc:	66650513          	addi	a0,a0,1638 # 66666666 <absimm+0x66566666>
80000c00:	33452593          	slti	a1,a0,820
80000c04:	2cb0ae23          	sw	a1,732(ra)

80000c08 <inst_207>:
80000c08:	66666537          	lui	a0,0x66666
80000c0c:	66650513          	addi	a0,a0,1638 # 66666666 <absimm+0x66566666>
80000c10:	66752593          	slti	a1,a0,1639
80000c14:	2eb0a023          	sw	a1,736(ra)

80000c18 <inst_208>:
80000c18:	66666537          	lui	a0,0x66666
80000c1c:	66650513          	addi	a0,a0,1638 # 66666666 <absimm+0x66566666>
80000c20:	fd452593          	slti	a1,a0,-44
80000c24:	2eb0a223          	sw	a1,740(ra)

80000c28 <inst_209>:
80000c28:	66666537          	lui	a0,0x66666
80000c2c:	66650513          	addi	a0,a0,1638 # 66666666 <absimm+0x66566666>
80000c30:	02e52593          	slti	a1,a0,46
80000c34:	2eb0a423          	sw	a1,744(ra)

80000c38 <inst_210>:
80000c38:	ffff5537          	lui	a0,0xffff5
80000c3c:	afc50513          	addi	a0,a0,-1284 # ffff4afc <imm12+0xffff4afd>
80000c40:	00352593          	slti	a1,a0,3
80000c44:	2eb0a623          	sw	a1,748(ra)

80000c48 <inst_211>:
80000c48:	ffff5537          	lui	a0,0xffff5
80000c4c:	afc50513          	addi	a0,a0,-1284 # ffff4afc <imm12+0xffff4afd>
80000c50:	55552593          	slti	a1,a0,1365
80000c54:	2eb0a823          	sw	a1,752(ra)

80000c58 <inst_212>:
80000c58:	ffff5537          	lui	a0,0xffff5
80000c5c:	afc50513          	addi	a0,a0,-1284 # ffff4afc <imm12+0xffff4afd>
80000c60:	aaa52593          	slti	a1,a0,-1366
80000c64:	2eb0aa23          	sw	a1,756(ra)

80000c68 <inst_213>:
80000c68:	ffff5537          	lui	a0,0xffff5
80000c6c:	afc50513          	addi	a0,a0,-1284 # ffff4afc <imm12+0xffff4afd>
80000c70:	00552593          	slti	a1,a0,5
80000c74:	2eb0ac23          	sw	a1,760(ra)

80000c78 <inst_214>:
80000c78:	ffff5537          	lui	a0,0xffff5
80000c7c:	afc50513          	addi	a0,a0,-1284 # ffff4afc <imm12+0xffff4afd>
80000c80:	33352593          	slti	a1,a0,819
80000c84:	2eb0ae23          	sw	a1,764(ra)

80000c88 <inst_215>:
80000c88:	ffff5537          	lui	a0,0xffff5
80000c8c:	afc50513          	addi	a0,a0,-1284 # ffff4afc <imm12+0xffff4afd>
80000c90:	66652593          	slti	a1,a0,1638
80000c94:	30b0a023          	sw	a1,768(ra)

80000c98 <inst_216>:
80000c98:	ffff5537          	lui	a0,0xffff5
80000c9c:	afc50513          	addi	a0,a0,-1284 # ffff4afc <imm12+0xffff4afd>
80000ca0:	fd352593          	slti	a1,a0,-45
80000ca4:	30b0a223          	sw	a1,772(ra)

80000ca8 <inst_217>:
80000ca8:	ffff5537          	lui	a0,0xffff5
80000cac:	afc50513          	addi	a0,a0,-1284 # ffff4afc <imm12+0xffff4afd>
80000cb0:	02d52593          	slti	a1,a0,45
80000cb4:	30b0a423          	sw	a1,776(ra)

80000cb8 <inst_218>:
80000cb8:	ffff5537          	lui	a0,0xffff5
80000cbc:	afc50513          	addi	a0,a0,-1284 # ffff4afc <imm12+0xffff4afd>
80000cc0:	00252593          	slti	a1,a0,2
80000cc4:	30b0a623          	sw	a1,780(ra)

80000cc8 <inst_219>:
80000cc8:	ffff5537          	lui	a0,0xffff5
80000ccc:	afc50513          	addi	a0,a0,-1284 # ffff4afc <imm12+0xffff4afd>
80000cd0:	55452593          	slti	a1,a0,1364
80000cd4:	30b0a823          	sw	a1,784(ra)

80000cd8 <inst_220>:
80000cd8:	ffff5537          	lui	a0,0xffff5
80000cdc:	afc50513          	addi	a0,a0,-1284 # ffff4afc <imm12+0xffff4afd>
80000ce0:	00052593          	slti	a1,a0,0
80000ce4:	30b0aa23          	sw	a1,788(ra)

80000ce8 <inst_221>:
80000ce8:	ffff5537          	lui	a0,0xffff5
80000cec:	afc50513          	addi	a0,a0,-1284 # ffff4afc <imm12+0xffff4afd>
80000cf0:	00452593          	slti	a1,a0,4
80000cf4:	30b0ac23          	sw	a1,792(ra)

80000cf8 <inst_222>:
80000cf8:	ffff5537          	lui	a0,0xffff5
80000cfc:	afc50513          	addi	a0,a0,-1284 # ffff4afc <imm12+0xffff4afd>
80000d00:	33252593          	slti	a1,a0,818
80000d04:	30b0ae23          	sw	a1,796(ra)

80000d08 <inst_223>:
80000d08:	ffff5537          	lui	a0,0xffff5
80000d0c:	afc50513          	addi	a0,a0,-1284 # ffff4afc <imm12+0xffff4afd>
80000d10:	66552593          	slti	a1,a0,1637
80000d14:	32b0a023          	sw	a1,800(ra)

80000d18 <inst_224>:
80000d18:	ffff5537          	lui	a0,0xffff5
80000d1c:	afc50513          	addi	a0,a0,-1284 # ffff4afc <imm12+0xffff4afd>
80000d20:	02c52593          	slti	a1,a0,44
80000d24:	32b0a223          	sw	a1,804(ra)

80000d28 <inst_225>:
80000d28:	ffff5537          	lui	a0,0xffff5
80000d2c:	afc50513          	addi	a0,a0,-1284 # ffff4afc <imm12+0xffff4afd>
80000d30:	55652593          	slti	a1,a0,1366
80000d34:	32b0a423          	sw	a1,808(ra)

80000d38 <inst_226>:
80000d38:	ffff5537          	lui	a0,0xffff5
80000d3c:	afc50513          	addi	a0,a0,-1284 # ffff4afc <imm12+0xffff4afd>
80000d40:	aab52593          	slti	a1,a0,-1365
80000d44:	32b0a623          	sw	a1,812(ra)

80000d48 <inst_227>:
80000d48:	ffff5537          	lui	a0,0xffff5
80000d4c:	afc50513          	addi	a0,a0,-1284 # ffff4afc <imm12+0xffff4afd>
80000d50:	00652593          	slti	a1,a0,6
80000d54:	32b0a823          	sw	a1,816(ra)

80000d58 <inst_228>:
80000d58:	ffff5537          	lui	a0,0xffff5
80000d5c:	afc50513          	addi	a0,a0,-1284 # ffff4afc <imm12+0xffff4afd>
80000d60:	33452593          	slti	a1,a0,820
80000d64:	32b0aa23          	sw	a1,820(ra)

80000d68 <inst_229>:
80000d68:	ffff5537          	lui	a0,0xffff5
80000d6c:	afc50513          	addi	a0,a0,-1284 # ffff4afc <imm12+0xffff4afd>
80000d70:	66752593          	slti	a1,a0,1639
80000d74:	32b0ac23          	sw	a1,824(ra)

80000d78 <inst_230>:
80000d78:	ffff5537          	lui	a0,0xffff5
80000d7c:	afc50513          	addi	a0,a0,-1284 # ffff4afc <imm12+0xffff4afd>
80000d80:	fd452593          	slti	a1,a0,-44
80000d84:	32b0ae23          	sw	a1,828(ra)

80000d88 <inst_231>:
80000d88:	ffff5537          	lui	a0,0xffff5
80000d8c:	afc50513          	addi	a0,a0,-1284 # ffff4afc <imm12+0xffff4afd>
80000d90:	02e52593          	slti	a1,a0,46
80000d94:	34b0a023          	sw	a1,832(ra)

80000d98 <inst_232>:
80000d98:	0000b537          	lui	a0,0xb
80000d9c:	50450513          	addi	a0,a0,1284 # b504 <absimmsh+0xa506>
80000da0:	00352593          	slti	a1,a0,3
80000da4:	34b0a223          	sw	a1,836(ra)

80000da8 <inst_233>:
80000da8:	0000b537          	lui	a0,0xb
80000dac:	50450513          	addi	a0,a0,1284 # b504 <absimmsh+0xa506>
80000db0:	55552593          	slti	a1,a0,1365
80000db4:	34b0a423          	sw	a1,840(ra)

80000db8 <inst_234>:
80000db8:	0000b537          	lui	a0,0xb
80000dbc:	50450513          	addi	a0,a0,1284 # b504 <absimmsh+0xa506>
80000dc0:	aaa52593          	slti	a1,a0,-1366
80000dc4:	34b0a623          	sw	a1,844(ra)

80000dc8 <inst_235>:
80000dc8:	0000b537          	lui	a0,0xb
80000dcc:	50450513          	addi	a0,a0,1284 # b504 <absimmsh+0xa506>
80000dd0:	00552593          	slti	a1,a0,5
80000dd4:	34b0a823          	sw	a1,848(ra)

80000dd8 <inst_236>:
80000dd8:	0000b537          	lui	a0,0xb
80000ddc:	50450513          	addi	a0,a0,1284 # b504 <absimmsh+0xa506>
80000de0:	33352593          	slti	a1,a0,819
80000de4:	34b0aa23          	sw	a1,852(ra)

80000de8 <inst_237>:
80000de8:	0000b537          	lui	a0,0xb
80000dec:	50450513          	addi	a0,a0,1284 # b504 <absimmsh+0xa506>
80000df0:	66652593          	slti	a1,a0,1638
80000df4:	34b0ac23          	sw	a1,856(ra)

80000df8 <inst_238>:
80000df8:	0000b537          	lui	a0,0xb
80000dfc:	50450513          	addi	a0,a0,1284 # b504 <absimmsh+0xa506>
80000e00:	fd352593          	slti	a1,a0,-45
80000e04:	34b0ae23          	sw	a1,860(ra)

80000e08 <inst_239>:
80000e08:	0000b537          	lui	a0,0xb
80000e0c:	50450513          	addi	a0,a0,1284 # b504 <absimmsh+0xa506>
80000e10:	02d52593          	slti	a1,a0,45
80000e14:	36b0a023          	sw	a1,864(ra)

80000e18 <inst_240>:
80000e18:	0000b537          	lui	a0,0xb
80000e1c:	50450513          	addi	a0,a0,1284 # b504 <absimmsh+0xa506>
80000e20:	00252593          	slti	a1,a0,2
80000e24:	36b0a223          	sw	a1,868(ra)

80000e28 <inst_241>:
80000e28:	0000b537          	lui	a0,0xb
80000e2c:	50450513          	addi	a0,a0,1284 # b504 <absimmsh+0xa506>
80000e30:	55452593          	slti	a1,a0,1364
80000e34:	36b0a423          	sw	a1,872(ra)

80000e38 <inst_242>:
80000e38:	0000b537          	lui	a0,0xb
80000e3c:	50450513          	addi	a0,a0,1284 # b504 <absimmsh+0xa506>
80000e40:	00052593          	slti	a1,a0,0
80000e44:	36b0a623          	sw	a1,876(ra)

80000e48 <inst_243>:
80000e48:	0000b537          	lui	a0,0xb
80000e4c:	50450513          	addi	a0,a0,1284 # b504 <absimmsh+0xa506>
80000e50:	00452593          	slti	a1,a0,4
80000e54:	36b0a823          	sw	a1,880(ra)

80000e58 <inst_244>:
80000e58:	0000b537          	lui	a0,0xb
80000e5c:	50450513          	addi	a0,a0,1284 # b504 <absimmsh+0xa506>
80000e60:	33252593          	slti	a1,a0,818
80000e64:	36b0aa23          	sw	a1,884(ra)

80000e68 <inst_245>:
80000e68:	0000b537          	lui	a0,0xb
80000e6c:	50450513          	addi	a0,a0,1284 # b504 <absimmsh+0xa506>
80000e70:	66552593          	slti	a1,a0,1637
80000e74:	36b0ac23          	sw	a1,888(ra)

80000e78 <inst_246>:
80000e78:	0000b537          	lui	a0,0xb
80000e7c:	50450513          	addi	a0,a0,1284 # b504 <absimmsh+0xa506>
80000e80:	02c52593          	slti	a1,a0,44
80000e84:	36b0ae23          	sw	a1,892(ra)

80000e88 <inst_247>:
80000e88:	0000b537          	lui	a0,0xb
80000e8c:	50450513          	addi	a0,a0,1284 # b504 <absimmsh+0xa506>
80000e90:	55652593          	slti	a1,a0,1366
80000e94:	38b0a023          	sw	a1,896(ra)

80000e98 <inst_248>:
80000e98:	0000b537          	lui	a0,0xb
80000e9c:	50450513          	addi	a0,a0,1284 # b504 <absimmsh+0xa506>
80000ea0:	aab52593          	slti	a1,a0,-1365
80000ea4:	38b0a223          	sw	a1,900(ra)

80000ea8 <inst_249>:
80000ea8:	0000b537          	lui	a0,0xb
80000eac:	50450513          	addi	a0,a0,1284 # b504 <absimmsh+0xa506>
80000eb0:	00652593          	slti	a1,a0,6
80000eb4:	38b0a423          	sw	a1,904(ra)

80000eb8 <inst_250>:
80000eb8:	0000b537          	lui	a0,0xb
80000ebc:	50450513          	addi	a0,a0,1284 # b504 <absimmsh+0xa506>
80000ec0:	33452593          	slti	a1,a0,820
80000ec4:	38b0a623          	sw	a1,908(ra)

80000ec8 <inst_251>:
80000ec8:	0000b537          	lui	a0,0xb
80000ecc:	50450513          	addi	a0,a0,1284 # b504 <absimmsh+0xa506>
80000ed0:	66752593          	slti	a1,a0,1639
80000ed4:	38b0a823          	sw	a1,912(ra)

80000ed8 <inst_252>:
80000ed8:	0000b537          	lui	a0,0xb
80000edc:	50450513          	addi	a0,a0,1284 # b504 <absimmsh+0xa506>
80000ee0:	fd452593          	slti	a1,a0,-44
80000ee4:	38b0aa23          	sw	a1,916(ra)

80000ee8 <inst_253>:
80000ee8:	0000b537          	lui	a0,0xb
80000eec:	50450513          	addi	a0,a0,1284 # b504 <absimmsh+0xa506>
80000ef0:	02e52593          	slti	a1,a0,46
80000ef4:	38b0ac23          	sw	a1,920(ra)

80000ef8 <inst_254>:
80000ef8:	00200513          	li	a0,2
80000efc:	00352593          	slti	a1,a0,3
80000f00:	38b0ae23          	sw	a1,924(ra)

80000f04 <inst_255>:
80000f04:	00200513          	li	a0,2
80000f08:	55552593          	slti	a1,a0,1365
80000f0c:	3ab0a023          	sw	a1,928(ra)

80000f10 <inst_256>:
80000f10:	00200513          	li	a0,2
80000f14:	aaa52593          	slti	a1,a0,-1366
80000f18:	3ab0a223          	sw	a1,932(ra)

80000f1c <inst_257>:
80000f1c:	00200513          	li	a0,2
80000f20:	00552593          	slti	a1,a0,5
80000f24:	3ab0a423          	sw	a1,936(ra)

80000f28 <inst_258>:
80000f28:	00200513          	li	a0,2
80000f2c:	33352593          	slti	a1,a0,819
80000f30:	3ab0a623          	sw	a1,940(ra)

80000f34 <inst_259>:
80000f34:	00200513          	li	a0,2
80000f38:	66652593          	slti	a1,a0,1638
80000f3c:	3ab0a823          	sw	a1,944(ra)

80000f40 <inst_260>:
80000f40:	00200513          	li	a0,2
80000f44:	fd352593          	slti	a1,a0,-45
80000f48:	3ab0aa23          	sw	a1,948(ra)

80000f4c <inst_261>:
80000f4c:	00200513          	li	a0,2
80000f50:	02d52593          	slti	a1,a0,45
80000f54:	3ab0ac23          	sw	a1,952(ra)

80000f58 <inst_262>:
80000f58:	00200513          	li	a0,2
80000f5c:	00252593          	slti	a1,a0,2
80000f60:	3ab0ae23          	sw	a1,956(ra)

80000f64 <inst_263>:
80000f64:	00200513          	li	a0,2
80000f68:	55452593          	slti	a1,a0,1364
80000f6c:	3cb0a023          	sw	a1,960(ra)

80000f70 <inst_264>:
80000f70:	00200513          	li	a0,2
80000f74:	00052593          	slti	a1,a0,0
80000f78:	3cb0a223          	sw	a1,964(ra)

80000f7c <inst_265>:
80000f7c:	00200513          	li	a0,2
80000f80:	00452593          	slti	a1,a0,4
80000f84:	3cb0a423          	sw	a1,968(ra)

80000f88 <inst_266>:
80000f88:	00200513          	li	a0,2
80000f8c:	33252593          	slti	a1,a0,818
80000f90:	3cb0a623          	sw	a1,972(ra)

80000f94 <inst_267>:
80000f94:	00200513          	li	a0,2
80000f98:	66552593          	slti	a1,a0,1637
80000f9c:	3cb0a823          	sw	a1,976(ra)

80000fa0 <inst_268>:
80000fa0:	00200513          	li	a0,2
80000fa4:	02c52593          	slti	a1,a0,44
80000fa8:	3cb0aa23          	sw	a1,980(ra)

80000fac <inst_269>:
80000fac:	00200513          	li	a0,2
80000fb0:	55652593          	slti	a1,a0,1366
80000fb4:	3cb0ac23          	sw	a1,984(ra)

80000fb8 <inst_270>:
80000fb8:	00200513          	li	a0,2
80000fbc:	aab52593          	slti	a1,a0,-1365
80000fc0:	3cb0ae23          	sw	a1,988(ra)

80000fc4 <inst_271>:
80000fc4:	00200513          	li	a0,2
80000fc8:	00652593          	slti	a1,a0,6
80000fcc:	3eb0a023          	sw	a1,992(ra)

80000fd0 <inst_272>:
80000fd0:	00200513          	li	a0,2
80000fd4:	33452593          	slti	a1,a0,820
80000fd8:	3eb0a223          	sw	a1,996(ra)

80000fdc <inst_273>:
80000fdc:	00200513          	li	a0,2
80000fe0:	66752593          	slti	a1,a0,1639
80000fe4:	3eb0a423          	sw	a1,1000(ra)

80000fe8 <inst_274>:
80000fe8:	00200513          	li	a0,2
80000fec:	fd452593          	slti	a1,a0,-44
80000ff0:	3eb0a623          	sw	a1,1004(ra)

80000ff4 <inst_275>:
80000ff4:	00200513          	li	a0,2
80000ff8:	02e52593          	slti	a1,a0,46
80000ffc:	3eb0a823          	sw	a1,1008(ra)

80001000 <inst_276>:
80001000:	55555537          	lui	a0,0x55555
80001004:	55450513          	addi	a0,a0,1364 # 55555554 <absimm+0x55455554>
80001008:	00352593          	slti	a1,a0,3
8000100c:	3eb0aa23          	sw	a1,1012(ra)

80001010 <inst_277>:
80001010:	55555537          	lui	a0,0x55555
80001014:	55450513          	addi	a0,a0,1364 # 55555554 <absimm+0x55455554>
80001018:	55552593          	slti	a1,a0,1365
8000101c:	3eb0ac23          	sw	a1,1016(ra)

80001020 <inst_278>:
80001020:	55555537          	lui	a0,0x55555
80001024:	55450513          	addi	a0,a0,1364 # 55555554 <absimm+0x55455554>
80001028:	aaa52593          	slti	a1,a0,-1366
8000102c:	3eb0ae23          	sw	a1,1020(ra)

80001030 <inst_279>:
80001030:	55555537          	lui	a0,0x55555
80001034:	55450513          	addi	a0,a0,1364 # 55555554 <absimm+0x55455554>
80001038:	00552593          	slti	a1,a0,5
8000103c:	40b0a023          	sw	a1,1024(ra)

80001040 <inst_280>:
80001040:	55555537          	lui	a0,0x55555
80001044:	55450513          	addi	a0,a0,1364 # 55555554 <absimm+0x55455554>
80001048:	33352593          	slti	a1,a0,819
8000104c:	40b0a223          	sw	a1,1028(ra)

80001050 <inst_281>:
80001050:	55555537          	lui	a0,0x55555
80001054:	55450513          	addi	a0,a0,1364 # 55555554 <absimm+0x55455554>
80001058:	66652593          	slti	a1,a0,1638
8000105c:	40b0a423          	sw	a1,1032(ra)

80001060 <inst_282>:
80001060:	55555537          	lui	a0,0x55555
80001064:	55450513          	addi	a0,a0,1364 # 55555554 <absimm+0x55455554>
80001068:	fd352593          	slti	a1,a0,-45
8000106c:	40b0a623          	sw	a1,1036(ra)

80001070 <inst_283>:
80001070:	55555537          	lui	a0,0x55555
80001074:	55450513          	addi	a0,a0,1364 # 55555554 <absimm+0x55455554>
80001078:	02d52593          	slti	a1,a0,45
8000107c:	40b0a823          	sw	a1,1040(ra)

80001080 <inst_284>:
80001080:	55555537          	lui	a0,0x55555
80001084:	55450513          	addi	a0,a0,1364 # 55555554 <absimm+0x55455554>
80001088:	00252593          	slti	a1,a0,2
8000108c:	40b0aa23          	sw	a1,1044(ra)

80001090 <inst_285>:
80001090:	55555537          	lui	a0,0x55555
80001094:	55450513          	addi	a0,a0,1364 # 55555554 <absimm+0x55455554>
80001098:	55452593          	slti	a1,a0,1364
8000109c:	40b0ac23          	sw	a1,1048(ra)

800010a0 <inst_286>:
800010a0:	55555537          	lui	a0,0x55555
800010a4:	55450513          	addi	a0,a0,1364 # 55555554 <absimm+0x55455554>
800010a8:	00052593          	slti	a1,a0,0
800010ac:	40b0ae23          	sw	a1,1052(ra)

800010b0 <inst_287>:
800010b0:	55555537          	lui	a0,0x55555
800010b4:	55450513          	addi	a0,a0,1364 # 55555554 <absimm+0x55455554>
800010b8:	00452593          	slti	a1,a0,4
800010bc:	42b0a023          	sw	a1,1056(ra)

800010c0 <inst_288>:
800010c0:	55555537          	lui	a0,0x55555
800010c4:	55450513          	addi	a0,a0,1364 # 55555554 <absimm+0x55455554>
800010c8:	33252593          	slti	a1,a0,818
800010cc:	42b0a223          	sw	a1,1060(ra)

800010d0 <inst_289>:
800010d0:	55555537          	lui	a0,0x55555
800010d4:	55450513          	addi	a0,a0,1364 # 55555554 <absimm+0x55455554>
800010d8:	66552593          	slti	a1,a0,1637
800010dc:	42b0a423          	sw	a1,1064(ra)

800010e0 <inst_290>:
800010e0:	55555537          	lui	a0,0x55555
800010e4:	55450513          	addi	a0,a0,1364 # 55555554 <absimm+0x55455554>
800010e8:	02c52593          	slti	a1,a0,44
800010ec:	42b0a623          	sw	a1,1068(ra)

800010f0 <inst_291>:
800010f0:	55555537          	lui	a0,0x55555
800010f4:	55450513          	addi	a0,a0,1364 # 55555554 <absimm+0x55455554>
800010f8:	55652593          	slti	a1,a0,1366
800010fc:	42b0a823          	sw	a1,1072(ra)

80001100 <inst_292>:
80001100:	55555537          	lui	a0,0x55555
80001104:	55450513          	addi	a0,a0,1364 # 55555554 <absimm+0x55455554>
80001108:	aab52593          	slti	a1,a0,-1365
8000110c:	42b0aa23          	sw	a1,1076(ra)

80001110 <inst_293>:
80001110:	55555537          	lui	a0,0x55555
80001114:	55450513          	addi	a0,a0,1364 # 55555554 <absimm+0x55455554>
80001118:	00652593          	slti	a1,a0,6
8000111c:	42b0ac23          	sw	a1,1080(ra)

80001120 <inst_294>:
80001120:	55555537          	lui	a0,0x55555
80001124:	55450513          	addi	a0,a0,1364 # 55555554 <absimm+0x55455554>
80001128:	33452593          	slti	a1,a0,820
8000112c:	42b0ae23          	sw	a1,1084(ra)

80001130 <inst_295>:
80001130:	55555537          	lui	a0,0x55555
80001134:	55450513          	addi	a0,a0,1364 # 55555554 <absimm+0x55455554>
80001138:	66752593          	slti	a1,a0,1639
8000113c:	44b0a023          	sw	a1,1088(ra)

80001140 <inst_296>:
80001140:	55555537          	lui	a0,0x55555
80001144:	55450513          	addi	a0,a0,1364 # 55555554 <absimm+0x55455554>
80001148:	fd452593          	slti	a1,a0,-44
8000114c:	44b0a223          	sw	a1,1092(ra)

80001150 <inst_297>:
80001150:	55555537          	lui	a0,0x55555
80001154:	55450513          	addi	a0,a0,1364 # 55555554 <absimm+0x55455554>
80001158:	02e52593          	slti	a1,a0,46
8000115c:	44b0a423          	sw	a1,1096(ra)

80001160 <inst_298>:
80001160:	00000513          	li	a0,0
80001164:	00352593          	slti	a1,a0,3
80001168:	44b0a623          	sw	a1,1100(ra)

8000116c <inst_299>:
8000116c:	00000513          	li	a0,0
80001170:	55552593          	slti	a1,a0,1365
80001174:	44b0a823          	sw	a1,1104(ra)

80001178 <inst_300>:
80001178:	00000513          	li	a0,0
8000117c:	aaa52593          	slti	a1,a0,-1366
80001180:	44b0aa23          	sw	a1,1108(ra)

80001184 <inst_301>:
80001184:	00000513          	li	a0,0
80001188:	00552593          	slti	a1,a0,5
8000118c:	44b0ac23          	sw	a1,1112(ra)

80001190 <inst_302>:
80001190:	00000513          	li	a0,0
80001194:	33352593          	slti	a1,a0,819
80001198:	44b0ae23          	sw	a1,1116(ra)

8000119c <inst_303>:
8000119c:	00000513          	li	a0,0
800011a0:	66652593          	slti	a1,a0,1638
800011a4:	46b0a023          	sw	a1,1120(ra)

800011a8 <inst_304>:
800011a8:	33333537          	lui	a0,0x33333
800011ac:	33450513          	addi	a0,a0,820 # 33333334 <absimm+0x33233334>
800011b0:	33252593          	slti	a1,a0,818
800011b4:	46b0a223          	sw	a1,1124(ra)

800011b8 <inst_305>:
800011b8:	33333537          	lui	a0,0x33333
800011bc:	33450513          	addi	a0,a0,820 # 33333334 <absimm+0x33233334>
800011c0:	66552593          	slti	a1,a0,1637
800011c4:	46b0a423          	sw	a1,1128(ra)

800011c8 <inst_306>:
800011c8:	33333537          	lui	a0,0x33333
800011cc:	33450513          	addi	a0,a0,820 # 33333334 <absimm+0x33233334>
800011d0:	02c52593          	slti	a1,a0,44
800011d4:	46b0a623          	sw	a1,1132(ra)

800011d8 <inst_307>:
800011d8:	33333537          	lui	a0,0x33333
800011dc:	33450513          	addi	a0,a0,820 # 33333334 <absimm+0x33233334>
800011e0:	55652593          	slti	a1,a0,1366
800011e4:	46b0a823          	sw	a1,1136(ra)

800011e8 <inst_308>:
800011e8:	33333537          	lui	a0,0x33333
800011ec:	33450513          	addi	a0,a0,820 # 33333334 <absimm+0x33233334>
800011f0:	aab52593          	slti	a1,a0,-1365
800011f4:	46b0aa23          	sw	a1,1140(ra)

800011f8 <inst_309>:
800011f8:	33333537          	lui	a0,0x33333
800011fc:	33450513          	addi	a0,a0,820 # 33333334 <absimm+0x33233334>
80001200:	00652593          	slti	a1,a0,6
80001204:	46b0ac23          	sw	a1,1144(ra)

80001208 <inst_310>:
80001208:	33333537          	lui	a0,0x33333
8000120c:	33450513          	addi	a0,a0,820 # 33333334 <absimm+0x33233334>
80001210:	33452593          	slti	a1,a0,820
80001214:	46b0ae23          	sw	a1,1148(ra)

80001218 <inst_311>:
80001218:	33333537          	lui	a0,0x33333
8000121c:	33450513          	addi	a0,a0,820 # 33333334 <absimm+0x33233334>
80001220:	66752593          	slti	a1,a0,1639
80001224:	48b0a023          	sw	a1,1152(ra)

80001228 <inst_312>:
80001228:	33333537          	lui	a0,0x33333
8000122c:	33450513          	addi	a0,a0,820 # 33333334 <absimm+0x33233334>
80001230:	fd452593          	slti	a1,a0,-44
80001234:	48b0a223          	sw	a1,1156(ra)

80001238 <inst_313>:
80001238:	33333537          	lui	a0,0x33333
8000123c:	33450513          	addi	a0,a0,820 # 33333334 <absimm+0x33233334>
80001240:	02e52593          	slti	a1,a0,46
80001244:	48b0a423          	sw	a1,1160(ra)

80001248 <inst_314>:
80001248:	66666537          	lui	a0,0x66666
8000124c:	66750513          	addi	a0,a0,1639 # 66666667 <absimm+0x66566667>
80001250:	00352593          	slti	a1,a0,3
80001254:	48b0a623          	sw	a1,1164(ra)

80001258 <inst_315>:
80001258:	66666537          	lui	a0,0x66666
8000125c:	66750513          	addi	a0,a0,1639 # 66666667 <absimm+0x66566667>
80001260:	55552593          	slti	a1,a0,1365
80001264:	48b0a823          	sw	a1,1168(ra)

80001268 <inst_316>:
80001268:	66666537          	lui	a0,0x66666
8000126c:	66750513          	addi	a0,a0,1639 # 66666667 <absimm+0x66566667>
80001270:	aaa52593          	slti	a1,a0,-1366
80001274:	48b0aa23          	sw	a1,1172(ra)

80001278 <inst_317>:
80001278:	66666537          	lui	a0,0x66666
8000127c:	66750513          	addi	a0,a0,1639 # 66666667 <absimm+0x66566667>
80001280:	00552593          	slti	a1,a0,5
80001284:	48b0ac23          	sw	a1,1176(ra)

80001288 <inst_318>:
80001288:	66666537          	lui	a0,0x66666
8000128c:	66750513          	addi	a0,a0,1639 # 66666667 <absimm+0x66566667>
80001290:	33352593          	slti	a1,a0,819
80001294:	48b0ae23          	sw	a1,1180(ra)

80001298 <inst_319>:
80001298:	66666537          	lui	a0,0x66666
8000129c:	66750513          	addi	a0,a0,1639 # 66666667 <absimm+0x66566667>
800012a0:	66652593          	slti	a1,a0,1638
800012a4:	4ab0a023          	sw	a1,1184(ra)

800012a8 <inst_320>:
800012a8:	66666537          	lui	a0,0x66666
800012ac:	66750513          	addi	a0,a0,1639 # 66666667 <absimm+0x66566667>
800012b0:	fd352593          	slti	a1,a0,-45
800012b4:	4ab0a223          	sw	a1,1188(ra)

800012b8 <inst_321>:
800012b8:	66666537          	lui	a0,0x66666
800012bc:	66750513          	addi	a0,a0,1639 # 66666667 <absimm+0x66566667>
800012c0:	02d52593          	slti	a1,a0,45
800012c4:	4ab0a423          	sw	a1,1192(ra)

800012c8 <inst_322>:
800012c8:	66666537          	lui	a0,0x66666
800012cc:	66750513          	addi	a0,a0,1639 # 66666667 <absimm+0x66566667>
800012d0:	00252593          	slti	a1,a0,2
800012d4:	4ab0a623          	sw	a1,1196(ra)

800012d8 <inst_323>:
800012d8:	66666537          	lui	a0,0x66666
800012dc:	66750513          	addi	a0,a0,1639 # 66666667 <absimm+0x66566667>
800012e0:	55452593          	slti	a1,a0,1364
800012e4:	4ab0a823          	sw	a1,1200(ra)

800012e8 <inst_324>:
800012e8:	66666537          	lui	a0,0x66666
800012ec:	66750513          	addi	a0,a0,1639 # 66666667 <absimm+0x66566667>
800012f0:	00052593          	slti	a1,a0,0
800012f4:	4ab0aa23          	sw	a1,1204(ra)

800012f8 <inst_325>:
800012f8:	66666537          	lui	a0,0x66666
800012fc:	66750513          	addi	a0,a0,1639 # 66666667 <absimm+0x66566667>
80001300:	00452593          	slti	a1,a0,4
80001304:	4ab0ac23          	sw	a1,1208(ra)

80001308 <inst_326>:
80001308:	66666537          	lui	a0,0x66666
8000130c:	66750513          	addi	a0,a0,1639 # 66666667 <absimm+0x66566667>
80001310:	33252593          	slti	a1,a0,818
80001314:	4ab0ae23          	sw	a1,1212(ra)

80001318 <inst_327>:
80001318:	66666537          	lui	a0,0x66666
8000131c:	66750513          	addi	a0,a0,1639 # 66666667 <absimm+0x66566667>
80001320:	66552593          	slti	a1,a0,1637
80001324:	4cb0a023          	sw	a1,1216(ra)

80001328 <inst_328>:
80001328:	66666537          	lui	a0,0x66666
8000132c:	66750513          	addi	a0,a0,1639 # 66666667 <absimm+0x66566667>
80001330:	02c52593          	slti	a1,a0,44
80001334:	4cb0a223          	sw	a1,1220(ra)

80001338 <inst_329>:
80001338:	66666537          	lui	a0,0x66666
8000133c:	66750513          	addi	a0,a0,1639 # 66666667 <absimm+0x66566667>
80001340:	55652593          	slti	a1,a0,1366
80001344:	4cb0a423          	sw	a1,1224(ra)

80001348 <inst_330>:
80001348:	66666537          	lui	a0,0x66666
8000134c:	66750513          	addi	a0,a0,1639 # 66666667 <absimm+0x66566667>
80001350:	aab52593          	slti	a1,a0,-1365
80001354:	4cb0a623          	sw	a1,1228(ra)

80001358 <inst_331>:
80001358:	66666537          	lui	a0,0x66666
8000135c:	66750513          	addi	a0,a0,1639 # 66666667 <absimm+0x66566667>
80001360:	00652593          	slti	a1,a0,6
80001364:	4cb0a823          	sw	a1,1232(ra)

80001368 <inst_332>:
80001368:	66666537          	lui	a0,0x66666
8000136c:	66750513          	addi	a0,a0,1639 # 66666667 <absimm+0x66566667>
80001370:	33452593          	slti	a1,a0,820
80001374:	4cb0aa23          	sw	a1,1236(ra)

80001378 <inst_333>:
80001378:	66666537          	lui	a0,0x66666
8000137c:	66750513          	addi	a0,a0,1639 # 66666667 <absimm+0x66566667>
80001380:	66752593          	slti	a1,a0,1639
80001384:	4cb0ac23          	sw	a1,1240(ra)

80001388 <inst_334>:
80001388:	66666537          	lui	a0,0x66666
8000138c:	66750513          	addi	a0,a0,1639 # 66666667 <absimm+0x66566667>
80001390:	fd452593          	slti	a1,a0,-44
80001394:	4cb0ae23          	sw	a1,1244(ra)

80001398 <inst_335>:
80001398:	66666537          	lui	a0,0x66666
8000139c:	66750513          	addi	a0,a0,1639 # 66666667 <absimm+0x66566667>
800013a0:	02e52593          	slti	a1,a0,46
800013a4:	4eb0a023          	sw	a1,1248(ra)

800013a8 <inst_336>:
800013a8:	ffff5537          	lui	a0,0xffff5
800013ac:	afd50513          	addi	a0,a0,-1283 # ffff4afd <imm12+0xffff4afe>
800013b0:	00352593          	slti	a1,a0,3
800013b4:	4eb0a223          	sw	a1,1252(ra)

800013b8 <inst_337>:
800013b8:	ffff5537          	lui	a0,0xffff5
800013bc:	afd50513          	addi	a0,a0,-1283 # ffff4afd <imm12+0xffff4afe>
800013c0:	55552593          	slti	a1,a0,1365
800013c4:	4eb0a423          	sw	a1,1256(ra)

800013c8 <inst_338>:
800013c8:	ffff5537          	lui	a0,0xffff5
800013cc:	afd50513          	addi	a0,a0,-1283 # ffff4afd <imm12+0xffff4afe>
800013d0:	aaa52593          	slti	a1,a0,-1366
800013d4:	4eb0a623          	sw	a1,1260(ra)

800013d8 <inst_339>:
800013d8:	ffff5537          	lui	a0,0xffff5
800013dc:	afd50513          	addi	a0,a0,-1283 # ffff4afd <imm12+0xffff4afe>
800013e0:	00552593          	slti	a1,a0,5
800013e4:	4eb0a823          	sw	a1,1264(ra)

800013e8 <inst_340>:
800013e8:	ffff5537          	lui	a0,0xffff5
800013ec:	afd50513          	addi	a0,a0,-1283 # ffff4afd <imm12+0xffff4afe>
800013f0:	33352593          	slti	a1,a0,819
800013f4:	4eb0aa23          	sw	a1,1268(ra)

800013f8 <inst_341>:
800013f8:	ffff5537          	lui	a0,0xffff5
800013fc:	afd50513          	addi	a0,a0,-1283 # ffff4afd <imm12+0xffff4afe>
80001400:	66652593          	slti	a1,a0,1638
80001404:	4eb0ac23          	sw	a1,1272(ra)

80001408 <inst_342>:
80001408:	ffff5537          	lui	a0,0xffff5
8000140c:	afd50513          	addi	a0,a0,-1283 # ffff4afd <imm12+0xffff4afe>
80001410:	fd352593          	slti	a1,a0,-45
80001414:	4eb0ae23          	sw	a1,1276(ra)

80001418 <inst_343>:
80001418:	ffff5537          	lui	a0,0xffff5
8000141c:	afd50513          	addi	a0,a0,-1283 # ffff4afd <imm12+0xffff4afe>
80001420:	02d52593          	slti	a1,a0,45
80001424:	50b0a023          	sw	a1,1280(ra)

80001428 <inst_344>:
80001428:	ffff5537          	lui	a0,0xffff5
8000142c:	afd50513          	addi	a0,a0,-1283 # ffff4afd <imm12+0xffff4afe>
80001430:	00252593          	slti	a1,a0,2
80001434:	50b0a223          	sw	a1,1284(ra)

80001438 <inst_345>:
80001438:	ffff5537          	lui	a0,0xffff5
8000143c:	afd50513          	addi	a0,a0,-1283 # ffff4afd <imm12+0xffff4afe>
80001440:	55452593          	slti	a1,a0,1364
80001444:	50b0a423          	sw	a1,1288(ra)

80001448 <inst_346>:
80001448:	ffff5537          	lui	a0,0xffff5
8000144c:	afd50513          	addi	a0,a0,-1283 # ffff4afd <imm12+0xffff4afe>
80001450:	00052593          	slti	a1,a0,0
80001454:	50b0a623          	sw	a1,1292(ra)

80001458 <inst_347>:
80001458:	ffff5537          	lui	a0,0xffff5
8000145c:	afd50513          	addi	a0,a0,-1283 # ffff4afd <imm12+0xffff4afe>
80001460:	00452593          	slti	a1,a0,4
80001464:	50b0a823          	sw	a1,1296(ra)

80001468 <inst_348>:
80001468:	ffff5537          	lui	a0,0xffff5
8000146c:	afd50513          	addi	a0,a0,-1283 # ffff4afd <imm12+0xffff4afe>
80001470:	33252593          	slti	a1,a0,818
80001474:	50b0aa23          	sw	a1,1300(ra)

80001478 <inst_349>:
80001478:	ffff5537          	lui	a0,0xffff5
8000147c:	afd50513          	addi	a0,a0,-1283 # ffff4afd <imm12+0xffff4afe>
80001480:	66552593          	slti	a1,a0,1637
80001484:	50b0ac23          	sw	a1,1304(ra)

80001488 <inst_350>:
80001488:	ffff5537          	lui	a0,0xffff5
8000148c:	afd50513          	addi	a0,a0,-1283 # ffff4afd <imm12+0xffff4afe>
80001490:	02c52593          	slti	a1,a0,44
80001494:	50b0ae23          	sw	a1,1308(ra)

80001498 <inst_351>:
80001498:	ffff5537          	lui	a0,0xffff5
8000149c:	afd50513          	addi	a0,a0,-1283 # ffff4afd <imm12+0xffff4afe>
800014a0:	55652593          	slti	a1,a0,1366
800014a4:	52b0a023          	sw	a1,1312(ra)

800014a8 <inst_352>:
800014a8:	ffff5537          	lui	a0,0xffff5
800014ac:	afd50513          	addi	a0,a0,-1283 # ffff4afd <imm12+0xffff4afe>
800014b0:	aab52593          	slti	a1,a0,-1365
800014b4:	52b0a223          	sw	a1,1316(ra)

800014b8 <inst_353>:
800014b8:	ffff5537          	lui	a0,0xffff5
800014bc:	afd50513          	addi	a0,a0,-1283 # ffff4afd <imm12+0xffff4afe>
800014c0:	00652593          	slti	a1,a0,6
800014c4:	52b0a423          	sw	a1,1320(ra)

800014c8 <inst_354>:
800014c8:	ffff5537          	lui	a0,0xffff5
800014cc:	afd50513          	addi	a0,a0,-1283 # ffff4afd <imm12+0xffff4afe>
800014d0:	33452593          	slti	a1,a0,820
800014d4:	52b0a623          	sw	a1,1324(ra)

800014d8 <inst_355>:
800014d8:	ffff5537          	lui	a0,0xffff5
800014dc:	afd50513          	addi	a0,a0,-1283 # ffff4afd <imm12+0xffff4afe>
800014e0:	66752593          	slti	a1,a0,1639
800014e4:	52b0a823          	sw	a1,1328(ra)

800014e8 <inst_356>:
800014e8:	ffff5537          	lui	a0,0xffff5
800014ec:	afd50513          	addi	a0,a0,-1283 # ffff4afd <imm12+0xffff4afe>
800014f0:	fd452593          	slti	a1,a0,-44
800014f4:	52b0aa23          	sw	a1,1332(ra)

800014f8 <inst_357>:
800014f8:	ffff5537          	lui	a0,0xffff5
800014fc:	afd50513          	addi	a0,a0,-1283 # ffff4afd <imm12+0xffff4afe>
80001500:	02e52593          	slti	a1,a0,46
80001504:	52b0ac23          	sw	a1,1336(ra)

80001508 <inst_358>:
80001508:	0000b537          	lui	a0,0xb
8000150c:	50550513          	addi	a0,a0,1285 # b505 <absimmsh+0xa507>
80001510:	00352593          	slti	a1,a0,3
80001514:	52b0ae23          	sw	a1,1340(ra)

80001518 <inst_359>:
80001518:	0000b537          	lui	a0,0xb
8000151c:	50550513          	addi	a0,a0,1285 # b505 <absimmsh+0xa507>
80001520:	55552593          	slti	a1,a0,1365
80001524:	54b0a023          	sw	a1,1344(ra)

80001528 <inst_360>:
80001528:	0000b537          	lui	a0,0xb
8000152c:	50550513          	addi	a0,a0,1285 # b505 <absimmsh+0xa507>
80001530:	aaa52593          	slti	a1,a0,-1366
80001534:	54b0a223          	sw	a1,1348(ra)

80001538 <inst_361>:
80001538:	0000b537          	lui	a0,0xb
8000153c:	50550513          	addi	a0,a0,1285 # b505 <absimmsh+0xa507>
80001540:	00552593          	slti	a1,a0,5
80001544:	54b0a423          	sw	a1,1352(ra)

80001548 <inst_362>:
80001548:	0000b537          	lui	a0,0xb
8000154c:	50550513          	addi	a0,a0,1285 # b505 <absimmsh+0xa507>
80001550:	33352593          	slti	a1,a0,819
80001554:	54b0a623          	sw	a1,1356(ra)

80001558 <inst_363>:
80001558:	0000b537          	lui	a0,0xb
8000155c:	50550513          	addi	a0,a0,1285 # b505 <absimmsh+0xa507>
80001560:	66652593          	slti	a1,a0,1638
80001564:	54b0a823          	sw	a1,1360(ra)

80001568 <inst_364>:
80001568:	0000b537          	lui	a0,0xb
8000156c:	50550513          	addi	a0,a0,1285 # b505 <absimmsh+0xa507>
80001570:	fd352593          	slti	a1,a0,-45
80001574:	54b0aa23          	sw	a1,1364(ra)

80001578 <inst_365>:
80001578:	0000b537          	lui	a0,0xb
8000157c:	50550513          	addi	a0,a0,1285 # b505 <absimmsh+0xa507>
80001580:	02d52593          	slti	a1,a0,45
80001584:	54b0ac23          	sw	a1,1368(ra)

80001588 <inst_366>:
80001588:	0000b537          	lui	a0,0xb
8000158c:	50550513          	addi	a0,a0,1285 # b505 <absimmsh+0xa507>
80001590:	00252593          	slti	a1,a0,2
80001594:	54b0ae23          	sw	a1,1372(ra)

80001598 <inst_367>:
80001598:	0000b537          	lui	a0,0xb
8000159c:	50550513          	addi	a0,a0,1285 # b505 <absimmsh+0xa507>
800015a0:	55452593          	slti	a1,a0,1364
800015a4:	56b0a023          	sw	a1,1376(ra)

800015a8 <inst_368>:
800015a8:	0000b537          	lui	a0,0xb
800015ac:	50550513          	addi	a0,a0,1285 # b505 <absimmsh+0xa507>
800015b0:	00052593          	slti	a1,a0,0
800015b4:	56b0a223          	sw	a1,1380(ra)

800015b8 <inst_369>:
800015b8:	0000b537          	lui	a0,0xb
800015bc:	50550513          	addi	a0,a0,1285 # b505 <absimmsh+0xa507>
800015c0:	00452593          	slti	a1,a0,4
800015c4:	56b0a423          	sw	a1,1384(ra)

800015c8 <inst_370>:
800015c8:	0000b537          	lui	a0,0xb
800015cc:	50550513          	addi	a0,a0,1285 # b505 <absimmsh+0xa507>
800015d0:	33252593          	slti	a1,a0,818
800015d4:	56b0a623          	sw	a1,1388(ra)

800015d8 <inst_371>:
800015d8:	0000b537          	lui	a0,0xb
800015dc:	50550513          	addi	a0,a0,1285 # b505 <absimmsh+0xa507>
800015e0:	66552593          	slti	a1,a0,1637
800015e4:	56b0a823          	sw	a1,1392(ra)

800015e8 <inst_372>:
800015e8:	0000b537          	lui	a0,0xb
800015ec:	50550513          	addi	a0,a0,1285 # b505 <absimmsh+0xa507>
800015f0:	02c52593          	slti	a1,a0,44
800015f4:	56b0aa23          	sw	a1,1396(ra)

800015f8 <inst_373>:
800015f8:	0000b537          	lui	a0,0xb
800015fc:	50550513          	addi	a0,a0,1285 # b505 <absimmsh+0xa507>
80001600:	55652593          	slti	a1,a0,1366
80001604:	56b0ac23          	sw	a1,1400(ra)

80001608 <inst_374>:
80001608:	0000b537          	lui	a0,0xb
8000160c:	50550513          	addi	a0,a0,1285 # b505 <absimmsh+0xa507>
80001610:	aab52593          	slti	a1,a0,-1365
80001614:	56b0ae23          	sw	a1,1404(ra)

80001618 <inst_375>:
80001618:	0000b537          	lui	a0,0xb
8000161c:	50550513          	addi	a0,a0,1285 # b505 <absimmsh+0xa507>
80001620:	00652593          	slti	a1,a0,6
80001624:	58b0a023          	sw	a1,1408(ra)

80001628 <inst_376>:
80001628:	0000b537          	lui	a0,0xb
8000162c:	50550513          	addi	a0,a0,1285 # b505 <absimmsh+0xa507>
80001630:	33452593          	slti	a1,a0,820
80001634:	58b0a223          	sw	a1,1412(ra)

80001638 <inst_377>:
80001638:	0000b537          	lui	a0,0xb
8000163c:	50550513          	addi	a0,a0,1285 # b505 <absimmsh+0xa507>
80001640:	66752593          	slti	a1,a0,1639
80001644:	58b0a423          	sw	a1,1416(ra)

80001648 <inst_378>:
80001648:	0000b537          	lui	a0,0xb
8000164c:	50550513          	addi	a0,a0,1285 # b505 <absimmsh+0xa507>
80001650:	fd452593          	slti	a1,a0,-44
80001654:	58b0a623          	sw	a1,1420(ra)

80001658 <inst_379>:
80001658:	0000b537          	lui	a0,0xb
8000165c:	50550513          	addi	a0,a0,1285 # b505 <absimmsh+0xa507>
80001660:	02e52593          	slti	a1,a0,46
80001664:	58b0a823          	sw	a1,1424(ra)

80001668 <inst_380>:
80001668:	00000513          	li	a0,0
8000166c:	fd352593          	slti	a1,a0,-45
80001670:	58b0aa23          	sw	a1,1428(ra)

80001674 <inst_381>:
80001674:	00000513          	li	a0,0
80001678:	02d52593          	slti	a1,a0,45
8000167c:	58b0ac23          	sw	a1,1432(ra)

80001680 <inst_382>:
80001680:	00000513          	li	a0,0
80001684:	55452593          	slti	a1,a0,1364
80001688:	58b0ae23          	sw	a1,1436(ra)

8000168c <inst_383>:
8000168c:	00000513          	li	a0,0
80001690:	00052593          	slti	a1,a0,0
80001694:	5ab0a023          	sw	a1,1440(ra)

80001698 <inst_384>:
80001698:	00000513          	li	a0,0
8000169c:	00452593          	slti	a1,a0,4
800016a0:	5ab0a223          	sw	a1,1444(ra)

800016a4 <inst_385>:
800016a4:	00000513          	li	a0,0
800016a8:	33252593          	slti	a1,a0,818
800016ac:	5ab0a423          	sw	a1,1448(ra)

800016b0 <inst_386>:
800016b0:	00000513          	li	a0,0
800016b4:	66552593          	slti	a1,a0,1637
800016b8:	5ab0a623          	sw	a1,1452(ra)

800016bc <inst_387>:
800016bc:	00000513          	li	a0,0
800016c0:	02c52593          	slti	a1,a0,44
800016c4:	5ab0a823          	sw	a1,1456(ra)

800016c8 <inst_388>:
800016c8:	00000513          	li	a0,0
800016cc:	55652593          	slti	a1,a0,1366
800016d0:	5ab0aa23          	sw	a1,1460(ra)

800016d4 <inst_389>:
800016d4:	00000513          	li	a0,0
800016d8:	aab52593          	slti	a1,a0,-1365
800016dc:	5ab0ac23          	sw	a1,1464(ra)

800016e0 <inst_390>:
800016e0:	00000513          	li	a0,0
800016e4:	00652593          	slti	a1,a0,6
800016e8:	5ab0ae23          	sw	a1,1468(ra)

800016ec <inst_391>:
800016ec:	00000513          	li	a0,0
800016f0:	33452593          	slti	a1,a0,820
800016f4:	5cb0a023          	sw	a1,1472(ra)

800016f8 <inst_392>:
800016f8:	00000513          	li	a0,0
800016fc:	66752593          	slti	a1,a0,1639
80001700:	5cb0a223          	sw	a1,1476(ra)

80001704 <inst_393>:
80001704:	00000513          	li	a0,0
80001708:	fd452593          	slti	a1,a0,-44
8000170c:	5cb0a423          	sw	a1,1480(ra)

80001710 <inst_394>:
80001710:	00000513          	li	a0,0
80001714:	02e52593          	slti	a1,a0,46
80001718:	5cb0a623          	sw	a1,1484(ra)

8000171c <inst_395>:
8000171c:	00400513          	li	a0,4
80001720:	00352593          	slti	a1,a0,3
80001724:	5cb0a823          	sw	a1,1488(ra)

80001728 <inst_396>:
80001728:	00400513          	li	a0,4
8000172c:	aaa52593          	slti	a1,a0,-1366
80001730:	5cb0aa23          	sw	a1,1492(ra)

80001734 <inst_397>:
80001734:	00400513          	li	a0,4
80001738:	00552593          	slti	a1,a0,5
8000173c:	5cb0ac23          	sw	a1,1496(ra)

80001740 <inst_398>:
80001740:	00400513          	li	a0,4
80001744:	33352593          	slti	a1,a0,819
80001748:	5cb0ae23          	sw	a1,1500(ra)

8000174c <inst_399>:
8000174c:	00400513          	li	a0,4
80001750:	66652593          	slti	a1,a0,1638
80001754:	5eb0a023          	sw	a1,1504(ra)

80001758 <inst_400>:
80001758:	00400513          	li	a0,4
8000175c:	fd352593          	slti	a1,a0,-45
80001760:	5eb0a223          	sw	a1,1508(ra)

80001764 <inst_401>:
80001764:	00400513          	li	a0,4
80001768:	02d52593          	slti	a1,a0,45
8000176c:	5eb0a423          	sw	a1,1512(ra)

80001770 <inst_402>:
80001770:	00400513          	li	a0,4
80001774:	00252593          	slti	a1,a0,2
80001778:	5eb0a623          	sw	a1,1516(ra)

8000177c <inst_403>:
8000177c:	00400513          	li	a0,4
80001780:	55452593          	slti	a1,a0,1364
80001784:	5eb0a823          	sw	a1,1520(ra)

80001788 <inst_404>:
80001788:	00400513          	li	a0,4
8000178c:	00052593          	slti	a1,a0,0
80001790:	5eb0aa23          	sw	a1,1524(ra)

80001794 <inst_405>:
80001794:	00400513          	li	a0,4
80001798:	00452593          	slti	a1,a0,4
8000179c:	5eb0ac23          	sw	a1,1528(ra)

800017a0 <inst_406>:
800017a0:	00400513          	li	a0,4
800017a4:	33252593          	slti	a1,a0,818
800017a8:	5eb0ae23          	sw	a1,1532(ra)

800017ac <inst_407>:
800017ac:	00400513          	li	a0,4
800017b0:	66552593          	slti	a1,a0,1637
800017b4:	60b0a023          	sw	a1,1536(ra)

800017b8 <inst_408>:
800017b8:	00400513          	li	a0,4
800017bc:	02c52593          	slti	a1,a0,44
800017c0:	60b0a223          	sw	a1,1540(ra)

800017c4 <inst_409>:
800017c4:	00400513          	li	a0,4
800017c8:	55652593          	slti	a1,a0,1366
800017cc:	60b0a423          	sw	a1,1544(ra)

800017d0 <inst_410>:
800017d0:	00400513          	li	a0,4
800017d4:	aab52593          	slti	a1,a0,-1365
800017d8:	60b0a623          	sw	a1,1548(ra)

800017dc <inst_411>:
800017dc:	00400513          	li	a0,4
800017e0:	00652593          	slti	a1,a0,6
800017e4:	60b0a823          	sw	a1,1552(ra)

800017e8 <inst_412>:
800017e8:	00400513          	li	a0,4
800017ec:	33452593          	slti	a1,a0,820
800017f0:	60b0aa23          	sw	a1,1556(ra)

800017f4 <inst_413>:
800017f4:	00400513          	li	a0,4
800017f8:	66752593          	slti	a1,a0,1639
800017fc:	60b0ac23          	sw	a1,1560(ra)

80001800 <inst_414>:
80001800:	00400513          	li	a0,4
80001804:	fd452593          	slti	a1,a0,-44
80001808:	60b0ae23          	sw	a1,1564(ra)

8000180c <inst_415>:
8000180c:	00400513          	li	a0,4
80001810:	02e52593          	slti	a1,a0,46
80001814:	62b0a023          	sw	a1,1568(ra)

80001818 <inst_416>:
80001818:	33333537          	lui	a0,0x33333
8000181c:	33250513          	addi	a0,a0,818 # 33333332 <absimm+0x33233332>
80001820:	00352593          	slti	a1,a0,3
80001824:	62b0a223          	sw	a1,1572(ra)

80001828 <inst_417>:
80001828:	33333537          	lui	a0,0x33333
8000182c:	33250513          	addi	a0,a0,818 # 33333332 <absimm+0x33233332>
80001830:	55552593          	slti	a1,a0,1365
80001834:	62b0a423          	sw	a1,1576(ra)

80001838 <inst_418>:
80001838:	33333537          	lui	a0,0x33333
8000183c:	33250513          	addi	a0,a0,818 # 33333332 <absimm+0x33233332>
80001840:	aaa52593          	slti	a1,a0,-1366
80001844:	62b0a623          	sw	a1,1580(ra)

80001848 <inst_419>:
80001848:	33333537          	lui	a0,0x33333
8000184c:	33250513          	addi	a0,a0,818 # 33333332 <absimm+0x33233332>
80001850:	00552593          	slti	a1,a0,5
80001854:	62b0a823          	sw	a1,1584(ra)

80001858 <inst_420>:
80001858:	33333537          	lui	a0,0x33333
8000185c:	33250513          	addi	a0,a0,818 # 33333332 <absimm+0x33233332>
80001860:	33352593          	slti	a1,a0,819
80001864:	62b0aa23          	sw	a1,1588(ra)

80001868 <inst_421>:
80001868:	33333537          	lui	a0,0x33333
8000186c:	33250513          	addi	a0,a0,818 # 33333332 <absimm+0x33233332>
80001870:	66652593          	slti	a1,a0,1638
80001874:	62b0ac23          	sw	a1,1592(ra)

80001878 <inst_422>:
80001878:	33333537          	lui	a0,0x33333
8000187c:	33250513          	addi	a0,a0,818 # 33333332 <absimm+0x33233332>
80001880:	fd352593          	slti	a1,a0,-45
80001884:	62b0ae23          	sw	a1,1596(ra)

80001888 <inst_423>:
80001888:	33333537          	lui	a0,0x33333
8000188c:	33250513          	addi	a0,a0,818 # 33333332 <absimm+0x33233332>
80001890:	02d52593          	slti	a1,a0,45
80001894:	64b0a023          	sw	a1,1600(ra)

80001898 <inst_424>:
80001898:	33333537          	lui	a0,0x33333
8000189c:	33250513          	addi	a0,a0,818 # 33333332 <absimm+0x33233332>
800018a0:	00252593          	slti	a1,a0,2
800018a4:	64b0a223          	sw	a1,1604(ra)

800018a8 <inst_425>:
800018a8:	33333537          	lui	a0,0x33333
800018ac:	33250513          	addi	a0,a0,818 # 33333332 <absimm+0x33233332>
800018b0:	55452593          	slti	a1,a0,1364
800018b4:	64b0a423          	sw	a1,1608(ra)

800018b8 <inst_426>:
800018b8:	33333537          	lui	a0,0x33333
800018bc:	33250513          	addi	a0,a0,818 # 33333332 <absimm+0x33233332>
800018c0:	00052593          	slti	a1,a0,0
800018c4:	64b0a623          	sw	a1,1612(ra)

800018c8 <inst_427>:
800018c8:	33333537          	lui	a0,0x33333
800018cc:	33250513          	addi	a0,a0,818 # 33333332 <absimm+0x33233332>
800018d0:	00452593          	slti	a1,a0,4
800018d4:	64b0a823          	sw	a1,1616(ra)

800018d8 <inst_428>:
800018d8:	33333537          	lui	a0,0x33333
800018dc:	33250513          	addi	a0,a0,818 # 33333332 <absimm+0x33233332>
800018e0:	33252593          	slti	a1,a0,818
800018e4:	64b0aa23          	sw	a1,1620(ra)

800018e8 <inst_429>:
800018e8:	33333537          	lui	a0,0x33333
800018ec:	33250513          	addi	a0,a0,818 # 33333332 <absimm+0x33233332>
800018f0:	66552593          	slti	a1,a0,1637
800018f4:	64b0ac23          	sw	a1,1624(ra)

800018f8 <inst_430>:
800018f8:	33333537          	lui	a0,0x33333
800018fc:	33250513          	addi	a0,a0,818 # 33333332 <absimm+0x33233332>
80001900:	02c52593          	slti	a1,a0,44
80001904:	64b0ae23          	sw	a1,1628(ra)

80001908 <inst_431>:
80001908:	33333537          	lui	a0,0x33333
8000190c:	33250513          	addi	a0,a0,818 # 33333332 <absimm+0x33233332>
80001910:	55652593          	slti	a1,a0,1366
80001914:	66b0a023          	sw	a1,1632(ra)

80001918 <inst_432>:
80001918:	33333537          	lui	a0,0x33333
8000191c:	33250513          	addi	a0,a0,818 # 33333332 <absimm+0x33233332>
80001920:	aab52593          	slti	a1,a0,-1365
80001924:	66b0a223          	sw	a1,1636(ra)

80001928 <inst_433>:
80001928:	33333537          	lui	a0,0x33333
8000192c:	33250513          	addi	a0,a0,818 # 33333332 <absimm+0x33233332>
80001930:	00652593          	slti	a1,a0,6
80001934:	66b0a423          	sw	a1,1640(ra)

80001938 <inst_434>:
80001938:	33333537          	lui	a0,0x33333
8000193c:	33250513          	addi	a0,a0,818 # 33333332 <absimm+0x33233332>
80001940:	33452593          	slti	a1,a0,820
80001944:	66b0a623          	sw	a1,1644(ra)

80001948 <inst_435>:
80001948:	33333537          	lui	a0,0x33333
8000194c:	33250513          	addi	a0,a0,818 # 33333332 <absimm+0x33233332>
80001950:	66752593          	slti	a1,a0,1639
80001954:	66b0a823          	sw	a1,1648(ra)

80001958 <inst_436>:
80001958:	33333537          	lui	a0,0x33333
8000195c:	33250513          	addi	a0,a0,818 # 33333332 <absimm+0x33233332>
80001960:	fd452593          	slti	a1,a0,-44
80001964:	66b0aa23          	sw	a1,1652(ra)

80001968 <inst_437>:
80001968:	33333537          	lui	a0,0x33333
8000196c:	33250513          	addi	a0,a0,818 # 33333332 <absimm+0x33233332>
80001970:	02e52593          	slti	a1,a0,46
80001974:	66b0ac23          	sw	a1,1656(ra)

80001978 <inst_438>:
80001978:	66666537          	lui	a0,0x66666
8000197c:	66550513          	addi	a0,a0,1637 # 66666665 <absimm+0x66566665>
80001980:	00352593          	slti	a1,a0,3
80001984:	66b0ae23          	sw	a1,1660(ra)

80001988 <inst_439>:
80001988:	66666537          	lui	a0,0x66666
8000198c:	66550513          	addi	a0,a0,1637 # 66666665 <absimm+0x66566665>
80001990:	55552593          	slti	a1,a0,1365
80001994:	68b0a023          	sw	a1,1664(ra)

80001998 <inst_440>:
80001998:	66666537          	lui	a0,0x66666
8000199c:	66550513          	addi	a0,a0,1637 # 66666665 <absimm+0x66566665>
800019a0:	aaa52593          	slti	a1,a0,-1366
800019a4:	68b0a223          	sw	a1,1668(ra)

800019a8 <inst_441>:
800019a8:	66666537          	lui	a0,0x66666
800019ac:	66550513          	addi	a0,a0,1637 # 66666665 <absimm+0x66566665>
800019b0:	00552593          	slti	a1,a0,5
800019b4:	68b0a423          	sw	a1,1672(ra)

800019b8 <inst_442>:
800019b8:	66666537          	lui	a0,0x66666
800019bc:	66550513          	addi	a0,a0,1637 # 66666665 <absimm+0x66566665>
800019c0:	33352593          	slti	a1,a0,819
800019c4:	68b0a623          	sw	a1,1676(ra)

800019c8 <inst_443>:
800019c8:	66666537          	lui	a0,0x66666
800019cc:	66550513          	addi	a0,a0,1637 # 66666665 <absimm+0x66566665>
800019d0:	66652593          	slti	a1,a0,1638
800019d4:	68b0a823          	sw	a1,1680(ra)

800019d8 <inst_444>:
800019d8:	66666537          	lui	a0,0x66666
800019dc:	66550513          	addi	a0,a0,1637 # 66666665 <absimm+0x66566665>
800019e0:	fd352593          	slti	a1,a0,-45
800019e4:	68b0aa23          	sw	a1,1684(ra)

800019e8 <inst_445>:
800019e8:	66666537          	lui	a0,0x66666
800019ec:	66550513          	addi	a0,a0,1637 # 66666665 <absimm+0x66566665>
800019f0:	02d52593          	slti	a1,a0,45
800019f4:	68b0ac23          	sw	a1,1688(ra)

800019f8 <inst_446>:
800019f8:	66666537          	lui	a0,0x66666
800019fc:	66550513          	addi	a0,a0,1637 # 66666665 <absimm+0x66566665>
80001a00:	00252593          	slti	a1,a0,2
80001a04:	68b0ae23          	sw	a1,1692(ra)

80001a08 <inst_447>:
80001a08:	66666537          	lui	a0,0x66666
80001a0c:	66550513          	addi	a0,a0,1637 # 66666665 <absimm+0x66566665>
80001a10:	55452593          	slti	a1,a0,1364
80001a14:	6ab0a023          	sw	a1,1696(ra)

80001a18 <inst_448>:
80001a18:	66666537          	lui	a0,0x66666
80001a1c:	66550513          	addi	a0,a0,1637 # 66666665 <absimm+0x66566665>
80001a20:	00052593          	slti	a1,a0,0
80001a24:	6ab0a223          	sw	a1,1700(ra)

80001a28 <inst_449>:
80001a28:	66666537          	lui	a0,0x66666
80001a2c:	66550513          	addi	a0,a0,1637 # 66666665 <absimm+0x66566665>
80001a30:	00452593          	slti	a1,a0,4
80001a34:	6ab0a423          	sw	a1,1704(ra)

80001a38 <inst_450>:
80001a38:	66666537          	lui	a0,0x66666
80001a3c:	66550513          	addi	a0,a0,1637 # 66666665 <absimm+0x66566665>
80001a40:	33252593          	slti	a1,a0,818
80001a44:	6ab0a623          	sw	a1,1708(ra)

80001a48 <inst_451>:
80001a48:	66666537          	lui	a0,0x66666
80001a4c:	66550513          	addi	a0,a0,1637 # 66666665 <absimm+0x66566665>
80001a50:	66552593          	slti	a1,a0,1637
80001a54:	6ab0a823          	sw	a1,1712(ra)

80001a58 <inst_452>:
80001a58:	66666537          	lui	a0,0x66666
80001a5c:	66550513          	addi	a0,a0,1637 # 66666665 <absimm+0x66566665>
80001a60:	02c52593          	slti	a1,a0,44
80001a64:	6ab0aa23          	sw	a1,1716(ra)

80001a68 <inst_453>:
80001a68:	66666537          	lui	a0,0x66666
80001a6c:	66550513          	addi	a0,a0,1637 # 66666665 <absimm+0x66566665>
80001a70:	55652593          	slti	a1,a0,1366
80001a74:	6ab0ac23          	sw	a1,1720(ra)

80001a78 <inst_454>:
80001a78:	66666537          	lui	a0,0x66666
80001a7c:	66550513          	addi	a0,a0,1637 # 66666665 <absimm+0x66566665>
80001a80:	aab52593          	slti	a1,a0,-1365
80001a84:	6ab0ae23          	sw	a1,1724(ra)

80001a88 <inst_455>:
80001a88:	66666537          	lui	a0,0x66666
80001a8c:	66550513          	addi	a0,a0,1637 # 66666665 <absimm+0x66566665>
80001a90:	00652593          	slti	a1,a0,6
80001a94:	6cb0a023          	sw	a1,1728(ra)

80001a98 <inst_456>:
80001a98:	66666537          	lui	a0,0x66666
80001a9c:	66550513          	addi	a0,a0,1637 # 66666665 <absimm+0x66566665>
80001aa0:	33452593          	slti	a1,a0,820
80001aa4:	6cb0a223          	sw	a1,1732(ra)

80001aa8 <inst_457>:
80001aa8:	66666537          	lui	a0,0x66666
80001aac:	66550513          	addi	a0,a0,1637 # 66666665 <absimm+0x66566665>
80001ab0:	66752593          	slti	a1,a0,1639
80001ab4:	6cb0a423          	sw	a1,1736(ra)

80001ab8 <inst_458>:
80001ab8:	66666537          	lui	a0,0x66666
80001abc:	66550513          	addi	a0,a0,1637 # 66666665 <absimm+0x66566665>
80001ac0:	fd452593          	slti	a1,a0,-44
80001ac4:	6cb0a623          	sw	a1,1740(ra)

80001ac8 <inst_459>:
80001ac8:	66666537          	lui	a0,0x66666
80001acc:	66550513          	addi	a0,a0,1637 # 66666665 <absimm+0x66566665>
80001ad0:	02e52593          	slti	a1,a0,46
80001ad4:	6cb0a823          	sw	a1,1744(ra)

80001ad8 <inst_460>:
80001ad8:	0000b537          	lui	a0,0xb
80001adc:	50350513          	addi	a0,a0,1283 # b503 <absimmsh+0xa505>
80001ae0:	00352593          	slti	a1,a0,3
80001ae4:	6cb0aa23          	sw	a1,1748(ra)

80001ae8 <inst_461>:
80001ae8:	0000b537          	lui	a0,0xb
80001aec:	50350513          	addi	a0,a0,1283 # b503 <absimmsh+0xa505>
80001af0:	55552593          	slti	a1,a0,1365
80001af4:	6cb0ac23          	sw	a1,1752(ra)

80001af8 <inst_462>:
80001af8:	0000b537          	lui	a0,0xb
80001afc:	50350513          	addi	a0,a0,1283 # b503 <absimmsh+0xa505>
80001b00:	aaa52593          	slti	a1,a0,-1366
80001b04:	6cb0ae23          	sw	a1,1756(ra)

80001b08 <inst_463>:
80001b08:	0000b537          	lui	a0,0xb
80001b0c:	50350513          	addi	a0,a0,1283 # b503 <absimmsh+0xa505>
80001b10:	00552593          	slti	a1,a0,5
80001b14:	6eb0a023          	sw	a1,1760(ra)

80001b18 <inst_464>:
80001b18:	0000b537          	lui	a0,0xb
80001b1c:	50350513          	addi	a0,a0,1283 # b503 <absimmsh+0xa505>
80001b20:	33352593          	slti	a1,a0,819
80001b24:	6eb0a223          	sw	a1,1764(ra)

80001b28 <inst_465>:
80001b28:	0000b537          	lui	a0,0xb
80001b2c:	50350513          	addi	a0,a0,1283 # b503 <absimmsh+0xa505>
80001b30:	66652593          	slti	a1,a0,1638
80001b34:	6eb0a423          	sw	a1,1768(ra)

80001b38 <inst_466>:
80001b38:	0000b537          	lui	a0,0xb
80001b3c:	50350513          	addi	a0,a0,1283 # b503 <absimmsh+0xa505>
80001b40:	fd352593          	slti	a1,a0,-45
80001b44:	6eb0a623          	sw	a1,1772(ra)

80001b48 <inst_467>:
80001b48:	0000b537          	lui	a0,0xb
80001b4c:	50350513          	addi	a0,a0,1283 # b503 <absimmsh+0xa505>
80001b50:	02d52593          	slti	a1,a0,45
80001b54:	6eb0a823          	sw	a1,1776(ra)

80001b58 <inst_468>:
80001b58:	0000b537          	lui	a0,0xb
80001b5c:	50350513          	addi	a0,a0,1283 # b503 <absimmsh+0xa505>
80001b60:	00252593          	slti	a1,a0,2
80001b64:	6eb0aa23          	sw	a1,1780(ra)

80001b68 <inst_469>:
80001b68:	0000b537          	lui	a0,0xb
80001b6c:	50350513          	addi	a0,a0,1283 # b503 <absimmsh+0xa505>
80001b70:	55452593          	slti	a1,a0,1364
80001b74:	6eb0ac23          	sw	a1,1784(ra)

80001b78 <inst_470>:
80001b78:	0000b537          	lui	a0,0xb
80001b7c:	50350513          	addi	a0,a0,1283 # b503 <absimmsh+0xa505>
80001b80:	00052593          	slti	a1,a0,0
80001b84:	6eb0ae23          	sw	a1,1788(ra)

80001b88 <inst_471>:
80001b88:	0000b537          	lui	a0,0xb
80001b8c:	50350513          	addi	a0,a0,1283 # b503 <absimmsh+0xa505>
80001b90:	00452593          	slti	a1,a0,4
80001b94:	70b0a023          	sw	a1,1792(ra)

80001b98 <inst_472>:
80001b98:	0000b537          	lui	a0,0xb
80001b9c:	50350513          	addi	a0,a0,1283 # b503 <absimmsh+0xa505>
80001ba0:	33252593          	slti	a1,a0,818
80001ba4:	70b0a223          	sw	a1,1796(ra)

80001ba8 <inst_473>:
80001ba8:	0000b537          	lui	a0,0xb
80001bac:	50350513          	addi	a0,a0,1283 # b503 <absimmsh+0xa505>
80001bb0:	66552593          	slti	a1,a0,1637
80001bb4:	70b0a423          	sw	a1,1800(ra)

80001bb8 <inst_474>:
80001bb8:	0000b537          	lui	a0,0xb
80001bbc:	50350513          	addi	a0,a0,1283 # b503 <absimmsh+0xa505>
80001bc0:	02c52593          	slti	a1,a0,44
80001bc4:	70b0a623          	sw	a1,1804(ra)

80001bc8 <inst_475>:
80001bc8:	0000b537          	lui	a0,0xb
80001bcc:	50350513          	addi	a0,a0,1283 # b503 <absimmsh+0xa505>
80001bd0:	55652593          	slti	a1,a0,1366
80001bd4:	70b0a823          	sw	a1,1808(ra)

80001bd8 <inst_476>:
80001bd8:	0000b537          	lui	a0,0xb
80001bdc:	50350513          	addi	a0,a0,1283 # b503 <absimmsh+0xa505>
80001be0:	aab52593          	slti	a1,a0,-1365
80001be4:	70b0aa23          	sw	a1,1812(ra)

80001be8 <inst_477>:
80001be8:	0000b537          	lui	a0,0xb
80001bec:	50350513          	addi	a0,a0,1283 # b503 <absimmsh+0xa505>
80001bf0:	00652593          	slti	a1,a0,6
80001bf4:	70b0ac23          	sw	a1,1816(ra)

80001bf8 <inst_478>:
80001bf8:	0000b537          	lui	a0,0xb
80001bfc:	50350513          	addi	a0,a0,1283 # b503 <absimmsh+0xa505>
80001c00:	33452593          	slti	a1,a0,820
80001c04:	70b0ae23          	sw	a1,1820(ra)

80001c08 <inst_479>:
80001c08:	0000b537          	lui	a0,0xb
80001c0c:	50350513          	addi	a0,a0,1283 # b503 <absimmsh+0xa505>
80001c10:	66752593          	slti	a1,a0,1639
80001c14:	72b0a023          	sw	a1,1824(ra)

80001c18 <inst_480>:
80001c18:	0000b537          	lui	a0,0xb
80001c1c:	50350513          	addi	a0,a0,1283 # b503 <absimmsh+0xa505>
80001c20:	fd452593          	slti	a1,a0,-44
80001c24:	72b0a223          	sw	a1,1828(ra)

80001c28 <inst_481>:
80001c28:	0000b537          	lui	a0,0xb
80001c2c:	50350513          	addi	a0,a0,1283 # b503 <absimmsh+0xa505>
80001c30:	02e52593          	slti	a1,a0,46
80001c34:	72b0a423          	sw	a1,1832(ra)

80001c38 <inst_482>:
80001c38:	55555537          	lui	a0,0x55555
80001c3c:	55650513          	addi	a0,a0,1366 # 55555556 <absimm+0x55455556>
80001c40:	00352593          	slti	a1,a0,3
80001c44:	72b0a623          	sw	a1,1836(ra)

80001c48 <inst_483>:
80001c48:	55555537          	lui	a0,0x55555
80001c4c:	55650513          	addi	a0,a0,1366 # 55555556 <absimm+0x55455556>
80001c50:	55552593          	slti	a1,a0,1365
80001c54:	72b0a823          	sw	a1,1840(ra)

80001c58 <inst_484>:
80001c58:	55555537          	lui	a0,0x55555
80001c5c:	55650513          	addi	a0,a0,1366 # 55555556 <absimm+0x55455556>
80001c60:	aaa52593          	slti	a1,a0,-1366
80001c64:	72b0aa23          	sw	a1,1844(ra)

80001c68 <inst_485>:
80001c68:	55555537          	lui	a0,0x55555
80001c6c:	55650513          	addi	a0,a0,1366 # 55555556 <absimm+0x55455556>
80001c70:	00552593          	slti	a1,a0,5
80001c74:	72b0ac23          	sw	a1,1848(ra)

80001c78 <inst_486>:
80001c78:	55555537          	lui	a0,0x55555
80001c7c:	55650513          	addi	a0,a0,1366 # 55555556 <absimm+0x55455556>
80001c80:	33352593          	slti	a1,a0,819
80001c84:	72b0ae23          	sw	a1,1852(ra)

80001c88 <inst_487>:
80001c88:	55555537          	lui	a0,0x55555
80001c8c:	55650513          	addi	a0,a0,1366 # 55555556 <absimm+0x55455556>
80001c90:	66652593          	slti	a1,a0,1638
80001c94:	74b0a023          	sw	a1,1856(ra)

80001c98 <inst_488>:
80001c98:	55555537          	lui	a0,0x55555
80001c9c:	55650513          	addi	a0,a0,1366 # 55555556 <absimm+0x55455556>
80001ca0:	fd352593          	slti	a1,a0,-45
80001ca4:	74b0a223          	sw	a1,1860(ra)

80001ca8 <inst_489>:
80001ca8:	55555537          	lui	a0,0x55555
80001cac:	55650513          	addi	a0,a0,1366 # 55555556 <absimm+0x55455556>
80001cb0:	02d52593          	slti	a1,a0,45
80001cb4:	74b0a423          	sw	a1,1864(ra)

80001cb8 <inst_490>:
80001cb8:	55555537          	lui	a0,0x55555
80001cbc:	55650513          	addi	a0,a0,1366 # 55555556 <absimm+0x55455556>
80001cc0:	00252593          	slti	a1,a0,2
80001cc4:	74b0a623          	sw	a1,1868(ra)

80001cc8 <inst_491>:
80001cc8:	55555537          	lui	a0,0x55555
80001ccc:	55650513          	addi	a0,a0,1366 # 55555556 <absimm+0x55455556>
80001cd0:	55452593          	slti	a1,a0,1364
80001cd4:	74b0a823          	sw	a1,1872(ra)

80001cd8 <inst_492>:
80001cd8:	55555537          	lui	a0,0x55555
80001cdc:	55650513          	addi	a0,a0,1366 # 55555556 <absimm+0x55455556>
80001ce0:	00052593          	slti	a1,a0,0
80001ce4:	74b0aa23          	sw	a1,1876(ra)

80001ce8 <inst_493>:
80001ce8:	55555537          	lui	a0,0x55555
80001cec:	55650513          	addi	a0,a0,1366 # 55555556 <absimm+0x55455556>
80001cf0:	00452593          	slti	a1,a0,4
80001cf4:	74b0ac23          	sw	a1,1880(ra)

80001cf8 <inst_494>:
80001cf8:	55555537          	lui	a0,0x55555
80001cfc:	55650513          	addi	a0,a0,1366 # 55555556 <absimm+0x55455556>
80001d00:	33252593          	slti	a1,a0,818
80001d04:	74b0ae23          	sw	a1,1884(ra)

80001d08 <inst_495>:
80001d08:	55555537          	lui	a0,0x55555
80001d0c:	55650513          	addi	a0,a0,1366 # 55555556 <absimm+0x55455556>
80001d10:	66552593          	slti	a1,a0,1637
80001d14:	76b0a023          	sw	a1,1888(ra)

80001d18 <inst_496>:
80001d18:	55555537          	lui	a0,0x55555
80001d1c:	55650513          	addi	a0,a0,1366 # 55555556 <absimm+0x55455556>
80001d20:	02c52593          	slti	a1,a0,44
80001d24:	76b0a223          	sw	a1,1892(ra)

80001d28 <inst_497>:
80001d28:	55555537          	lui	a0,0x55555
80001d2c:	55650513          	addi	a0,a0,1366 # 55555556 <absimm+0x55455556>
80001d30:	55652593          	slti	a1,a0,1366
80001d34:	76b0a423          	sw	a1,1896(ra)

80001d38 <inst_498>:
80001d38:	55555537          	lui	a0,0x55555
80001d3c:	55650513          	addi	a0,a0,1366 # 55555556 <absimm+0x55455556>
80001d40:	aab52593          	slti	a1,a0,-1365
80001d44:	76b0a623          	sw	a1,1900(ra)

80001d48 <inst_499>:
80001d48:	55555537          	lui	a0,0x55555
80001d4c:	55650513          	addi	a0,a0,1366 # 55555556 <absimm+0x55455556>
80001d50:	00652593          	slti	a1,a0,6
80001d54:	76b0a823          	sw	a1,1904(ra)

80001d58 <inst_500>:
80001d58:	55555537          	lui	a0,0x55555
80001d5c:	55650513          	addi	a0,a0,1366 # 55555556 <absimm+0x55455556>
80001d60:	33452593          	slti	a1,a0,820
80001d64:	76b0aa23          	sw	a1,1908(ra)

80001d68 <inst_501>:
80001d68:	55555537          	lui	a0,0x55555
80001d6c:	55650513          	addi	a0,a0,1366 # 55555556 <absimm+0x55455556>
80001d70:	66752593          	slti	a1,a0,1639
80001d74:	76b0ac23          	sw	a1,1912(ra)

80001d78 <inst_502>:
80001d78:	55555537          	lui	a0,0x55555
80001d7c:	55650513          	addi	a0,a0,1366 # 55555556 <absimm+0x55455556>
80001d80:	fd452593          	slti	a1,a0,-44
80001d84:	76b0ae23          	sw	a1,1916(ra)

80001d88 <inst_503>:
80001d88:	55555537          	lui	a0,0x55555
80001d8c:	55650513          	addi	a0,a0,1366 # 55555556 <absimm+0x55455556>
80001d90:	02e52593          	slti	a1,a0,46
80001d94:	78b0a023          	sw	a1,1920(ra)

80001d98 <inst_504>:
80001d98:	aaaab537          	lui	a0,0xaaaab
80001d9c:	aab50513          	addi	a0,a0,-1365 # aaaaaaab <imm12+0xaaaaaaac>
80001da0:	00352593          	slti	a1,a0,3
80001da4:	78b0a223          	sw	a1,1924(ra)

80001da8 <inst_505>:
80001da8:	aaaab537          	lui	a0,0xaaaab
80001dac:	aab50513          	addi	a0,a0,-1365 # aaaaaaab <imm12+0xaaaaaaac>
80001db0:	55552593          	slti	a1,a0,1365
80001db4:	78b0a423          	sw	a1,1928(ra)

80001db8 <inst_506>:
80001db8:	aaaab537          	lui	a0,0xaaaab
80001dbc:	aab50513          	addi	a0,a0,-1365 # aaaaaaab <imm12+0xaaaaaaac>
80001dc0:	aaa52593          	slti	a1,a0,-1366
80001dc4:	78b0a623          	sw	a1,1932(ra)

80001dc8 <inst_507>:
80001dc8:	aaaab537          	lui	a0,0xaaaab
80001dcc:	aab50513          	addi	a0,a0,-1365 # aaaaaaab <imm12+0xaaaaaaac>
80001dd0:	00552593          	slti	a1,a0,5
80001dd4:	78b0a823          	sw	a1,1936(ra)

80001dd8 <inst_508>:
80001dd8:	aaaab537          	lui	a0,0xaaaab
80001ddc:	aab50513          	addi	a0,a0,-1365 # aaaaaaab <imm12+0xaaaaaaac>
80001de0:	33352593          	slti	a1,a0,819
80001de4:	78b0aa23          	sw	a1,1940(ra)

80001de8 <inst_509>:
80001de8:	aaaab537          	lui	a0,0xaaaab
80001dec:	aab50513          	addi	a0,a0,-1365 # aaaaaaab <imm12+0xaaaaaaac>
80001df0:	66652593          	slti	a1,a0,1638
80001df4:	78b0ac23          	sw	a1,1944(ra)

80001df8 <inst_510>:
80001df8:	aaaab537          	lui	a0,0xaaaab
80001dfc:	aab50513          	addi	a0,a0,-1365 # aaaaaaab <imm12+0xaaaaaaac>
80001e00:	fd352593          	slti	a1,a0,-45
80001e04:	78b0ae23          	sw	a1,1948(ra)

80001e08 <inst_511>:
80001e08:	aaaab537          	lui	a0,0xaaaab
80001e0c:	aab50513          	addi	a0,a0,-1365 # aaaaaaab <imm12+0xaaaaaaac>
80001e10:	02d52593          	slti	a1,a0,45
80001e14:	7ab0a023          	sw	a1,1952(ra)

80001e18 <inst_512>:
80001e18:	aaaab537          	lui	a0,0xaaaab
80001e1c:	aab50513          	addi	a0,a0,-1365 # aaaaaaab <imm12+0xaaaaaaac>
80001e20:	00252593          	slti	a1,a0,2
80001e24:	7ab0a223          	sw	a1,1956(ra)

80001e28 <inst_513>:
80001e28:	aaaab537          	lui	a0,0xaaaab
80001e2c:	aab50513          	addi	a0,a0,-1365 # aaaaaaab <imm12+0xaaaaaaac>
80001e30:	55452593          	slti	a1,a0,1364
80001e34:	7ab0a423          	sw	a1,1960(ra)

80001e38 <inst_514>:
80001e38:	aaaab537          	lui	a0,0xaaaab
80001e3c:	aab50513          	addi	a0,a0,-1365 # aaaaaaab <imm12+0xaaaaaaac>
80001e40:	00052593          	slti	a1,a0,0
80001e44:	7ab0a623          	sw	a1,1964(ra)

80001e48 <inst_515>:
80001e48:	aaaab537          	lui	a0,0xaaaab
80001e4c:	aab50513          	addi	a0,a0,-1365 # aaaaaaab <imm12+0xaaaaaaac>
80001e50:	00452593          	slti	a1,a0,4
80001e54:	7ab0a823          	sw	a1,1968(ra)

80001e58 <inst_516>:
80001e58:	aaaab537          	lui	a0,0xaaaab
80001e5c:	aab50513          	addi	a0,a0,-1365 # aaaaaaab <imm12+0xaaaaaaac>
80001e60:	33252593          	slti	a1,a0,818
80001e64:	7ab0aa23          	sw	a1,1972(ra)

80001e68 <inst_517>:
80001e68:	aaaab537          	lui	a0,0xaaaab
80001e6c:	aab50513          	addi	a0,a0,-1365 # aaaaaaab <imm12+0xaaaaaaac>
80001e70:	66552593          	slti	a1,a0,1637
80001e74:	7ab0ac23          	sw	a1,1976(ra)

80001e78 <inst_518>:
80001e78:	aaaab537          	lui	a0,0xaaaab
80001e7c:	aab50513          	addi	a0,a0,-1365 # aaaaaaab <imm12+0xaaaaaaac>
80001e80:	02c52593          	slti	a1,a0,44
80001e84:	7ab0ae23          	sw	a1,1980(ra)

80001e88 <inst_519>:
80001e88:	aaaab537          	lui	a0,0xaaaab
80001e8c:	aab50513          	addi	a0,a0,-1365 # aaaaaaab <imm12+0xaaaaaaac>
80001e90:	55652593          	slti	a1,a0,1366
80001e94:	7cb0a023          	sw	a1,1984(ra)

80001e98 <inst_520>:
80001e98:	aaaab537          	lui	a0,0xaaaab
80001e9c:	aab50513          	addi	a0,a0,-1365 # aaaaaaab <imm12+0xaaaaaaac>
80001ea0:	aab52593          	slti	a1,a0,-1365
80001ea4:	7cb0a223          	sw	a1,1988(ra)

80001ea8 <inst_521>:
80001ea8:	aaaab537          	lui	a0,0xaaaab
80001eac:	aab50513          	addi	a0,a0,-1365 # aaaaaaab <imm12+0xaaaaaaac>
80001eb0:	00652593          	slti	a1,a0,6
80001eb4:	7cb0a423          	sw	a1,1992(ra)

80001eb8 <inst_522>:
80001eb8:	aaaab537          	lui	a0,0xaaaab
80001ebc:	aab50513          	addi	a0,a0,-1365 # aaaaaaab <imm12+0xaaaaaaac>
80001ec0:	33452593          	slti	a1,a0,820
80001ec4:	7cb0a623          	sw	a1,1996(ra)

80001ec8 <inst_523>:
80001ec8:	aaaab537          	lui	a0,0xaaaab
80001ecc:	aab50513          	addi	a0,a0,-1365 # aaaaaaab <imm12+0xaaaaaaac>
80001ed0:	66752593          	slti	a1,a0,1639
80001ed4:	7cb0a823          	sw	a1,2000(ra)

80001ed8 <inst_524>:
80001ed8:	aaaab537          	lui	a0,0xaaaab
80001edc:	aab50513          	addi	a0,a0,-1365 # aaaaaaab <imm12+0xaaaaaaac>
80001ee0:	fd452593          	slti	a1,a0,-44
80001ee4:	7cb0aa23          	sw	a1,2004(ra)

80001ee8 <inst_525>:
80001ee8:	aaaab537          	lui	a0,0xaaaab
80001eec:	aab50513          	addi	a0,a0,-1365 # aaaaaaab <imm12+0xaaaaaaac>
80001ef0:	02e52593          	slti	a1,a0,46
80001ef4:	7cb0ac23          	sw	a1,2008(ra)

80001ef8 <inst_526>:
80001ef8:	00600513          	li	a0,6
80001efc:	00352593          	slti	a1,a0,3
80001f00:	7cb0ae23          	sw	a1,2012(ra)

80001f04 <inst_527>:
80001f04:	00600513          	li	a0,6
80001f08:	55552593          	slti	a1,a0,1365
80001f0c:	7eb0a023          	sw	a1,2016(ra)

80001f10 <inst_528>:
80001f10:	00600513          	li	a0,6
80001f14:	aaa52593          	slti	a1,a0,-1366
80001f18:	7eb0a223          	sw	a1,2020(ra)

80001f1c <inst_529>:
80001f1c:	00600513          	li	a0,6
80001f20:	00552593          	slti	a1,a0,5
80001f24:	7eb0a423          	sw	a1,2024(ra)

80001f28 <inst_530>:
80001f28:	00600513          	li	a0,6
80001f2c:	33352593          	slti	a1,a0,819
80001f30:	7eb0a623          	sw	a1,2028(ra)

80001f34 <inst_531>:
80001f34:	00600513          	li	a0,6
80001f38:	66652593          	slti	a1,a0,1638
80001f3c:	7eb0a823          	sw	a1,2032(ra)

80001f40 <inst_532>:
80001f40:	00600513          	li	a0,6
80001f44:	fd352593          	slti	a1,a0,-45
80001f48:	7eb0aa23          	sw	a1,2036(ra)

80001f4c <inst_533>:
80001f4c:	00600513          	li	a0,6
80001f50:	02d52593          	slti	a1,a0,45
80001f54:	7eb0ac23          	sw	a1,2040(ra)

80001f58 <inst_534>:
80001f58:	00600513          	li	a0,6
80001f5c:	00252593          	slti	a1,a0,2
80001f60:	7eb0ae23          	sw	a1,2044(ra)
80001f64:	00004097          	auipc	ra,0x4
80001f68:	a0c08093          	addi	ra,ra,-1524 # 80005970 <signature_x1_1>

80001f6c <inst_535>:
80001f6c:	00600513          	li	a0,6
80001f70:	55452593          	slti	a1,a0,1364
80001f74:	00b0a023          	sw	a1,0(ra)

80001f78 <inst_536>:
80001f78:	00600513          	li	a0,6
80001f7c:	00052593          	slti	a1,a0,0
80001f80:	00b0a223          	sw	a1,4(ra)

80001f84 <inst_537>:
80001f84:	00600513          	li	a0,6
80001f88:	00452593          	slti	a1,a0,4
80001f8c:	00b0a423          	sw	a1,8(ra)

80001f90 <inst_538>:
80001f90:	00600513          	li	a0,6
80001f94:	33252593          	slti	a1,a0,818
80001f98:	00b0a623          	sw	a1,12(ra)

80001f9c <inst_539>:
80001f9c:	00600513          	li	a0,6
80001fa0:	66552593          	slti	a1,a0,1637
80001fa4:	00b0a823          	sw	a1,16(ra)

80001fa8 <inst_540>:
80001fa8:	00600513          	li	a0,6
80001fac:	02c52593          	slti	a1,a0,44
80001fb0:	00b0aa23          	sw	a1,20(ra)

80001fb4 <inst_541>:
80001fb4:	00600513          	li	a0,6
80001fb8:	55652593          	slti	a1,a0,1366
80001fbc:	00b0ac23          	sw	a1,24(ra)

80001fc0 <inst_542>:
80001fc0:	00600513          	li	a0,6
80001fc4:	aab52593          	slti	a1,a0,-1365
80001fc8:	00b0ae23          	sw	a1,28(ra)

80001fcc <inst_543>:
80001fcc:	00600513          	li	a0,6
80001fd0:	00652593          	slti	a1,a0,6
80001fd4:	02b0a023          	sw	a1,32(ra)

80001fd8 <inst_544>:
80001fd8:	00600513          	li	a0,6
80001fdc:	33452593          	slti	a1,a0,820
80001fe0:	02b0a223          	sw	a1,36(ra)

80001fe4 <inst_545>:
80001fe4:	00600513          	li	a0,6
80001fe8:	66752593          	slti	a1,a0,1639
80001fec:	02b0a423          	sw	a1,40(ra)

80001ff0 <inst_546>:
80001ff0:	00600513          	li	a0,6
80001ff4:	fd452593          	slti	a1,a0,-44
80001ff8:	02b0a623          	sw	a1,44(ra)

80001ffc <inst_547>:
80001ffc:	00600513          	li	a0,6
80002000:	02e52593          	slti	a1,a0,46
80002004:	02b0a823          	sw	a1,48(ra)

80002008 <inst_548>:
80002008:	33333537          	lui	a0,0x33333
8000200c:	33450513          	addi	a0,a0,820 # 33333334 <absimm+0x33233334>
80002010:	00352593          	slti	a1,a0,3
80002014:	02b0aa23          	sw	a1,52(ra)

80002018 <inst_549>:
80002018:	33333537          	lui	a0,0x33333
8000201c:	33450513          	addi	a0,a0,820 # 33333334 <absimm+0x33233334>
80002020:	55552593          	slti	a1,a0,1365
80002024:	02b0ac23          	sw	a1,56(ra)

80002028 <inst_550>:
80002028:	33333537          	lui	a0,0x33333
8000202c:	33450513          	addi	a0,a0,820 # 33333334 <absimm+0x33233334>
80002030:	aaa52593          	slti	a1,a0,-1366
80002034:	02b0ae23          	sw	a1,60(ra)

80002038 <inst_551>:
80002038:	33333537          	lui	a0,0x33333
8000203c:	33450513          	addi	a0,a0,820 # 33333334 <absimm+0x33233334>
80002040:	00552593          	slti	a1,a0,5
80002044:	04b0a023          	sw	a1,64(ra)

80002048 <inst_552>:
80002048:	33333537          	lui	a0,0x33333
8000204c:	33450513          	addi	a0,a0,820 # 33333334 <absimm+0x33233334>
80002050:	33352593          	slti	a1,a0,819
80002054:	04b0a223          	sw	a1,68(ra)

80002058 <inst_553>:
80002058:	33333537          	lui	a0,0x33333
8000205c:	33450513          	addi	a0,a0,820 # 33333334 <absimm+0x33233334>
80002060:	66652593          	slti	a1,a0,1638
80002064:	04b0a423          	sw	a1,72(ra)

80002068 <inst_554>:
80002068:	33333537          	lui	a0,0x33333
8000206c:	33450513          	addi	a0,a0,820 # 33333334 <absimm+0x33233334>
80002070:	fd352593          	slti	a1,a0,-45
80002074:	04b0a623          	sw	a1,76(ra)

80002078 <inst_555>:
80002078:	33333537          	lui	a0,0x33333
8000207c:	33450513          	addi	a0,a0,820 # 33333334 <absimm+0x33233334>
80002080:	02d52593          	slti	a1,a0,45
80002084:	04b0a823          	sw	a1,80(ra)

80002088 <inst_556>:
80002088:	33333537          	lui	a0,0x33333
8000208c:	33450513          	addi	a0,a0,820 # 33333334 <absimm+0x33233334>
80002090:	00252593          	slti	a1,a0,2
80002094:	04b0aa23          	sw	a1,84(ra)

80002098 <inst_557>:
80002098:	33333537          	lui	a0,0x33333
8000209c:	33450513          	addi	a0,a0,820 # 33333334 <absimm+0x33233334>
800020a0:	55452593          	slti	a1,a0,1364
800020a4:	04b0ac23          	sw	a1,88(ra)

800020a8 <inst_558>:
800020a8:	33333537          	lui	a0,0x33333
800020ac:	33450513          	addi	a0,a0,820 # 33333334 <absimm+0x33233334>
800020b0:	00052593          	slti	a1,a0,0
800020b4:	04b0ae23          	sw	a1,92(ra)

800020b8 <inst_559>:
800020b8:	fff00537          	lui	a0,0xfff00
800020bc:	fff50513          	addi	a0,a0,-1 # ffefffff <imm12+0xfff00000>
800020c0:	ffb52593          	slti	a1,a0,-5
800020c4:	06b0a023          	sw	a1,96(ra)

800020c8 <cleanup_epilogs>:
800020c8:	0040006f          	j	800020cc <exit_cleanup>

800020cc <exit_cleanup>:
800020cc:	00100093          	li	ra,1

800020d0 <write_tohost>:
800020d0:	00001f17          	auipc	t5,0x1
800020d4:	f21f2823          	sw	ra,-208(t5) # 80003000 <tohost>
800020d8:	ff9ff06f          	j	800020d0 <write_tohost>
	...

Disassembly of section .tohost:

80003000 <tohost>:
	...

80003100 <fromhost>:
	...

Disassembly of section .data:

80004000 <rvtest_trap_sig>:
80004000:	4020                	lw	s0,64(s0)
80004002:	8000                	0x8000
	...

80004010 <rvtest_data_begin>:
80004010:	cafe                	sw	t6,84(sp)
80004012:	babe                	fsd	fa5,368(sp)
80004014:	cafe                	sw	t6,84(sp)
80004016:	babe                	fsd	fa5,368(sp)
80004018:	cafe                	sw	t6,84(sp)
8000401a:	babe                	fsd	fa5,368(sp)
8000401c:	cafe                	sw	t6,84(sp)
8000401e:	babe                	fsd	fa5,368(sp)

80004020 <mtrap_sigptr>:
80004020:	deadbeef          	jal	t4,7ffdf60a <absimm+0x7fedf60a>
80004024:	deadbeef          	jal	t4,7ffdf60e <absimm+0x7fedf60e>

80004028 <rvtest_data_end>:
	...

80005000 <begin_regstate>:
80005000:	0080                	addi	s0,sp,64
	...

80005100 <end_regstate>:
80005100:	0004                	0x4
	...

80005110 <begin_signature>:
80005110:	a309                	j	80005612 <signature_x1_0+0x4a2>
80005112:	6f5c                	flw	fa5,28(a4)

80005114 <signature_x2_0>:
80005114:	deadbeef          	jal	t4,7ffe06fe <absimm+0x7fee06fe>
80005118:	deadbeef          	jal	t4,7ffe0702 <absimm+0x7fee0702>
8000511c:	deadbeef          	jal	t4,7ffe0706 <absimm+0x7fee0706>
80005120:	deadbeef          	jal	t4,7ffe070a <absimm+0x7fee070a>
80005124:	deadbeef          	jal	t4,7ffe070e <absimm+0x7fee070e>
80005128:	deadbeef          	jal	t4,7ffe0712 <absimm+0x7fee0712>
8000512c:	deadbeef          	jal	t4,7ffe0716 <absimm+0x7fee0716>
80005130:	deadbeef          	jal	t4,7ffe071a <absimm+0x7fee071a>
80005134:	deadbeef          	jal	t4,7ffe071e <absimm+0x7fee071e>
80005138:	deadbeef          	jal	t4,7ffe0722 <absimm+0x7fee0722>
8000513c:	deadbeef          	jal	t4,7ffe0726 <absimm+0x7fee0726>
80005140:	deadbeef          	jal	t4,7ffe072a <absimm+0x7fee072a>
80005144:	deadbeef          	jal	t4,7ffe072e <absimm+0x7fee072e>
80005148:	deadbeef          	jal	t4,7ffe0732 <absimm+0x7fee0732>
8000514c:	deadbeef          	jal	t4,7ffe0736 <absimm+0x7fee0736>
80005150:	deadbeef          	jal	t4,7ffe073a <absimm+0x7fee073a>
80005154:	deadbeef          	jal	t4,7ffe073e <absimm+0x7fee073e>
80005158:	deadbeef          	jal	t4,7ffe0742 <absimm+0x7fee0742>
8000515c:	deadbeef          	jal	t4,7ffe0746 <absimm+0x7fee0746>
80005160:	deadbeef          	jal	t4,7ffe074a <absimm+0x7fee074a>
80005164:	deadbeef          	jal	t4,7ffe074e <absimm+0x7fee074e>
80005168:	deadbeef          	jal	t4,7ffe0752 <absimm+0x7fee0752>
8000516c:	deadbeef          	jal	t4,7ffe0756 <absimm+0x7fee0756>

80005170 <signature_x1_0>:
80005170:	deadbeef          	jal	t4,7ffe075a <absimm+0x7fee075a>
80005174:	deadbeef          	jal	t4,7ffe075e <absimm+0x7fee075e>
80005178:	deadbeef          	jal	t4,7ffe0762 <absimm+0x7fee0762>
8000517c:	deadbeef          	jal	t4,7ffe0766 <absimm+0x7fee0766>
80005180:	deadbeef          	jal	t4,7ffe076a <absimm+0x7fee076a>
80005184:	deadbeef          	jal	t4,7ffe076e <absimm+0x7fee076e>
80005188:	deadbeef          	jal	t4,7ffe0772 <absimm+0x7fee0772>
8000518c:	deadbeef          	jal	t4,7ffe0776 <absimm+0x7fee0776>
80005190:	deadbeef          	jal	t4,7ffe077a <absimm+0x7fee077a>
80005194:	deadbeef          	jal	t4,7ffe077e <absimm+0x7fee077e>
80005198:	deadbeef          	jal	t4,7ffe0782 <absimm+0x7fee0782>
8000519c:	deadbeef          	jal	t4,7ffe0786 <absimm+0x7fee0786>
800051a0:	deadbeef          	jal	t4,7ffe078a <absimm+0x7fee078a>
800051a4:	deadbeef          	jal	t4,7ffe078e <absimm+0x7fee078e>
800051a8:	deadbeef          	jal	t4,7ffe0792 <absimm+0x7fee0792>
800051ac:	deadbeef          	jal	t4,7ffe0796 <absimm+0x7fee0796>
800051b0:	deadbeef          	jal	t4,7ffe079a <absimm+0x7fee079a>
800051b4:	deadbeef          	jal	t4,7ffe079e <absimm+0x7fee079e>
800051b8:	deadbeef          	jal	t4,7ffe07a2 <absimm+0x7fee07a2>
800051bc:	deadbeef          	jal	t4,7ffe07a6 <absimm+0x7fee07a6>
800051c0:	deadbeef          	jal	t4,7ffe07aa <absimm+0x7fee07aa>
800051c4:	deadbeef          	jal	t4,7ffe07ae <absimm+0x7fee07ae>
800051c8:	deadbeef          	jal	t4,7ffe07b2 <absimm+0x7fee07b2>
800051cc:	deadbeef          	jal	t4,7ffe07b6 <absimm+0x7fee07b6>
800051d0:	deadbeef          	jal	t4,7ffe07ba <absimm+0x7fee07ba>
800051d4:	deadbeef          	jal	t4,7ffe07be <absimm+0x7fee07be>
800051d8:	deadbeef          	jal	t4,7ffe07c2 <absimm+0x7fee07c2>
800051dc:	deadbeef          	jal	t4,7ffe07c6 <absimm+0x7fee07c6>
800051e0:	deadbeef          	jal	t4,7ffe07ca <absimm+0x7fee07ca>
800051e4:	deadbeef          	jal	t4,7ffe07ce <absimm+0x7fee07ce>
800051e8:	deadbeef          	jal	t4,7ffe07d2 <absimm+0x7fee07d2>
800051ec:	deadbeef          	jal	t4,7ffe07d6 <absimm+0x7fee07d6>
800051f0:	deadbeef          	jal	t4,7ffe07da <absimm+0x7fee07da>
800051f4:	deadbeef          	jal	t4,7ffe07de <absimm+0x7fee07de>
800051f8:	deadbeef          	jal	t4,7ffe07e2 <absimm+0x7fee07e2>
800051fc:	deadbeef          	jal	t4,7ffe07e6 <absimm+0x7fee07e6>
80005200:	deadbeef          	jal	t4,7ffe07ea <absimm+0x7fee07ea>
80005204:	deadbeef          	jal	t4,7ffe07ee <absimm+0x7fee07ee>
80005208:	deadbeef          	jal	t4,7ffe07f2 <absimm+0x7fee07f2>
8000520c:	deadbeef          	jal	t4,7ffe07f6 <absimm+0x7fee07f6>
80005210:	deadbeef          	jal	t4,7ffe07fa <absimm+0x7fee07fa>
80005214:	deadbeef          	jal	t4,7ffe07fe <absimm+0x7fee07fe>
80005218:	deadbeef          	jal	t4,7ffe0802 <absimm+0x7fee0802>
8000521c:	deadbeef          	jal	t4,7ffe0806 <absimm+0x7fee0806>
80005220:	deadbeef          	jal	t4,7ffe080a <absimm+0x7fee080a>
80005224:	deadbeef          	jal	t4,7ffe080e <absimm+0x7fee080e>
80005228:	deadbeef          	jal	t4,7ffe0812 <absimm+0x7fee0812>
8000522c:	deadbeef          	jal	t4,7ffe0816 <absimm+0x7fee0816>
80005230:	deadbeef          	jal	t4,7ffe081a <absimm+0x7fee081a>
80005234:	deadbeef          	jal	t4,7ffe081e <absimm+0x7fee081e>
80005238:	deadbeef          	jal	t4,7ffe0822 <absimm+0x7fee0822>
8000523c:	deadbeef          	jal	t4,7ffe0826 <absimm+0x7fee0826>
80005240:	deadbeef          	jal	t4,7ffe082a <absimm+0x7fee082a>
80005244:	deadbeef          	jal	t4,7ffe082e <absimm+0x7fee082e>
80005248:	deadbeef          	jal	t4,7ffe0832 <absimm+0x7fee0832>
8000524c:	deadbeef          	jal	t4,7ffe0836 <absimm+0x7fee0836>
80005250:	deadbeef          	jal	t4,7ffe083a <absimm+0x7fee083a>
80005254:	deadbeef          	jal	t4,7ffe083e <absimm+0x7fee083e>
80005258:	deadbeef          	jal	t4,7ffe0842 <absimm+0x7fee0842>
8000525c:	deadbeef          	jal	t4,7ffe0846 <absimm+0x7fee0846>
80005260:	deadbeef          	jal	t4,7ffe084a <absimm+0x7fee084a>
80005264:	deadbeef          	jal	t4,7ffe084e <absimm+0x7fee084e>
80005268:	deadbeef          	jal	t4,7ffe0852 <absimm+0x7fee0852>
8000526c:	deadbeef          	jal	t4,7ffe0856 <absimm+0x7fee0856>
80005270:	deadbeef          	jal	t4,7ffe085a <absimm+0x7fee085a>
80005274:	deadbeef          	jal	t4,7ffe085e <absimm+0x7fee085e>
80005278:	deadbeef          	jal	t4,7ffe0862 <absimm+0x7fee0862>
8000527c:	deadbeef          	jal	t4,7ffe0866 <absimm+0x7fee0866>
80005280:	deadbeef          	jal	t4,7ffe086a <absimm+0x7fee086a>
80005284:	deadbeef          	jal	t4,7ffe086e <absimm+0x7fee086e>
80005288:	deadbeef          	jal	t4,7ffe0872 <absimm+0x7fee0872>
8000528c:	deadbeef          	jal	t4,7ffe0876 <absimm+0x7fee0876>
80005290:	deadbeef          	jal	t4,7ffe087a <absimm+0x7fee087a>
80005294:	deadbeef          	jal	t4,7ffe087e <absimm+0x7fee087e>
80005298:	deadbeef          	jal	t4,7ffe0882 <absimm+0x7fee0882>
8000529c:	deadbeef          	jal	t4,7ffe0886 <absimm+0x7fee0886>
800052a0:	deadbeef          	jal	t4,7ffe088a <absimm+0x7fee088a>
800052a4:	deadbeef          	jal	t4,7ffe088e <absimm+0x7fee088e>
800052a8:	deadbeef          	jal	t4,7ffe0892 <absimm+0x7fee0892>
800052ac:	deadbeef          	jal	t4,7ffe0896 <absimm+0x7fee0896>
800052b0:	deadbeef          	jal	t4,7ffe089a <absimm+0x7fee089a>
800052b4:	deadbeef          	jal	t4,7ffe089e <absimm+0x7fee089e>
800052b8:	deadbeef          	jal	t4,7ffe08a2 <absimm+0x7fee08a2>
800052bc:	deadbeef          	jal	t4,7ffe08a6 <absimm+0x7fee08a6>
800052c0:	deadbeef          	jal	t4,7ffe08aa <absimm+0x7fee08aa>
800052c4:	deadbeef          	jal	t4,7ffe08ae <absimm+0x7fee08ae>
800052c8:	deadbeef          	jal	t4,7ffe08b2 <absimm+0x7fee08b2>
800052cc:	deadbeef          	jal	t4,7ffe08b6 <absimm+0x7fee08b6>
800052d0:	deadbeef          	jal	t4,7ffe08ba <absimm+0x7fee08ba>
800052d4:	deadbeef          	jal	t4,7ffe08be <absimm+0x7fee08be>
800052d8:	deadbeef          	jal	t4,7ffe08c2 <absimm+0x7fee08c2>
800052dc:	deadbeef          	jal	t4,7ffe08c6 <absimm+0x7fee08c6>
800052e0:	deadbeef          	jal	t4,7ffe08ca <absimm+0x7fee08ca>
800052e4:	deadbeef          	jal	t4,7ffe08ce <absimm+0x7fee08ce>
800052e8:	deadbeef          	jal	t4,7ffe08d2 <absimm+0x7fee08d2>
800052ec:	deadbeef          	jal	t4,7ffe08d6 <absimm+0x7fee08d6>
800052f0:	deadbeef          	jal	t4,7ffe08da <absimm+0x7fee08da>
800052f4:	deadbeef          	jal	t4,7ffe08de <absimm+0x7fee08de>
800052f8:	deadbeef          	jal	t4,7ffe08e2 <absimm+0x7fee08e2>
800052fc:	deadbeef          	jal	t4,7ffe08e6 <absimm+0x7fee08e6>
80005300:	deadbeef          	jal	t4,7ffe08ea <absimm+0x7fee08ea>
80005304:	deadbeef          	jal	t4,7ffe08ee <absimm+0x7fee08ee>
80005308:	deadbeef          	jal	t4,7ffe08f2 <absimm+0x7fee08f2>
8000530c:	deadbeef          	jal	t4,7ffe08f6 <absimm+0x7fee08f6>
80005310:	deadbeef          	jal	t4,7ffe08fa <absimm+0x7fee08fa>
80005314:	deadbeef          	jal	t4,7ffe08fe <absimm+0x7fee08fe>
80005318:	deadbeef          	jal	t4,7ffe0902 <absimm+0x7fee0902>
8000531c:	deadbeef          	jal	t4,7ffe0906 <absimm+0x7fee0906>
80005320:	deadbeef          	jal	t4,7ffe090a <absimm+0x7fee090a>
80005324:	deadbeef          	jal	t4,7ffe090e <absimm+0x7fee090e>
80005328:	deadbeef          	jal	t4,7ffe0912 <absimm+0x7fee0912>
8000532c:	deadbeef          	jal	t4,7ffe0916 <absimm+0x7fee0916>
80005330:	deadbeef          	jal	t4,7ffe091a <absimm+0x7fee091a>
80005334:	deadbeef          	jal	t4,7ffe091e <absimm+0x7fee091e>
80005338:	deadbeef          	jal	t4,7ffe0922 <absimm+0x7fee0922>
8000533c:	deadbeef          	jal	t4,7ffe0926 <absimm+0x7fee0926>
80005340:	deadbeef          	jal	t4,7ffe092a <absimm+0x7fee092a>
80005344:	deadbeef          	jal	t4,7ffe092e <absimm+0x7fee092e>
80005348:	deadbeef          	jal	t4,7ffe0932 <absimm+0x7fee0932>
8000534c:	deadbeef          	jal	t4,7ffe0936 <absimm+0x7fee0936>
80005350:	deadbeef          	jal	t4,7ffe093a <absimm+0x7fee093a>
80005354:	deadbeef          	jal	t4,7ffe093e <absimm+0x7fee093e>
80005358:	deadbeef          	jal	t4,7ffe0942 <absimm+0x7fee0942>
8000535c:	deadbeef          	jal	t4,7ffe0946 <absimm+0x7fee0946>
80005360:	deadbeef          	jal	t4,7ffe094a <absimm+0x7fee094a>
80005364:	deadbeef          	jal	t4,7ffe094e <absimm+0x7fee094e>
80005368:	deadbeef          	jal	t4,7ffe0952 <absimm+0x7fee0952>
8000536c:	deadbeef          	jal	t4,7ffe0956 <absimm+0x7fee0956>
80005370:	deadbeef          	jal	t4,7ffe095a <absimm+0x7fee095a>
80005374:	deadbeef          	jal	t4,7ffe095e <absimm+0x7fee095e>
80005378:	deadbeef          	jal	t4,7ffe0962 <absimm+0x7fee0962>
8000537c:	deadbeef          	jal	t4,7ffe0966 <absimm+0x7fee0966>
80005380:	deadbeef          	jal	t4,7ffe096a <absimm+0x7fee096a>
80005384:	deadbeef          	jal	t4,7ffe096e <absimm+0x7fee096e>
80005388:	deadbeef          	jal	t4,7ffe0972 <absimm+0x7fee0972>
8000538c:	deadbeef          	jal	t4,7ffe0976 <absimm+0x7fee0976>
80005390:	deadbeef          	jal	t4,7ffe097a <absimm+0x7fee097a>
80005394:	deadbeef          	jal	t4,7ffe097e <absimm+0x7fee097e>
80005398:	deadbeef          	jal	t4,7ffe0982 <absimm+0x7fee0982>
8000539c:	deadbeef          	jal	t4,7ffe0986 <absimm+0x7fee0986>
800053a0:	deadbeef          	jal	t4,7ffe098a <absimm+0x7fee098a>
800053a4:	deadbeef          	jal	t4,7ffe098e <absimm+0x7fee098e>
800053a8:	deadbeef          	jal	t4,7ffe0992 <absimm+0x7fee0992>
800053ac:	deadbeef          	jal	t4,7ffe0996 <absimm+0x7fee0996>
800053b0:	deadbeef          	jal	t4,7ffe099a <absimm+0x7fee099a>
800053b4:	deadbeef          	jal	t4,7ffe099e <absimm+0x7fee099e>
800053b8:	deadbeef          	jal	t4,7ffe09a2 <absimm+0x7fee09a2>
800053bc:	deadbeef          	jal	t4,7ffe09a6 <absimm+0x7fee09a6>
800053c0:	deadbeef          	jal	t4,7ffe09aa <absimm+0x7fee09aa>
800053c4:	deadbeef          	jal	t4,7ffe09ae <absimm+0x7fee09ae>
800053c8:	deadbeef          	jal	t4,7ffe09b2 <absimm+0x7fee09b2>
800053cc:	deadbeef          	jal	t4,7ffe09b6 <absimm+0x7fee09b6>
800053d0:	deadbeef          	jal	t4,7ffe09ba <absimm+0x7fee09ba>
800053d4:	deadbeef          	jal	t4,7ffe09be <absimm+0x7fee09be>
800053d8:	deadbeef          	jal	t4,7ffe09c2 <absimm+0x7fee09c2>
800053dc:	deadbeef          	jal	t4,7ffe09c6 <absimm+0x7fee09c6>
800053e0:	deadbeef          	jal	t4,7ffe09ca <absimm+0x7fee09ca>
800053e4:	deadbeef          	jal	t4,7ffe09ce <absimm+0x7fee09ce>
800053e8:	deadbeef          	jal	t4,7ffe09d2 <absimm+0x7fee09d2>
800053ec:	deadbeef          	jal	t4,7ffe09d6 <absimm+0x7fee09d6>
800053f0:	deadbeef          	jal	t4,7ffe09da <absimm+0x7fee09da>
800053f4:	deadbeef          	jal	t4,7ffe09de <absimm+0x7fee09de>
800053f8:	deadbeef          	jal	t4,7ffe09e2 <absimm+0x7fee09e2>
800053fc:	deadbeef          	jal	t4,7ffe09e6 <absimm+0x7fee09e6>
80005400:	deadbeef          	jal	t4,7ffe09ea <absimm+0x7fee09ea>
80005404:	deadbeef          	jal	t4,7ffe09ee <absimm+0x7fee09ee>
80005408:	deadbeef          	jal	t4,7ffe09f2 <absimm+0x7fee09f2>
8000540c:	deadbeef          	jal	t4,7ffe09f6 <absimm+0x7fee09f6>
80005410:	deadbeef          	jal	t4,7ffe09fa <absimm+0x7fee09fa>
80005414:	deadbeef          	jal	t4,7ffe09fe <absimm+0x7fee09fe>
80005418:	deadbeef          	jal	t4,7ffe0a02 <absimm+0x7fee0a02>
8000541c:	deadbeef          	jal	t4,7ffe0a06 <absimm+0x7fee0a06>
80005420:	deadbeef          	jal	t4,7ffe0a0a <absimm+0x7fee0a0a>
80005424:	deadbeef          	jal	t4,7ffe0a0e <absimm+0x7fee0a0e>
80005428:	deadbeef          	jal	t4,7ffe0a12 <absimm+0x7fee0a12>
8000542c:	deadbeef          	jal	t4,7ffe0a16 <absimm+0x7fee0a16>
80005430:	deadbeef          	jal	t4,7ffe0a1a <absimm+0x7fee0a1a>
80005434:	deadbeef          	jal	t4,7ffe0a1e <absimm+0x7fee0a1e>
80005438:	deadbeef          	jal	t4,7ffe0a22 <absimm+0x7fee0a22>
8000543c:	deadbeef          	jal	t4,7ffe0a26 <absimm+0x7fee0a26>
80005440:	deadbeef          	jal	t4,7ffe0a2a <absimm+0x7fee0a2a>
80005444:	deadbeef          	jal	t4,7ffe0a2e <absimm+0x7fee0a2e>
80005448:	deadbeef          	jal	t4,7ffe0a32 <absimm+0x7fee0a32>
8000544c:	deadbeef          	jal	t4,7ffe0a36 <absimm+0x7fee0a36>
80005450:	deadbeef          	jal	t4,7ffe0a3a <absimm+0x7fee0a3a>
80005454:	deadbeef          	jal	t4,7ffe0a3e <absimm+0x7fee0a3e>
80005458:	deadbeef          	jal	t4,7ffe0a42 <absimm+0x7fee0a42>
8000545c:	deadbeef          	jal	t4,7ffe0a46 <absimm+0x7fee0a46>
80005460:	deadbeef          	jal	t4,7ffe0a4a <absimm+0x7fee0a4a>
80005464:	deadbeef          	jal	t4,7ffe0a4e <absimm+0x7fee0a4e>
80005468:	deadbeef          	jal	t4,7ffe0a52 <absimm+0x7fee0a52>
8000546c:	deadbeef          	jal	t4,7ffe0a56 <absimm+0x7fee0a56>
80005470:	deadbeef          	jal	t4,7ffe0a5a <absimm+0x7fee0a5a>
80005474:	deadbeef          	jal	t4,7ffe0a5e <absimm+0x7fee0a5e>
80005478:	deadbeef          	jal	t4,7ffe0a62 <absimm+0x7fee0a62>
8000547c:	deadbeef          	jal	t4,7ffe0a66 <absimm+0x7fee0a66>
80005480:	deadbeef          	jal	t4,7ffe0a6a <absimm+0x7fee0a6a>
80005484:	deadbeef          	jal	t4,7ffe0a6e <absimm+0x7fee0a6e>
80005488:	deadbeef          	jal	t4,7ffe0a72 <absimm+0x7fee0a72>
8000548c:	deadbeef          	jal	t4,7ffe0a76 <absimm+0x7fee0a76>
80005490:	deadbeef          	jal	t4,7ffe0a7a <absimm+0x7fee0a7a>
80005494:	deadbeef          	jal	t4,7ffe0a7e <absimm+0x7fee0a7e>
80005498:	deadbeef          	jal	t4,7ffe0a82 <absimm+0x7fee0a82>
8000549c:	deadbeef          	jal	t4,7ffe0a86 <absimm+0x7fee0a86>
800054a0:	deadbeef          	jal	t4,7ffe0a8a <absimm+0x7fee0a8a>
800054a4:	deadbeef          	jal	t4,7ffe0a8e <absimm+0x7fee0a8e>
800054a8:	deadbeef          	jal	t4,7ffe0a92 <absimm+0x7fee0a92>
800054ac:	deadbeef          	jal	t4,7ffe0a96 <absimm+0x7fee0a96>
800054b0:	deadbeef          	jal	t4,7ffe0a9a <absimm+0x7fee0a9a>
800054b4:	deadbeef          	jal	t4,7ffe0a9e <absimm+0x7fee0a9e>
800054b8:	deadbeef          	jal	t4,7ffe0aa2 <absimm+0x7fee0aa2>
800054bc:	deadbeef          	jal	t4,7ffe0aa6 <absimm+0x7fee0aa6>
800054c0:	deadbeef          	jal	t4,7ffe0aaa <absimm+0x7fee0aaa>
800054c4:	deadbeef          	jal	t4,7ffe0aae <absimm+0x7fee0aae>
800054c8:	deadbeef          	jal	t4,7ffe0ab2 <absimm+0x7fee0ab2>
800054cc:	deadbeef          	jal	t4,7ffe0ab6 <absimm+0x7fee0ab6>
800054d0:	deadbeef          	jal	t4,7ffe0aba <absimm+0x7fee0aba>
800054d4:	deadbeef          	jal	t4,7ffe0abe <absimm+0x7fee0abe>
800054d8:	deadbeef          	jal	t4,7ffe0ac2 <absimm+0x7fee0ac2>
800054dc:	deadbeef          	jal	t4,7ffe0ac6 <absimm+0x7fee0ac6>
800054e0:	deadbeef          	jal	t4,7ffe0aca <absimm+0x7fee0aca>
800054e4:	deadbeef          	jal	t4,7ffe0ace <absimm+0x7fee0ace>
800054e8:	deadbeef          	jal	t4,7ffe0ad2 <absimm+0x7fee0ad2>
800054ec:	deadbeef          	jal	t4,7ffe0ad6 <absimm+0x7fee0ad6>
800054f0:	deadbeef          	jal	t4,7ffe0ada <absimm+0x7fee0ada>
800054f4:	deadbeef          	jal	t4,7ffe0ade <absimm+0x7fee0ade>
800054f8:	deadbeef          	jal	t4,7ffe0ae2 <absimm+0x7fee0ae2>
800054fc:	deadbeef          	jal	t4,7ffe0ae6 <absimm+0x7fee0ae6>
80005500:	deadbeef          	jal	t4,7ffe0aea <absimm+0x7fee0aea>
80005504:	deadbeef          	jal	t4,7ffe0aee <absimm+0x7fee0aee>
80005508:	deadbeef          	jal	t4,7ffe0af2 <absimm+0x7fee0af2>
8000550c:	deadbeef          	jal	t4,7ffe0af6 <absimm+0x7fee0af6>
80005510:	deadbeef          	jal	t4,7ffe0afa <absimm+0x7fee0afa>
80005514:	deadbeef          	jal	t4,7ffe0afe <absimm+0x7fee0afe>
80005518:	deadbeef          	jal	t4,7ffe0b02 <absimm+0x7fee0b02>
8000551c:	deadbeef          	jal	t4,7ffe0b06 <absimm+0x7fee0b06>
80005520:	deadbeef          	jal	t4,7ffe0b0a <absimm+0x7fee0b0a>
80005524:	deadbeef          	jal	t4,7ffe0b0e <absimm+0x7fee0b0e>
80005528:	deadbeef          	jal	t4,7ffe0b12 <absimm+0x7fee0b12>
8000552c:	deadbeef          	jal	t4,7ffe0b16 <absimm+0x7fee0b16>
80005530:	deadbeef          	jal	t4,7ffe0b1a <absimm+0x7fee0b1a>
80005534:	deadbeef          	jal	t4,7ffe0b1e <absimm+0x7fee0b1e>
80005538:	deadbeef          	jal	t4,7ffe0b22 <absimm+0x7fee0b22>
8000553c:	deadbeef          	jal	t4,7ffe0b26 <absimm+0x7fee0b26>
80005540:	deadbeef          	jal	t4,7ffe0b2a <absimm+0x7fee0b2a>
80005544:	deadbeef          	jal	t4,7ffe0b2e <absimm+0x7fee0b2e>
80005548:	deadbeef          	jal	t4,7ffe0b32 <absimm+0x7fee0b32>
8000554c:	deadbeef          	jal	t4,7ffe0b36 <absimm+0x7fee0b36>
80005550:	deadbeef          	jal	t4,7ffe0b3a <absimm+0x7fee0b3a>
80005554:	deadbeef          	jal	t4,7ffe0b3e <absimm+0x7fee0b3e>
80005558:	deadbeef          	jal	t4,7ffe0b42 <absimm+0x7fee0b42>
8000555c:	deadbeef          	jal	t4,7ffe0b46 <absimm+0x7fee0b46>
80005560:	deadbeef          	jal	t4,7ffe0b4a <absimm+0x7fee0b4a>
80005564:	deadbeef          	jal	t4,7ffe0b4e <absimm+0x7fee0b4e>
80005568:	deadbeef          	jal	t4,7ffe0b52 <absimm+0x7fee0b52>
8000556c:	deadbeef          	jal	t4,7ffe0b56 <absimm+0x7fee0b56>
80005570:	deadbeef          	jal	t4,7ffe0b5a <absimm+0x7fee0b5a>
80005574:	deadbeef          	jal	t4,7ffe0b5e <absimm+0x7fee0b5e>
80005578:	deadbeef          	jal	t4,7ffe0b62 <absimm+0x7fee0b62>
8000557c:	deadbeef          	jal	t4,7ffe0b66 <absimm+0x7fee0b66>
80005580:	deadbeef          	jal	t4,7ffe0b6a <absimm+0x7fee0b6a>
80005584:	deadbeef          	jal	t4,7ffe0b6e <absimm+0x7fee0b6e>
80005588:	deadbeef          	jal	t4,7ffe0b72 <absimm+0x7fee0b72>
8000558c:	deadbeef          	jal	t4,7ffe0b76 <absimm+0x7fee0b76>
80005590:	deadbeef          	jal	t4,7ffe0b7a <absimm+0x7fee0b7a>
80005594:	deadbeef          	jal	t4,7ffe0b7e <absimm+0x7fee0b7e>
80005598:	deadbeef          	jal	t4,7ffe0b82 <absimm+0x7fee0b82>
8000559c:	deadbeef          	jal	t4,7ffe0b86 <absimm+0x7fee0b86>
800055a0:	deadbeef          	jal	t4,7ffe0b8a <absimm+0x7fee0b8a>
800055a4:	deadbeef          	jal	t4,7ffe0b8e <absimm+0x7fee0b8e>
800055a8:	deadbeef          	jal	t4,7ffe0b92 <absimm+0x7fee0b92>
800055ac:	deadbeef          	jal	t4,7ffe0b96 <absimm+0x7fee0b96>
800055b0:	deadbeef          	jal	t4,7ffe0b9a <absimm+0x7fee0b9a>
800055b4:	deadbeef          	jal	t4,7ffe0b9e <absimm+0x7fee0b9e>
800055b8:	deadbeef          	jal	t4,7ffe0ba2 <absimm+0x7fee0ba2>
800055bc:	deadbeef          	jal	t4,7ffe0ba6 <absimm+0x7fee0ba6>
800055c0:	deadbeef          	jal	t4,7ffe0baa <absimm+0x7fee0baa>
800055c4:	deadbeef          	jal	t4,7ffe0bae <absimm+0x7fee0bae>
800055c8:	deadbeef          	jal	t4,7ffe0bb2 <absimm+0x7fee0bb2>
800055cc:	deadbeef          	jal	t4,7ffe0bb6 <absimm+0x7fee0bb6>
800055d0:	deadbeef          	jal	t4,7ffe0bba <absimm+0x7fee0bba>
800055d4:	deadbeef          	jal	t4,7ffe0bbe <absimm+0x7fee0bbe>
800055d8:	deadbeef          	jal	t4,7ffe0bc2 <absimm+0x7fee0bc2>
800055dc:	deadbeef          	jal	t4,7ffe0bc6 <absimm+0x7fee0bc6>
800055e0:	deadbeef          	jal	t4,7ffe0bca <absimm+0x7fee0bca>
800055e4:	deadbeef          	jal	t4,7ffe0bce <absimm+0x7fee0bce>
800055e8:	deadbeef          	jal	t4,7ffe0bd2 <absimm+0x7fee0bd2>
800055ec:	deadbeef          	jal	t4,7ffe0bd6 <absimm+0x7fee0bd6>
800055f0:	deadbeef          	jal	t4,7ffe0bda <absimm+0x7fee0bda>
800055f4:	deadbeef          	jal	t4,7ffe0bde <absimm+0x7fee0bde>
800055f8:	deadbeef          	jal	t4,7ffe0be2 <absimm+0x7fee0be2>
800055fc:	deadbeef          	jal	t4,7ffe0be6 <absimm+0x7fee0be6>
80005600:	deadbeef          	jal	t4,7ffe0bea <absimm+0x7fee0bea>
80005604:	deadbeef          	jal	t4,7ffe0bee <absimm+0x7fee0bee>
80005608:	deadbeef          	jal	t4,7ffe0bf2 <absimm+0x7fee0bf2>
8000560c:	deadbeef          	jal	t4,7ffe0bf6 <absimm+0x7fee0bf6>
80005610:	deadbeef          	jal	t4,7ffe0bfa <absimm+0x7fee0bfa>
80005614:	deadbeef          	jal	t4,7ffe0bfe <absimm+0x7fee0bfe>
80005618:	deadbeef          	jal	t4,7ffe0c02 <absimm+0x7fee0c02>
8000561c:	deadbeef          	jal	t4,7ffe0c06 <absimm+0x7fee0c06>
80005620:	deadbeef          	jal	t4,7ffe0c0a <absimm+0x7fee0c0a>
80005624:	deadbeef          	jal	t4,7ffe0c0e <absimm+0x7fee0c0e>
80005628:	deadbeef          	jal	t4,7ffe0c12 <absimm+0x7fee0c12>
8000562c:	deadbeef          	jal	t4,7ffe0c16 <absimm+0x7fee0c16>
80005630:	deadbeef          	jal	t4,7ffe0c1a <absimm+0x7fee0c1a>
80005634:	deadbeef          	jal	t4,7ffe0c1e <absimm+0x7fee0c1e>
80005638:	deadbeef          	jal	t4,7ffe0c22 <absimm+0x7fee0c22>
8000563c:	deadbeef          	jal	t4,7ffe0c26 <absimm+0x7fee0c26>
80005640:	deadbeef          	jal	t4,7ffe0c2a <absimm+0x7fee0c2a>
80005644:	deadbeef          	jal	t4,7ffe0c2e <absimm+0x7fee0c2e>
80005648:	deadbeef          	jal	t4,7ffe0c32 <absimm+0x7fee0c32>
8000564c:	deadbeef          	jal	t4,7ffe0c36 <absimm+0x7fee0c36>
80005650:	deadbeef          	jal	t4,7ffe0c3a <absimm+0x7fee0c3a>
80005654:	deadbeef          	jal	t4,7ffe0c3e <absimm+0x7fee0c3e>
80005658:	deadbeef          	jal	t4,7ffe0c42 <absimm+0x7fee0c42>
8000565c:	deadbeef          	jal	t4,7ffe0c46 <absimm+0x7fee0c46>
80005660:	deadbeef          	jal	t4,7ffe0c4a <absimm+0x7fee0c4a>
80005664:	deadbeef          	jal	t4,7ffe0c4e <absimm+0x7fee0c4e>
80005668:	deadbeef          	jal	t4,7ffe0c52 <absimm+0x7fee0c52>
8000566c:	deadbeef          	jal	t4,7ffe0c56 <absimm+0x7fee0c56>
80005670:	deadbeef          	jal	t4,7ffe0c5a <absimm+0x7fee0c5a>
80005674:	deadbeef          	jal	t4,7ffe0c5e <absimm+0x7fee0c5e>
80005678:	deadbeef          	jal	t4,7ffe0c62 <absimm+0x7fee0c62>
8000567c:	deadbeef          	jal	t4,7ffe0c66 <absimm+0x7fee0c66>
80005680:	deadbeef          	jal	t4,7ffe0c6a <absimm+0x7fee0c6a>
80005684:	deadbeef          	jal	t4,7ffe0c6e <absimm+0x7fee0c6e>
80005688:	deadbeef          	jal	t4,7ffe0c72 <absimm+0x7fee0c72>
8000568c:	deadbeef          	jal	t4,7ffe0c76 <absimm+0x7fee0c76>
80005690:	deadbeef          	jal	t4,7ffe0c7a <absimm+0x7fee0c7a>
80005694:	deadbeef          	jal	t4,7ffe0c7e <absimm+0x7fee0c7e>
80005698:	deadbeef          	jal	t4,7ffe0c82 <absimm+0x7fee0c82>
8000569c:	deadbeef          	jal	t4,7ffe0c86 <absimm+0x7fee0c86>
800056a0:	deadbeef          	jal	t4,7ffe0c8a <absimm+0x7fee0c8a>
800056a4:	deadbeef          	jal	t4,7ffe0c8e <absimm+0x7fee0c8e>
800056a8:	deadbeef          	jal	t4,7ffe0c92 <absimm+0x7fee0c92>
800056ac:	deadbeef          	jal	t4,7ffe0c96 <absimm+0x7fee0c96>
800056b0:	deadbeef          	jal	t4,7ffe0c9a <absimm+0x7fee0c9a>
800056b4:	deadbeef          	jal	t4,7ffe0c9e <absimm+0x7fee0c9e>
800056b8:	deadbeef          	jal	t4,7ffe0ca2 <absimm+0x7fee0ca2>
800056bc:	deadbeef          	jal	t4,7ffe0ca6 <absimm+0x7fee0ca6>
800056c0:	deadbeef          	jal	t4,7ffe0caa <absimm+0x7fee0caa>
800056c4:	deadbeef          	jal	t4,7ffe0cae <absimm+0x7fee0cae>
800056c8:	deadbeef          	jal	t4,7ffe0cb2 <absimm+0x7fee0cb2>
800056cc:	deadbeef          	jal	t4,7ffe0cb6 <absimm+0x7fee0cb6>
800056d0:	deadbeef          	jal	t4,7ffe0cba <absimm+0x7fee0cba>
800056d4:	deadbeef          	jal	t4,7ffe0cbe <absimm+0x7fee0cbe>
800056d8:	deadbeef          	jal	t4,7ffe0cc2 <absimm+0x7fee0cc2>
800056dc:	deadbeef          	jal	t4,7ffe0cc6 <absimm+0x7fee0cc6>
800056e0:	deadbeef          	jal	t4,7ffe0cca <absimm+0x7fee0cca>
800056e4:	deadbeef          	jal	t4,7ffe0cce <absimm+0x7fee0cce>
800056e8:	deadbeef          	jal	t4,7ffe0cd2 <absimm+0x7fee0cd2>
800056ec:	deadbeef          	jal	t4,7ffe0cd6 <absimm+0x7fee0cd6>
800056f0:	deadbeef          	jal	t4,7ffe0cda <absimm+0x7fee0cda>
800056f4:	deadbeef          	jal	t4,7ffe0cde <absimm+0x7fee0cde>
800056f8:	deadbeef          	jal	t4,7ffe0ce2 <absimm+0x7fee0ce2>
800056fc:	deadbeef          	jal	t4,7ffe0ce6 <absimm+0x7fee0ce6>
80005700:	deadbeef          	jal	t4,7ffe0cea <absimm+0x7fee0cea>
80005704:	deadbeef          	jal	t4,7ffe0cee <absimm+0x7fee0cee>
80005708:	deadbeef          	jal	t4,7ffe0cf2 <absimm+0x7fee0cf2>
8000570c:	deadbeef          	jal	t4,7ffe0cf6 <absimm+0x7fee0cf6>
80005710:	deadbeef          	jal	t4,7ffe0cfa <absimm+0x7fee0cfa>
80005714:	deadbeef          	jal	t4,7ffe0cfe <absimm+0x7fee0cfe>
80005718:	deadbeef          	jal	t4,7ffe0d02 <absimm+0x7fee0d02>
8000571c:	deadbeef          	jal	t4,7ffe0d06 <absimm+0x7fee0d06>
80005720:	deadbeef          	jal	t4,7ffe0d0a <absimm+0x7fee0d0a>
80005724:	deadbeef          	jal	t4,7ffe0d0e <absimm+0x7fee0d0e>
80005728:	deadbeef          	jal	t4,7ffe0d12 <absimm+0x7fee0d12>
8000572c:	deadbeef          	jal	t4,7ffe0d16 <absimm+0x7fee0d16>
80005730:	deadbeef          	jal	t4,7ffe0d1a <absimm+0x7fee0d1a>
80005734:	deadbeef          	jal	t4,7ffe0d1e <absimm+0x7fee0d1e>
80005738:	deadbeef          	jal	t4,7ffe0d22 <absimm+0x7fee0d22>
8000573c:	deadbeef          	jal	t4,7ffe0d26 <absimm+0x7fee0d26>
80005740:	deadbeef          	jal	t4,7ffe0d2a <absimm+0x7fee0d2a>
80005744:	deadbeef          	jal	t4,7ffe0d2e <absimm+0x7fee0d2e>
80005748:	deadbeef          	jal	t4,7ffe0d32 <absimm+0x7fee0d32>
8000574c:	deadbeef          	jal	t4,7ffe0d36 <absimm+0x7fee0d36>
80005750:	deadbeef          	jal	t4,7ffe0d3a <absimm+0x7fee0d3a>
80005754:	deadbeef          	jal	t4,7ffe0d3e <absimm+0x7fee0d3e>
80005758:	deadbeef          	jal	t4,7ffe0d42 <absimm+0x7fee0d42>
8000575c:	deadbeef          	jal	t4,7ffe0d46 <absimm+0x7fee0d46>
80005760:	deadbeef          	jal	t4,7ffe0d4a <absimm+0x7fee0d4a>
80005764:	deadbeef          	jal	t4,7ffe0d4e <absimm+0x7fee0d4e>
80005768:	deadbeef          	jal	t4,7ffe0d52 <absimm+0x7fee0d52>
8000576c:	deadbeef          	jal	t4,7ffe0d56 <absimm+0x7fee0d56>
80005770:	deadbeef          	jal	t4,7ffe0d5a <absimm+0x7fee0d5a>
80005774:	deadbeef          	jal	t4,7ffe0d5e <absimm+0x7fee0d5e>
80005778:	deadbeef          	jal	t4,7ffe0d62 <absimm+0x7fee0d62>
8000577c:	deadbeef          	jal	t4,7ffe0d66 <absimm+0x7fee0d66>
80005780:	deadbeef          	jal	t4,7ffe0d6a <absimm+0x7fee0d6a>
80005784:	deadbeef          	jal	t4,7ffe0d6e <absimm+0x7fee0d6e>
80005788:	deadbeef          	jal	t4,7ffe0d72 <absimm+0x7fee0d72>
8000578c:	deadbeef          	jal	t4,7ffe0d76 <absimm+0x7fee0d76>
80005790:	deadbeef          	jal	t4,7ffe0d7a <absimm+0x7fee0d7a>
80005794:	deadbeef          	jal	t4,7ffe0d7e <absimm+0x7fee0d7e>
80005798:	deadbeef          	jal	t4,7ffe0d82 <absimm+0x7fee0d82>
8000579c:	deadbeef          	jal	t4,7ffe0d86 <absimm+0x7fee0d86>
800057a0:	deadbeef          	jal	t4,7ffe0d8a <absimm+0x7fee0d8a>
800057a4:	deadbeef          	jal	t4,7ffe0d8e <absimm+0x7fee0d8e>
800057a8:	deadbeef          	jal	t4,7ffe0d92 <absimm+0x7fee0d92>
800057ac:	deadbeef          	jal	t4,7ffe0d96 <absimm+0x7fee0d96>
800057b0:	deadbeef          	jal	t4,7ffe0d9a <absimm+0x7fee0d9a>
800057b4:	deadbeef          	jal	t4,7ffe0d9e <absimm+0x7fee0d9e>
800057b8:	deadbeef          	jal	t4,7ffe0da2 <absimm+0x7fee0da2>
800057bc:	deadbeef          	jal	t4,7ffe0da6 <absimm+0x7fee0da6>
800057c0:	deadbeef          	jal	t4,7ffe0daa <absimm+0x7fee0daa>
800057c4:	deadbeef          	jal	t4,7ffe0dae <absimm+0x7fee0dae>
800057c8:	deadbeef          	jal	t4,7ffe0db2 <absimm+0x7fee0db2>
800057cc:	deadbeef          	jal	t4,7ffe0db6 <absimm+0x7fee0db6>
800057d0:	deadbeef          	jal	t4,7ffe0dba <absimm+0x7fee0dba>
800057d4:	deadbeef          	jal	t4,7ffe0dbe <absimm+0x7fee0dbe>
800057d8:	deadbeef          	jal	t4,7ffe0dc2 <absimm+0x7fee0dc2>
800057dc:	deadbeef          	jal	t4,7ffe0dc6 <absimm+0x7fee0dc6>
800057e0:	deadbeef          	jal	t4,7ffe0dca <absimm+0x7fee0dca>
800057e4:	deadbeef          	jal	t4,7ffe0dce <absimm+0x7fee0dce>
800057e8:	deadbeef          	jal	t4,7ffe0dd2 <absimm+0x7fee0dd2>
800057ec:	deadbeef          	jal	t4,7ffe0dd6 <absimm+0x7fee0dd6>
800057f0:	deadbeef          	jal	t4,7ffe0dda <absimm+0x7fee0dda>
800057f4:	deadbeef          	jal	t4,7ffe0dde <absimm+0x7fee0dde>
800057f8:	deadbeef          	jal	t4,7ffe0de2 <absimm+0x7fee0de2>
800057fc:	deadbeef          	jal	t4,7ffe0de6 <absimm+0x7fee0de6>
80005800:	deadbeef          	jal	t4,7ffe0dea <absimm+0x7fee0dea>
80005804:	deadbeef          	jal	t4,7ffe0dee <absimm+0x7fee0dee>
80005808:	deadbeef          	jal	t4,7ffe0df2 <absimm+0x7fee0df2>
8000580c:	deadbeef          	jal	t4,7ffe0df6 <absimm+0x7fee0df6>
80005810:	deadbeef          	jal	t4,7ffe0dfa <absimm+0x7fee0dfa>
80005814:	deadbeef          	jal	t4,7ffe0dfe <absimm+0x7fee0dfe>
80005818:	deadbeef          	jal	t4,7ffe0e02 <absimm+0x7fee0e02>
8000581c:	deadbeef          	jal	t4,7ffe0e06 <absimm+0x7fee0e06>
80005820:	deadbeef          	jal	t4,7ffe0e0a <absimm+0x7fee0e0a>
80005824:	deadbeef          	jal	t4,7ffe0e0e <absimm+0x7fee0e0e>
80005828:	deadbeef          	jal	t4,7ffe0e12 <absimm+0x7fee0e12>
8000582c:	deadbeef          	jal	t4,7ffe0e16 <absimm+0x7fee0e16>
80005830:	deadbeef          	jal	t4,7ffe0e1a <absimm+0x7fee0e1a>
80005834:	deadbeef          	jal	t4,7ffe0e1e <absimm+0x7fee0e1e>
80005838:	deadbeef          	jal	t4,7ffe0e22 <absimm+0x7fee0e22>
8000583c:	deadbeef          	jal	t4,7ffe0e26 <absimm+0x7fee0e26>
80005840:	deadbeef          	jal	t4,7ffe0e2a <absimm+0x7fee0e2a>
80005844:	deadbeef          	jal	t4,7ffe0e2e <absimm+0x7fee0e2e>
80005848:	deadbeef          	jal	t4,7ffe0e32 <absimm+0x7fee0e32>
8000584c:	deadbeef          	jal	t4,7ffe0e36 <absimm+0x7fee0e36>
80005850:	deadbeef          	jal	t4,7ffe0e3a <absimm+0x7fee0e3a>
80005854:	deadbeef          	jal	t4,7ffe0e3e <absimm+0x7fee0e3e>
80005858:	deadbeef          	jal	t4,7ffe0e42 <absimm+0x7fee0e42>
8000585c:	deadbeef          	jal	t4,7ffe0e46 <absimm+0x7fee0e46>
80005860:	deadbeef          	jal	t4,7ffe0e4a <absimm+0x7fee0e4a>
80005864:	deadbeef          	jal	t4,7ffe0e4e <absimm+0x7fee0e4e>
80005868:	deadbeef          	jal	t4,7ffe0e52 <absimm+0x7fee0e52>
8000586c:	deadbeef          	jal	t4,7ffe0e56 <absimm+0x7fee0e56>
80005870:	deadbeef          	jal	t4,7ffe0e5a <absimm+0x7fee0e5a>
80005874:	deadbeef          	jal	t4,7ffe0e5e <absimm+0x7fee0e5e>
80005878:	deadbeef          	jal	t4,7ffe0e62 <absimm+0x7fee0e62>
8000587c:	deadbeef          	jal	t4,7ffe0e66 <absimm+0x7fee0e66>
80005880:	deadbeef          	jal	t4,7ffe0e6a <absimm+0x7fee0e6a>
80005884:	deadbeef          	jal	t4,7ffe0e6e <absimm+0x7fee0e6e>
80005888:	deadbeef          	jal	t4,7ffe0e72 <absimm+0x7fee0e72>
8000588c:	deadbeef          	jal	t4,7ffe0e76 <absimm+0x7fee0e76>
80005890:	deadbeef          	jal	t4,7ffe0e7a <absimm+0x7fee0e7a>
80005894:	deadbeef          	jal	t4,7ffe0e7e <absimm+0x7fee0e7e>
80005898:	deadbeef          	jal	t4,7ffe0e82 <absimm+0x7fee0e82>
8000589c:	deadbeef          	jal	t4,7ffe0e86 <absimm+0x7fee0e86>
800058a0:	deadbeef          	jal	t4,7ffe0e8a <absimm+0x7fee0e8a>
800058a4:	deadbeef          	jal	t4,7ffe0e8e <absimm+0x7fee0e8e>
800058a8:	deadbeef          	jal	t4,7ffe0e92 <absimm+0x7fee0e92>
800058ac:	deadbeef          	jal	t4,7ffe0e96 <absimm+0x7fee0e96>
800058b0:	deadbeef          	jal	t4,7ffe0e9a <absimm+0x7fee0e9a>
800058b4:	deadbeef          	jal	t4,7ffe0e9e <absimm+0x7fee0e9e>
800058b8:	deadbeef          	jal	t4,7ffe0ea2 <absimm+0x7fee0ea2>
800058bc:	deadbeef          	jal	t4,7ffe0ea6 <absimm+0x7fee0ea6>
800058c0:	deadbeef          	jal	t4,7ffe0eaa <absimm+0x7fee0eaa>
800058c4:	deadbeef          	jal	t4,7ffe0eae <absimm+0x7fee0eae>
800058c8:	deadbeef          	jal	t4,7ffe0eb2 <absimm+0x7fee0eb2>
800058cc:	deadbeef          	jal	t4,7ffe0eb6 <absimm+0x7fee0eb6>
800058d0:	deadbeef          	jal	t4,7ffe0eba <absimm+0x7fee0eba>
800058d4:	deadbeef          	jal	t4,7ffe0ebe <absimm+0x7fee0ebe>
800058d8:	deadbeef          	jal	t4,7ffe0ec2 <absimm+0x7fee0ec2>
800058dc:	deadbeef          	jal	t4,7ffe0ec6 <absimm+0x7fee0ec6>
800058e0:	deadbeef          	jal	t4,7ffe0eca <absimm+0x7fee0eca>
800058e4:	deadbeef          	jal	t4,7ffe0ece <absimm+0x7fee0ece>
800058e8:	deadbeef          	jal	t4,7ffe0ed2 <absimm+0x7fee0ed2>
800058ec:	deadbeef          	jal	t4,7ffe0ed6 <absimm+0x7fee0ed6>
800058f0:	deadbeef          	jal	t4,7ffe0eda <absimm+0x7fee0eda>
800058f4:	deadbeef          	jal	t4,7ffe0ede <absimm+0x7fee0ede>
800058f8:	deadbeef          	jal	t4,7ffe0ee2 <absimm+0x7fee0ee2>
800058fc:	deadbeef          	jal	t4,7ffe0ee6 <absimm+0x7fee0ee6>
80005900:	deadbeef          	jal	t4,7ffe0eea <absimm+0x7fee0eea>
80005904:	deadbeef          	jal	t4,7ffe0eee <absimm+0x7fee0eee>
80005908:	deadbeef          	jal	t4,7ffe0ef2 <absimm+0x7fee0ef2>
8000590c:	deadbeef          	jal	t4,7ffe0ef6 <absimm+0x7fee0ef6>
80005910:	deadbeef          	jal	t4,7ffe0efa <absimm+0x7fee0efa>
80005914:	deadbeef          	jal	t4,7ffe0efe <absimm+0x7fee0efe>
80005918:	deadbeef          	jal	t4,7ffe0f02 <absimm+0x7fee0f02>
8000591c:	deadbeef          	jal	t4,7ffe0f06 <absimm+0x7fee0f06>
80005920:	deadbeef          	jal	t4,7ffe0f0a <absimm+0x7fee0f0a>
80005924:	deadbeef          	jal	t4,7ffe0f0e <absimm+0x7fee0f0e>
80005928:	deadbeef          	jal	t4,7ffe0f12 <absimm+0x7fee0f12>
8000592c:	deadbeef          	jal	t4,7ffe0f16 <absimm+0x7fee0f16>
80005930:	deadbeef          	jal	t4,7ffe0f1a <absimm+0x7fee0f1a>
80005934:	deadbeef          	jal	t4,7ffe0f1e <absimm+0x7fee0f1e>
80005938:	deadbeef          	jal	t4,7ffe0f22 <absimm+0x7fee0f22>
8000593c:	deadbeef          	jal	t4,7ffe0f26 <absimm+0x7fee0f26>
80005940:	deadbeef          	jal	t4,7ffe0f2a <absimm+0x7fee0f2a>
80005944:	deadbeef          	jal	t4,7ffe0f2e <absimm+0x7fee0f2e>
80005948:	deadbeef          	jal	t4,7ffe0f32 <absimm+0x7fee0f32>
8000594c:	deadbeef          	jal	t4,7ffe0f36 <absimm+0x7fee0f36>
80005950:	deadbeef          	jal	t4,7ffe0f3a <absimm+0x7fee0f3a>
80005954:	deadbeef          	jal	t4,7ffe0f3e <absimm+0x7fee0f3e>
80005958:	deadbeef          	jal	t4,7ffe0f42 <absimm+0x7fee0f42>
8000595c:	deadbeef          	jal	t4,7ffe0f46 <absimm+0x7fee0f46>
80005960:	deadbeef          	jal	t4,7ffe0f4a <absimm+0x7fee0f4a>
80005964:	deadbeef          	jal	t4,7ffe0f4e <absimm+0x7fee0f4e>
80005968:	deadbeef          	jal	t4,7ffe0f52 <absimm+0x7fee0f52>
8000596c:	deadbeef          	jal	t4,7ffe0f56 <absimm+0x7fee0f56>

80005970 <signature_x1_1>:
80005970:	deadbeef          	jal	t4,7ffe0f5a <absimm+0x7fee0f5a>
80005974:	deadbeef          	jal	t4,7ffe0f5e <absimm+0x7fee0f5e>
80005978:	deadbeef          	jal	t4,7ffe0f62 <absimm+0x7fee0f62>
8000597c:	deadbeef          	jal	t4,7ffe0f66 <absimm+0x7fee0f66>
80005980:	deadbeef          	jal	t4,7ffe0f6a <absimm+0x7fee0f6a>
80005984:	deadbeef          	jal	t4,7ffe0f6e <absimm+0x7fee0f6e>
80005988:	deadbeef          	jal	t4,7ffe0f72 <absimm+0x7fee0f72>
8000598c:	deadbeef          	jal	t4,7ffe0f76 <absimm+0x7fee0f76>
80005990:	deadbeef          	jal	t4,7ffe0f7a <absimm+0x7fee0f7a>
80005994:	deadbeef          	jal	t4,7ffe0f7e <absimm+0x7fee0f7e>
80005998:	deadbeef          	jal	t4,7ffe0f82 <absimm+0x7fee0f82>
8000599c:	deadbeef          	jal	t4,7ffe0f86 <absimm+0x7fee0f86>
800059a0:	deadbeef          	jal	t4,7ffe0f8a <absimm+0x7fee0f8a>
800059a4:	deadbeef          	jal	t4,7ffe0f8e <absimm+0x7fee0f8e>
800059a8:	deadbeef          	jal	t4,7ffe0f92 <absimm+0x7fee0f92>
800059ac:	deadbeef          	jal	t4,7ffe0f96 <absimm+0x7fee0f96>
800059b0:	deadbeef          	jal	t4,7ffe0f9a <absimm+0x7fee0f9a>
800059b4:	deadbeef          	jal	t4,7ffe0f9e <absimm+0x7fee0f9e>
800059b8:	deadbeef          	jal	t4,7ffe0fa2 <absimm+0x7fee0fa2>
800059bc:	deadbeef          	jal	t4,7ffe0fa6 <absimm+0x7fee0fa6>
800059c0:	deadbeef          	jal	t4,7ffe0faa <absimm+0x7fee0faa>
800059c4:	deadbeef          	jal	t4,7ffe0fae <absimm+0x7fee0fae>
800059c8:	deadbeef          	jal	t4,7ffe0fb2 <absimm+0x7fee0fb2>
800059cc:	deadbeef          	jal	t4,7ffe0fb6 <absimm+0x7fee0fb6>
800059d0:	deadbeef          	jal	t4,7ffe0fba <absimm+0x7fee0fba>

800059d4 <sig_end_canary>:
800059d4:	a309                	j	80005ed6 <_end+0x4f6>
800059d6:	6f5c                	flw	fa5,28(a4)

800059d8 <rvtest_sig_end>:
	...

Disassembly of section .riscv.attributes:

00000000 <.riscv.attributes>:
   0:	1941                	addi	s2,s2,-16
   2:	0000                	unimp
   4:	7200                	flw	fs0,32(a2)
   6:	7369                	lui	t1,0xffffa
   8:	01007663          	bgeu	zero,a6,14 <edge1>
   c:	0000000f          	fence	unknown,unknown
  10:	7205                	lui	tp,0xfffe1
  12:	3376                	fld	ft6,376(sp)
  14:	6932                	flw	fs2,12(sp)
  16:	7032                	flw	ft0,44(sp)
  18:	0030                	addi	a2,sp,8

Disassembly of section .debug_line:

00000000 <.debug_line>:
   0:	0dc9                	addi	s11,s11,18
   2:	0000                	unimp
   4:	00750003          	lb	zero,7(a0)
   8:	0000                	unimp
   a:	0101                	addi	sp,sp,0
   c:	000d0efb          	0xd0efb
  10:	0101                	addi	sp,sp,0
  12:	0101                	addi	sp,sp,0
  14:	0000                	unimp
  16:	0100                	addi	s0,sp,128
  18:	0000                	unimp
  1a:	2f01                	jal	72a <offset+0x6c6>
  1c:	6f68                	flw	fa0,92(a4)
  1e:	656d                	lui	a0,0x1b
  20:	766f6c2f          	0x766f6c2f
  24:	7369                	lui	t1,0xffffa
  26:	7365442f          	0x7365442f
  2a:	706f746b          	0x706f746b
  2e:	5669522f          	0x5669522f
  32:	7265                	lui	tp,0xffff9
  34:	635f 726f 2f65      	0x2f65726f635f
  3a:	6972                	flw	fs2,28(sp)
  3c:	666f6373          	csrrsi	t1,0x666,30
  40:	7369722f          	0x7369722f
  44:	612d7663          	bgeu	s10,s2,650 <offset+0x5ec>
  48:	6372                	flw	ft6,28(sp)
  4a:	2d68                	fld	fa0,216(a0)
  4c:	6574                	flw	fa3,76(a0)
  4e:	722f7473          	csrrci	s0,0x722,30
  52:	7369                	lui	t1,0xffffa
  54:	742d7663          	bgeu	s10,sp,7a0 <offset+0x73c>
  58:	7365                	lui	t1,0xffff9
  5a:	2d74                	fld	fa3,216(a0)
  5c:	74697573          	csrrci	a0,0x746,18
  60:	2f65                	jal	818 <offset+0x7b4>
  62:	7672                	flw	fa2,60(sp)
  64:	5f693233          	0x5f693233
  68:	2f6d                	jal	822 <offset+0x7be>
  6a:	2f49                	jal	7fc <offset+0x798>
  6c:	00637273          	csrrci	tp,0x6,6
  70:	7300                	flw	fs0,32(a4)
  72:	746c                	flw	fa1,108(s0)
  74:	2d69                	jal	70e <offset+0x6aa>
  76:	3130                	fld	fa2,96(a0)
  78:	532e                	lw	t1,232(sp)
  7a:	0100                	addi	s0,sp,128
  7c:	0000                	unimp
  7e:	0000                	unimp
  80:	0205                	addi	tp,tp,1
  82:	0000                	unimp
  84:	8000                	0x8000
  86:	03011903          	lh	s2,48(sp)
  8a:	0906                	slli	s2,s2,0x1
  8c:	0078                	addi	a4,sp,12
  8e:	0301                	addi	t1,t1,0
  90:	0905                	addi	s2,s2,1
  92:	0008                	0x8
  94:	0301                	addi	t1,t1,0
  96:	0905                	addi	s2,s2,1
  98:	000c                	0xc
  9a:	0301                	addi	t1,t1,0
  9c:	0905                	addi	s2,s2,1
  9e:	0010                	0x10
  a0:	0301                	addi	t1,t1,0
  a2:	0905                	addi	s2,s2,1
  a4:	000c                	0xc
  a6:	0301                	addi	t1,t1,0
  a8:	0905                	addi	s2,s2,1
  aa:	000c                	0xc
  ac:	0301                	addi	t1,t1,0
  ae:	0905                	addi	s2,s2,1
  b0:	000c                	0xc
  b2:	0301                	addi	t1,t1,0
  b4:	0905                	addi	s2,s2,1
  b6:	000c                	0xc
  b8:	0301                	addi	t1,t1,0
  ba:	0905                	addi	s2,s2,1
  bc:	0010                	0x10
  be:	0301                	addi	t1,t1,0
  c0:	0905                	addi	s2,s2,1
  c2:	000c                	0xc
  c4:	0301                	addi	t1,t1,0
  c6:	0905                	addi	s2,s2,1
  c8:	000c                	0xc
  ca:	0301                	addi	t1,t1,0
  cc:	0905                	addi	s2,s2,1
  ce:	0010                	0x10
  d0:	0301                	addi	t1,t1,0
  d2:	0905                	addi	s2,s2,1
  d4:	0010                	0x10
  d6:	0301                	addi	t1,t1,0
  d8:	0905                	addi	s2,s2,1
  da:	0010                	0x10
  dc:	0301                	addi	t1,t1,0
  de:	0905                	addi	s2,s2,1
  e0:	000c                	0xc
  e2:	0301                	addi	t1,t1,0
  e4:	0905                	addi	s2,s2,1
  e6:	0010                	0x10
  e8:	0301                	addi	t1,t1,0
  ea:	0905                	addi	s2,s2,1
  ec:	0010                	0x10
  ee:	0301                	addi	t1,t1,0
  f0:	0905                	addi	s2,s2,1
  f2:	0010                	0x10
  f4:	0301                	addi	t1,t1,0
  f6:	0905                	addi	s2,s2,1
  f8:	000c                	0xc
  fa:	0301                	addi	t1,t1,0
  fc:	0905                	addi	s2,s2,1
  fe:	000c                	0xc
 100:	0301                	addi	t1,t1,0
 102:	0905                	addi	s2,s2,1
 104:	0010                	0x10
 106:	0301                	addi	t1,t1,0
 108:	0905                	addi	s2,s2,1
 10a:	000c                	0xc
 10c:	0301                	addi	t1,t1,0
 10e:	0905                	addi	s2,s2,1
 110:	0010                	0x10
 112:	0301                	addi	t1,t1,0
 114:	0905                	addi	s2,s2,1
 116:	0010                	0x10
 118:	0301                	addi	t1,t1,0
 11a:	0901                	addi	s2,s2,0
 11c:	0010                	0x10
 11e:	0301                	addi	t1,t1,0
 120:	0905                	addi	s2,s2,1
 122:	0008                	0x8
 124:	0301                	addi	t1,t1,0
 126:	0905                	addi	s2,s2,1
 128:	0010                	0x10
 12a:	0301                	addi	t1,t1,0
 12c:	0905                	addi	s2,s2,1
 12e:	000c                	0xc
 130:	0301                	addi	t1,t1,0
 132:	0905                	addi	s2,s2,1
 134:	0010                	0x10
 136:	0301                	addi	t1,t1,0
 138:	0905                	addi	s2,s2,1
 13a:	000c                	0xc
 13c:	0301                	addi	t1,t1,0
 13e:	0905                	addi	s2,s2,1
 140:	0010                	0x10
 142:	0301                	addi	t1,t1,0
 144:	0905                	addi	s2,s2,1
 146:	000c                	0xc
 148:	0301                	addi	t1,t1,0
 14a:	0905                	addi	s2,s2,1
 14c:	000c                	0xc
 14e:	0301                	addi	t1,t1,0
 150:	0905                	addi	s2,s2,1
 152:	000c                	0xc
 154:	0301                	addi	t1,t1,0
 156:	0905                	addi	s2,s2,1
 158:	000c                	0xc
 15a:	0301                	addi	t1,t1,0
 15c:	0905                	addi	s2,s2,1
 15e:	000c                	0xc
 160:	0301                	addi	t1,t1,0
 162:	0905                	addi	s2,s2,1
 164:	000c                	0xc
 166:	0301                	addi	t1,t1,0
 168:	0905                	addi	s2,s2,1
 16a:	000c                	0xc
 16c:	0301                	addi	t1,t1,0
 16e:	0905                	addi	s2,s2,1
 170:	000c                	0xc
 172:	0301                	addi	t1,t1,0
 174:	0905                	addi	s2,s2,1
 176:	000c                	0xc
 178:	0301                	addi	t1,t1,0
 17a:	0905                	addi	s2,s2,1
 17c:	000c                	0xc
 17e:	0301                	addi	t1,t1,0
 180:	0905                	addi	s2,s2,1
 182:	0010                	0x10
 184:	0301                	addi	t1,t1,0
 186:	0905                	addi	s2,s2,1
 188:	000c                	0xc
 18a:	0301                	addi	t1,t1,0
 18c:	0905                	addi	s2,s2,1
 18e:	000c                	0xc
 190:	0301                	addi	t1,t1,0
 192:	0905                	addi	s2,s2,1
 194:	000c                	0xc
 196:	0301                	addi	t1,t1,0
 198:	0905                	addi	s2,s2,1
 19a:	000c                	0xc
 19c:	0301                	addi	t1,t1,0
 19e:	0905                	addi	s2,s2,1
 1a0:	000c                	0xc
 1a2:	0301                	addi	t1,t1,0
 1a4:	0905                	addi	s2,s2,1
 1a6:	000c                	0xc
 1a8:	0301                	addi	t1,t1,0
 1aa:	0905                	addi	s2,s2,1
 1ac:	000c                	0xc
 1ae:	0301                	addi	t1,t1,0
 1b0:	0905                	addi	s2,s2,1
 1b2:	000c                	0xc
 1b4:	0301                	addi	t1,t1,0
 1b6:	0905                	addi	s2,s2,1
 1b8:	000c                	0xc
 1ba:	0301                	addi	t1,t1,0
 1bc:	0905                	addi	s2,s2,1
 1be:	000c                	0xc
 1c0:	0301                	addi	t1,t1,0
 1c2:	0905                	addi	s2,s2,1
 1c4:	000c                	0xc
 1c6:	0301                	addi	t1,t1,0
 1c8:	0905                	addi	s2,s2,1
 1ca:	000c                	0xc
 1cc:	0301                	addi	t1,t1,0
 1ce:	0905                	addi	s2,s2,1
 1d0:	000c                	0xc
 1d2:	0301                	addi	t1,t1,0
 1d4:	0905                	addi	s2,s2,1
 1d6:	000c                	0xc
 1d8:	0301                	addi	t1,t1,0
 1da:	0905                	addi	s2,s2,1
 1dc:	000c                	0xc
 1de:	0301                	addi	t1,t1,0
 1e0:	0905                	addi	s2,s2,1
 1e2:	000c                	0xc
 1e4:	0301                	addi	t1,t1,0
 1e6:	0905                	addi	s2,s2,1
 1e8:	000c                	0xc
 1ea:	0301                	addi	t1,t1,0
 1ec:	0905                	addi	s2,s2,1
 1ee:	000c                	0xc
 1f0:	0301                	addi	t1,t1,0
 1f2:	0905                	addi	s2,s2,1
 1f4:	000c                	0xc
 1f6:	0301                	addi	t1,t1,0
 1f8:	0905                	addi	s2,s2,1
 1fa:	000c                	0xc
 1fc:	0301                	addi	t1,t1,0
 1fe:	0905                	addi	s2,s2,1
 200:	000c                	0xc
 202:	0301                	addi	t1,t1,0
 204:	0905                	addi	s2,s2,1
 206:	000c                	0xc
 208:	0301                	addi	t1,t1,0
 20a:	0905                	addi	s2,s2,1
 20c:	000c                	0xc
 20e:	0301                	addi	t1,t1,0
 210:	0905                	addi	s2,s2,1
 212:	000c                	0xc
 214:	0301                	addi	t1,t1,0
 216:	0905                	addi	s2,s2,1
 218:	000c                	0xc
 21a:	0301                	addi	t1,t1,0
 21c:	0905                	addi	s2,s2,1
 21e:	0010                	0x10
 220:	0301                	addi	t1,t1,0
 222:	0905                	addi	s2,s2,1
 224:	0010                	0x10
 226:	0301                	addi	t1,t1,0
 228:	0905                	addi	s2,s2,1
 22a:	0010                	0x10
 22c:	0301                	addi	t1,t1,0
 22e:	0905                	addi	s2,s2,1
 230:	0010                	0x10
 232:	0301                	addi	t1,t1,0
 234:	0905                	addi	s2,s2,1
 236:	0010                	0x10
 238:	0301                	addi	t1,t1,0
 23a:	0905                	addi	s2,s2,1
 23c:	0010                	0x10
 23e:	0301                	addi	t1,t1,0
 240:	0905                	addi	s2,s2,1
 242:	0010                	0x10
 244:	0301                	addi	t1,t1,0
 246:	0905                	addi	s2,s2,1
 248:	0010                	0x10
 24a:	0301                	addi	t1,t1,0
 24c:	0905                	addi	s2,s2,1
 24e:	0010                	0x10
 250:	0301                	addi	t1,t1,0
 252:	0905                	addi	s2,s2,1
 254:	0010                	0x10
 256:	0301                	addi	t1,t1,0
 258:	0905                	addi	s2,s2,1
 25a:	0010                	0x10
 25c:	0301                	addi	t1,t1,0
 25e:	0905                	addi	s2,s2,1
 260:	0010                	0x10
 262:	0301                	addi	t1,t1,0
 264:	0905                	addi	s2,s2,1
 266:	0010                	0x10
 268:	0301                	addi	t1,t1,0
 26a:	0905                	addi	s2,s2,1
 26c:	0010                	0x10
 26e:	0301                	addi	t1,t1,0
 270:	0905                	addi	s2,s2,1
 272:	0010                	0x10
 274:	0301                	addi	t1,t1,0
 276:	0905                	addi	s2,s2,1
 278:	000c                	0xc
 27a:	0301                	addi	t1,t1,0
 27c:	0905                	addi	s2,s2,1
 27e:	000c                	0xc
 280:	0301                	addi	t1,t1,0
 282:	0905                	addi	s2,s2,1
 284:	000c                	0xc
 286:	0301                	addi	t1,t1,0
 288:	0905                	addi	s2,s2,1
 28a:	000c                	0xc
 28c:	0301                	addi	t1,t1,0
 28e:	0905                	addi	s2,s2,1
 290:	000c                	0xc
 292:	0301                	addi	t1,t1,0
 294:	0905                	addi	s2,s2,1
 296:	000c                	0xc
 298:	0301                	addi	t1,t1,0
 29a:	0905                	addi	s2,s2,1
 29c:	000c                	0xc
 29e:	0301                	addi	t1,t1,0
 2a0:	0905                	addi	s2,s2,1
 2a2:	000c                	0xc
 2a4:	0301                	addi	t1,t1,0
 2a6:	0905                	addi	s2,s2,1
 2a8:	000c                	0xc
 2aa:	0301                	addi	t1,t1,0
 2ac:	0905                	addi	s2,s2,1
 2ae:	000c                	0xc
 2b0:	0301                	addi	t1,t1,0
 2b2:	0905                	addi	s2,s2,1
 2b4:	000c                	0xc
 2b6:	0301                	addi	t1,t1,0
 2b8:	0905                	addi	s2,s2,1
 2ba:	000c                	0xc
 2bc:	0301                	addi	t1,t1,0
 2be:	0905                	addi	s2,s2,1
 2c0:	000c                	0xc
 2c2:	0301                	addi	t1,t1,0
 2c4:	0905                	addi	s2,s2,1
 2c6:	000c                	0xc
 2c8:	0301                	addi	t1,t1,0
 2ca:	0905                	addi	s2,s2,1
 2cc:	000c                	0xc
 2ce:	0301                	addi	t1,t1,0
 2d0:	0905                	addi	s2,s2,1
 2d2:	000c                	0xc
 2d4:	0301                	addi	t1,t1,0
 2d6:	0905                	addi	s2,s2,1
 2d8:	000c                	0xc
 2da:	0301                	addi	t1,t1,0
 2dc:	0905                	addi	s2,s2,1
 2de:	000c                	0xc
 2e0:	0301                	addi	t1,t1,0
 2e2:	0905                	addi	s2,s2,1
 2e4:	000c                	0xc
 2e6:	0301                	addi	t1,t1,0
 2e8:	0905                	addi	s2,s2,1
 2ea:	000c                	0xc
 2ec:	0301                	addi	t1,t1,0
 2ee:	0905                	addi	s2,s2,1
 2f0:	000c                	0xc
 2f2:	0301                	addi	t1,t1,0
 2f4:	0905                	addi	s2,s2,1
 2f6:	000c                	0xc
 2f8:	0301                	addi	t1,t1,0
 2fa:	0905                	addi	s2,s2,1
 2fc:	0010                	0x10
 2fe:	0301                	addi	t1,t1,0
 300:	0905                	addi	s2,s2,1
 302:	0010                	0x10
 304:	0301                	addi	t1,t1,0
 306:	0905                	addi	s2,s2,1
 308:	0010                	0x10
 30a:	0301                	addi	t1,t1,0
 30c:	0905                	addi	s2,s2,1
 30e:	0010                	0x10
 310:	0301                	addi	t1,t1,0
 312:	0905                	addi	s2,s2,1
 314:	0010                	0x10
 316:	0301                	addi	t1,t1,0
 318:	0905                	addi	s2,s2,1
 31a:	0010                	0x10
 31c:	0301                	addi	t1,t1,0
 31e:	0905                	addi	s2,s2,1
 320:	0010                	0x10
 322:	0301                	addi	t1,t1,0
 324:	0905                	addi	s2,s2,1
 326:	0010                	0x10
 328:	0301                	addi	t1,t1,0
 32a:	0905                	addi	s2,s2,1
 32c:	0010                	0x10
 32e:	0301                	addi	t1,t1,0
 330:	0905                	addi	s2,s2,1
 332:	0010                	0x10
 334:	0301                	addi	t1,t1,0
 336:	0905                	addi	s2,s2,1
 338:	0010                	0x10
 33a:	0301                	addi	t1,t1,0
 33c:	0905                	addi	s2,s2,1
 33e:	0010                	0x10
 340:	0301                	addi	t1,t1,0
 342:	0905                	addi	s2,s2,1
 344:	0010                	0x10
 346:	0301                	addi	t1,t1,0
 348:	0905                	addi	s2,s2,1
 34a:	0010                	0x10
 34c:	0301                	addi	t1,t1,0
 34e:	0905                	addi	s2,s2,1
 350:	0010                	0x10
 352:	0301                	addi	t1,t1,0
 354:	0905                	addi	s2,s2,1
 356:	0010                	0x10
 358:	0301                	addi	t1,t1,0
 35a:	0905                	addi	s2,s2,1
 35c:	0010                	0x10
 35e:	0301                	addi	t1,t1,0
 360:	0905                	addi	s2,s2,1
 362:	0010                	0x10
 364:	0301                	addi	t1,t1,0
 366:	0905                	addi	s2,s2,1
 368:	0010                	0x10
 36a:	0301                	addi	t1,t1,0
 36c:	0905                	addi	s2,s2,1
 36e:	0010                	0x10
 370:	0301                	addi	t1,t1,0
 372:	0905                	addi	s2,s2,1
 374:	0010                	0x10
 376:	0301                	addi	t1,t1,0
 378:	0905                	addi	s2,s2,1
 37a:	0010                	0x10
 37c:	0301                	addi	t1,t1,0
 37e:	0905                	addi	s2,s2,1
 380:	0010                	0x10
 382:	0301                	addi	t1,t1,0
 384:	0905                	addi	s2,s2,1
 386:	0010                	0x10
 388:	0301                	addi	t1,t1,0
 38a:	0905                	addi	s2,s2,1
 38c:	0010                	0x10
 38e:	0301                	addi	t1,t1,0
 390:	0905                	addi	s2,s2,1
 392:	0010                	0x10
 394:	0301                	addi	t1,t1,0
 396:	0905                	addi	s2,s2,1
 398:	0010                	0x10
 39a:	0301                	addi	t1,t1,0
 39c:	0905                	addi	s2,s2,1
 39e:	0010                	0x10
 3a0:	0301                	addi	t1,t1,0
 3a2:	0905                	addi	s2,s2,1
 3a4:	0010                	0x10
 3a6:	0301                	addi	t1,t1,0
 3a8:	0905                	addi	s2,s2,1
 3aa:	0010                	0x10
 3ac:	0301                	addi	t1,t1,0
 3ae:	0905                	addi	s2,s2,1
 3b0:	0010                	0x10
 3b2:	0301                	addi	t1,t1,0
 3b4:	0905                	addi	s2,s2,1
 3b6:	0010                	0x10
 3b8:	0301                	addi	t1,t1,0
 3ba:	0905                	addi	s2,s2,1
 3bc:	0010                	0x10
 3be:	0301                	addi	t1,t1,0
 3c0:	0905                	addi	s2,s2,1
 3c2:	0010                	0x10
 3c4:	0301                	addi	t1,t1,0
 3c6:	0905                	addi	s2,s2,1
 3c8:	0010                	0x10
 3ca:	0301                	addi	t1,t1,0
 3cc:	0905                	addi	s2,s2,1
 3ce:	0010                	0x10
 3d0:	0301                	addi	t1,t1,0
 3d2:	0905                	addi	s2,s2,1
 3d4:	0010                	0x10
 3d6:	0301                	addi	t1,t1,0
 3d8:	0905                	addi	s2,s2,1
 3da:	0010                	0x10
 3dc:	0301                	addi	t1,t1,0
 3de:	0905                	addi	s2,s2,1
 3e0:	0010                	0x10
 3e2:	0301                	addi	t1,t1,0
 3e4:	0905                	addi	s2,s2,1
 3e6:	0010                	0x10
 3e8:	0301                	addi	t1,t1,0
 3ea:	0905                	addi	s2,s2,1
 3ec:	0010                	0x10
 3ee:	0301                	addi	t1,t1,0
 3f0:	0905                	addi	s2,s2,1
 3f2:	0010                	0x10
 3f4:	0301                	addi	t1,t1,0
 3f6:	0905                	addi	s2,s2,1
 3f8:	0010                	0x10
 3fa:	0301                	addi	t1,t1,0
 3fc:	0905                	addi	s2,s2,1
 3fe:	000c                	0xc
 400:	0301                	addi	t1,t1,0
 402:	0905                	addi	s2,s2,1
 404:	000c                	0xc
 406:	0301                	addi	t1,t1,0
 408:	0905                	addi	s2,s2,1
 40a:	000c                	0xc
 40c:	0301                	addi	t1,t1,0
 40e:	0905                	addi	s2,s2,1
 410:	000c                	0xc
 412:	0301                	addi	t1,t1,0
 414:	0905                	addi	s2,s2,1
 416:	000c                	0xc
 418:	0301                	addi	t1,t1,0
 41a:	0905                	addi	s2,s2,1
 41c:	000c                	0xc
 41e:	0301                	addi	t1,t1,0
 420:	0905                	addi	s2,s2,1
 422:	000c                	0xc
 424:	0301                	addi	t1,t1,0
 426:	0905                	addi	s2,s2,1
 428:	000c                	0xc
 42a:	0301                	addi	t1,t1,0
 42c:	0905                	addi	s2,s2,1
 42e:	000c                	0xc
 430:	0301                	addi	t1,t1,0
 432:	0905                	addi	s2,s2,1
 434:	000c                	0xc
 436:	0301                	addi	t1,t1,0
 438:	0905                	addi	s2,s2,1
 43a:	000c                	0xc
 43c:	0301                	addi	t1,t1,0
 43e:	0905                	addi	s2,s2,1
 440:	000c                	0xc
 442:	0301                	addi	t1,t1,0
 444:	0905                	addi	s2,s2,1
 446:	000c                	0xc
 448:	0301                	addi	t1,t1,0
 44a:	0905                	addi	s2,s2,1
 44c:	000c                	0xc
 44e:	0301                	addi	t1,t1,0
 450:	0905                	addi	s2,s2,1
 452:	000c                	0xc
 454:	0301                	addi	t1,t1,0
 456:	0905                	addi	s2,s2,1
 458:	000c                	0xc
 45a:	0301                	addi	t1,t1,0
 45c:	0905                	addi	s2,s2,1
 45e:	000c                	0xc
 460:	0301                	addi	t1,t1,0
 462:	0905                	addi	s2,s2,1
 464:	000c                	0xc
 466:	0301                	addi	t1,t1,0
 468:	0905                	addi	s2,s2,1
 46a:	000c                	0xc
 46c:	0301                	addi	t1,t1,0
 46e:	0905                	addi	s2,s2,1
 470:	000c                	0xc
 472:	0301                	addi	t1,t1,0
 474:	0905                	addi	s2,s2,1
 476:	000c                	0xc
 478:	0301                	addi	t1,t1,0
 47a:	0905                	addi	s2,s2,1
 47c:	000c                	0xc
 47e:	0301                	addi	t1,t1,0
 480:	0905                	addi	s2,s2,1
 482:	0010                	0x10
 484:	0301                	addi	t1,t1,0
 486:	0905                	addi	s2,s2,1
 488:	0010                	0x10
 48a:	0301                	addi	t1,t1,0
 48c:	0905                	addi	s2,s2,1
 48e:	0010                	0x10
 490:	0301                	addi	t1,t1,0
 492:	0905                	addi	s2,s2,1
 494:	0010                	0x10
 496:	0301                	addi	t1,t1,0
 498:	0905                	addi	s2,s2,1
 49a:	0010                	0x10
 49c:	0301                	addi	t1,t1,0
 49e:	0905                	addi	s2,s2,1
 4a0:	0010                	0x10
 4a2:	0301                	addi	t1,t1,0
 4a4:	0905                	addi	s2,s2,1
 4a6:	0010                	0x10
 4a8:	0301                	addi	t1,t1,0
 4aa:	0905                	addi	s2,s2,1
 4ac:	0010                	0x10
 4ae:	0301                	addi	t1,t1,0
 4b0:	0905                	addi	s2,s2,1
 4b2:	0010                	0x10
 4b4:	0301                	addi	t1,t1,0
 4b6:	0905                	addi	s2,s2,1
 4b8:	0010                	0x10
 4ba:	0301                	addi	t1,t1,0
 4bc:	0905                	addi	s2,s2,1
 4be:	0010                	0x10
 4c0:	0301                	addi	t1,t1,0
 4c2:	0905                	addi	s2,s2,1
 4c4:	0010                	0x10
 4c6:	0301                	addi	t1,t1,0
 4c8:	0905                	addi	s2,s2,1
 4ca:	0010                	0x10
 4cc:	0301                	addi	t1,t1,0
 4ce:	0905                	addi	s2,s2,1
 4d0:	0010                	0x10
 4d2:	0301                	addi	t1,t1,0
 4d4:	0905                	addi	s2,s2,1
 4d6:	0010                	0x10
 4d8:	0301                	addi	t1,t1,0
 4da:	0905                	addi	s2,s2,1
 4dc:	0010                	0x10
 4de:	0301                	addi	t1,t1,0
 4e0:	0905                	addi	s2,s2,1
 4e2:	0010                	0x10
 4e4:	0301                	addi	t1,t1,0
 4e6:	0905                	addi	s2,s2,1
 4e8:	0010                	0x10
 4ea:	0301                	addi	t1,t1,0
 4ec:	0905                	addi	s2,s2,1
 4ee:	0010                	0x10
 4f0:	0301                	addi	t1,t1,0
 4f2:	0905                	addi	s2,s2,1
 4f4:	0010                	0x10
 4f6:	0301                	addi	t1,t1,0
 4f8:	0905                	addi	s2,s2,1
 4fa:	0010                	0x10
 4fc:	0301                	addi	t1,t1,0
 4fe:	0905                	addi	s2,s2,1
 500:	0010                	0x10
 502:	0301                	addi	t1,t1,0
 504:	0905                	addi	s2,s2,1
 506:	0010                	0x10
 508:	0301                	addi	t1,t1,0
 50a:	0905                	addi	s2,s2,1
 50c:	0010                	0x10
 50e:	0301                	addi	t1,t1,0
 510:	0905                	addi	s2,s2,1
 512:	0010                	0x10
 514:	0301                	addi	t1,t1,0
 516:	0905                	addi	s2,s2,1
 518:	0010                	0x10
 51a:	0301                	addi	t1,t1,0
 51c:	0905                	addi	s2,s2,1
 51e:	0010                	0x10
 520:	0301                	addi	t1,t1,0
 522:	0905                	addi	s2,s2,1
 524:	0010                	0x10
 526:	0301                	addi	t1,t1,0
 528:	0905                	addi	s2,s2,1
 52a:	0010                	0x10
 52c:	0301                	addi	t1,t1,0
 52e:	0905                	addi	s2,s2,1
 530:	0010                	0x10
 532:	0301                	addi	t1,t1,0
 534:	0905                	addi	s2,s2,1
 536:	0010                	0x10
 538:	0301                	addi	t1,t1,0
 53a:	0905                	addi	s2,s2,1
 53c:	0010                	0x10
 53e:	0301                	addi	t1,t1,0
 540:	0905                	addi	s2,s2,1
 542:	0010                	0x10
 544:	0301                	addi	t1,t1,0
 546:	0905                	addi	s2,s2,1
 548:	0010                	0x10
 54a:	0301                	addi	t1,t1,0
 54c:	0905                	addi	s2,s2,1
 54e:	0010                	0x10
 550:	0301                	addi	t1,t1,0
 552:	0905                	addi	s2,s2,1
 554:	0010                	0x10
 556:	0301                	addi	t1,t1,0
 558:	0905                	addi	s2,s2,1
 55a:	0010                	0x10
 55c:	0301                	addi	t1,t1,0
 55e:	0905                	addi	s2,s2,1
 560:	0010                	0x10
 562:	0301                	addi	t1,t1,0
 564:	0905                	addi	s2,s2,1
 566:	0010                	0x10
 568:	0301                	addi	t1,t1,0
 56a:	0905                	addi	s2,s2,1
 56c:	0010                	0x10
 56e:	0301                	addi	t1,t1,0
 570:	0905                	addi	s2,s2,1
 572:	0010                	0x10
 574:	0301                	addi	t1,t1,0
 576:	0905                	addi	s2,s2,1
 578:	0010                	0x10
 57a:	0301                	addi	t1,t1,0
 57c:	0905                	addi	s2,s2,1
 57e:	0010                	0x10
 580:	0301                	addi	t1,t1,0
 582:	0905                	addi	s2,s2,1
 584:	0010                	0x10
 586:	0301                	addi	t1,t1,0
 588:	0905                	addi	s2,s2,1
 58a:	0010                	0x10
 58c:	0301                	addi	t1,t1,0
 58e:	0905                	addi	s2,s2,1
 590:	0010                	0x10
 592:	0301                	addi	t1,t1,0
 594:	0905                	addi	s2,s2,1
 596:	0010                	0x10
 598:	0301                	addi	t1,t1,0
 59a:	0905                	addi	s2,s2,1
 59c:	0010                	0x10
 59e:	0301                	addi	t1,t1,0
 5a0:	0905                	addi	s2,s2,1
 5a2:	0010                	0x10
 5a4:	0301                	addi	t1,t1,0
 5a6:	0905                	addi	s2,s2,1
 5a8:	0010                	0x10
 5aa:	0301                	addi	t1,t1,0
 5ac:	0905                	addi	s2,s2,1
 5ae:	0010                	0x10
 5b0:	0301                	addi	t1,t1,0
 5b2:	0905                	addi	s2,s2,1
 5b4:	0010                	0x10
 5b6:	0301                	addi	t1,t1,0
 5b8:	0905                	addi	s2,s2,1
 5ba:	0010                	0x10
 5bc:	0301                	addi	t1,t1,0
 5be:	0905                	addi	s2,s2,1
 5c0:	0010                	0x10
 5c2:	0301                	addi	t1,t1,0
 5c4:	0905                	addi	s2,s2,1
 5c6:	0010                	0x10
 5c8:	0301                	addi	t1,t1,0
 5ca:	0905                	addi	s2,s2,1
 5cc:	0010                	0x10
 5ce:	0301                	addi	t1,t1,0
 5d0:	0905                	addi	s2,s2,1
 5d2:	0010                	0x10
 5d4:	0301                	addi	t1,t1,0
 5d6:	0905                	addi	s2,s2,1
 5d8:	0010                	0x10
 5da:	0301                	addi	t1,t1,0
 5dc:	0905                	addi	s2,s2,1
 5de:	0010                	0x10
 5e0:	0301                	addi	t1,t1,0
 5e2:	0905                	addi	s2,s2,1
 5e4:	0010                	0x10
 5e6:	0301                	addi	t1,t1,0
 5e8:	0905                	addi	s2,s2,1
 5ea:	0010                	0x10
 5ec:	0301                	addi	t1,t1,0
 5ee:	0905                	addi	s2,s2,1
 5f0:	0010                	0x10
 5f2:	0301                	addi	t1,t1,0
 5f4:	0905                	addi	s2,s2,1
 5f6:	0010                	0x10
 5f8:	0301                	addi	t1,t1,0
 5fa:	0905                	addi	s2,s2,1
 5fc:	0010                	0x10
 5fe:	0301                	addi	t1,t1,0
 600:	0905                	addi	s2,s2,1
 602:	0010                	0x10
 604:	0301                	addi	t1,t1,0
 606:	0905                	addi	s2,s2,1
 608:	0010                	0x10
 60a:	0301                	addi	t1,t1,0
 60c:	0905                	addi	s2,s2,1
 60e:	0010                	0x10
 610:	0301                	addi	t1,t1,0
 612:	0905                	addi	s2,s2,1
 614:	0010                	0x10
 616:	0301                	addi	t1,t1,0
 618:	0905                	addi	s2,s2,1
 61a:	0010                	0x10
 61c:	0301                	addi	t1,t1,0
 61e:	0905                	addi	s2,s2,1
 620:	0010                	0x10
 622:	0301                	addi	t1,t1,0
 624:	0905                	addi	s2,s2,1
 626:	0010                	0x10
 628:	0301                	addi	t1,t1,0
 62a:	0905                	addi	s2,s2,1
 62c:	0010                	0x10
 62e:	0301                	addi	t1,t1,0
 630:	0905                	addi	s2,s2,1
 632:	0010                	0x10
 634:	0301                	addi	t1,t1,0
 636:	0905                	addi	s2,s2,1
 638:	0010                	0x10
 63a:	0301                	addi	t1,t1,0
 63c:	0905                	addi	s2,s2,1
 63e:	0010                	0x10
 640:	0301                	addi	t1,t1,0
 642:	0905                	addi	s2,s2,1
 644:	0010                	0x10
 646:	0301                	addi	t1,t1,0
 648:	0905                	addi	s2,s2,1
 64a:	0010                	0x10
 64c:	0301                	addi	t1,t1,0
 64e:	0905                	addi	s2,s2,1
 650:	0010                	0x10
 652:	0301                	addi	t1,t1,0
 654:	0905                	addi	s2,s2,1
 656:	0010                	0x10
 658:	0301                	addi	t1,t1,0
 65a:	0905                	addi	s2,s2,1
 65c:	0010                	0x10
 65e:	0301                	addi	t1,t1,0
 660:	0905                	addi	s2,s2,1
 662:	0010                	0x10
 664:	0301                	addi	t1,t1,0
 666:	0905                	addi	s2,s2,1
 668:	0010                	0x10
 66a:	0301                	addi	t1,t1,0
 66c:	0905                	addi	s2,s2,1
 66e:	0010                	0x10
 670:	0301                	addi	t1,t1,0
 672:	0905                	addi	s2,s2,1
 674:	0010                	0x10
 676:	0301                	addi	t1,t1,0
 678:	0905                	addi	s2,s2,1
 67a:	0010                	0x10
 67c:	0301                	addi	t1,t1,0
 67e:	0905                	addi	s2,s2,1
 680:	0010                	0x10
 682:	0301                	addi	t1,t1,0
 684:	0905                	addi	s2,s2,1
 686:	0010                	0x10
 688:	0301                	addi	t1,t1,0
 68a:	0905                	addi	s2,s2,1
 68c:	0010                	0x10
 68e:	0301                	addi	t1,t1,0
 690:	0905                	addi	s2,s2,1
 692:	000c                	0xc
 694:	0301                	addi	t1,t1,0
 696:	0905                	addi	s2,s2,1
 698:	000c                	0xc
 69a:	0301                	addi	t1,t1,0
 69c:	0905                	addi	s2,s2,1
 69e:	000c                	0xc
 6a0:	0301                	addi	t1,t1,0
 6a2:	0905                	addi	s2,s2,1
 6a4:	000c                	0xc
 6a6:	0301                	addi	t1,t1,0
 6a8:	0905                	addi	s2,s2,1
 6aa:	000c                	0xc
 6ac:	0301                	addi	t1,t1,0
 6ae:	0905                	addi	s2,s2,1
 6b0:	000c                	0xc
 6b2:	0301                	addi	t1,t1,0
 6b4:	0905                	addi	s2,s2,1
 6b6:	000c                	0xc
 6b8:	0301                	addi	t1,t1,0
 6ba:	0905                	addi	s2,s2,1
 6bc:	000c                	0xc
 6be:	0301                	addi	t1,t1,0
 6c0:	0905                	addi	s2,s2,1
 6c2:	000c                	0xc
 6c4:	0301                	addi	t1,t1,0
 6c6:	0905                	addi	s2,s2,1
 6c8:	000c                	0xc
 6ca:	0301                	addi	t1,t1,0
 6cc:	0905                	addi	s2,s2,1
 6ce:	000c                	0xc
 6d0:	0301                	addi	t1,t1,0
 6d2:	0905                	addi	s2,s2,1
 6d4:	000c                	0xc
 6d6:	0301                	addi	t1,t1,0
 6d8:	0905                	addi	s2,s2,1
 6da:	000c                	0xc
 6dc:	0301                	addi	t1,t1,0
 6de:	0905                	addi	s2,s2,1
 6e0:	000c                	0xc
 6e2:	0301                	addi	t1,t1,0
 6e4:	0905                	addi	s2,s2,1
 6e6:	000c                	0xc
 6e8:	0301                	addi	t1,t1,0
 6ea:	0905                	addi	s2,s2,1
 6ec:	000c                	0xc
 6ee:	0301                	addi	t1,t1,0
 6f0:	0905                	addi	s2,s2,1
 6f2:	000c                	0xc
 6f4:	0301                	addi	t1,t1,0
 6f6:	0905                	addi	s2,s2,1
 6f8:	000c                	0xc
 6fa:	0301                	addi	t1,t1,0
 6fc:	0905                	addi	s2,s2,1
 6fe:	000c                	0xc
 700:	0301                	addi	t1,t1,0
 702:	0905                	addi	s2,s2,1
 704:	000c                	0xc
 706:	0301                	addi	t1,t1,0
 708:	0905                	addi	s2,s2,1
 70a:	000c                	0xc
 70c:	0301                	addi	t1,t1,0
 70e:	0905                	addi	s2,s2,1
 710:	000c                	0xc
 712:	0301                	addi	t1,t1,0
 714:	0905                	addi	s2,s2,1
 716:	0010                	0x10
 718:	0301                	addi	t1,t1,0
 71a:	0905                	addi	s2,s2,1
 71c:	0010                	0x10
 71e:	0301                	addi	t1,t1,0
 720:	0905                	addi	s2,s2,1
 722:	0010                	0x10
 724:	0301                	addi	t1,t1,0
 726:	0905                	addi	s2,s2,1
 728:	0010                	0x10
 72a:	0301                	addi	t1,t1,0
 72c:	0905                	addi	s2,s2,1
 72e:	0010                	0x10
 730:	0301                	addi	t1,t1,0
 732:	0905                	addi	s2,s2,1
 734:	0010                	0x10
 736:	0301                	addi	t1,t1,0
 738:	0905                	addi	s2,s2,1
 73a:	0010                	0x10
 73c:	0301                	addi	t1,t1,0
 73e:	0905                	addi	s2,s2,1
 740:	0010                	0x10
 742:	0301                	addi	t1,t1,0
 744:	0905                	addi	s2,s2,1
 746:	0010                	0x10
 748:	0301                	addi	t1,t1,0
 74a:	0905                	addi	s2,s2,1
 74c:	0010                	0x10
 74e:	0301                	addi	t1,t1,0
 750:	0905                	addi	s2,s2,1
 752:	0010                	0x10
 754:	0301                	addi	t1,t1,0
 756:	0905                	addi	s2,s2,1
 758:	0010                	0x10
 75a:	0301                	addi	t1,t1,0
 75c:	0905                	addi	s2,s2,1
 75e:	0010                	0x10
 760:	0301                	addi	t1,t1,0
 762:	0905                	addi	s2,s2,1
 764:	0010                	0x10
 766:	0301                	addi	t1,t1,0
 768:	0905                	addi	s2,s2,1
 76a:	0010                	0x10
 76c:	0301                	addi	t1,t1,0
 76e:	0905                	addi	s2,s2,1
 770:	0010                	0x10
 772:	0301                	addi	t1,t1,0
 774:	0905                	addi	s2,s2,1
 776:	0010                	0x10
 778:	0301                	addi	t1,t1,0
 77a:	0905                	addi	s2,s2,1
 77c:	0010                	0x10
 77e:	0301                	addi	t1,t1,0
 780:	0905                	addi	s2,s2,1
 782:	0010                	0x10
 784:	0301                	addi	t1,t1,0
 786:	0905                	addi	s2,s2,1
 788:	0010                	0x10
 78a:	0301                	addi	t1,t1,0
 78c:	0905                	addi	s2,s2,1
 78e:	0010                	0x10
 790:	0301                	addi	t1,t1,0
 792:	0905                	addi	s2,s2,1
 794:	0010                	0x10
 796:	0301                	addi	t1,t1,0
 798:	0905                	addi	s2,s2,1
 79a:	000c                	0xc
 79c:	0301                	addi	t1,t1,0
 79e:	0905                	addi	s2,s2,1
 7a0:	000c                	0xc
 7a2:	0301                	addi	t1,t1,0
 7a4:	0905                	addi	s2,s2,1
 7a6:	000c                	0xc
 7a8:	0301                	addi	t1,t1,0
 7aa:	0905                	addi	s2,s2,1
 7ac:	000c                	0xc
 7ae:	0301                	addi	t1,t1,0
 7b0:	0905                	addi	s2,s2,1
 7b2:	000c                	0xc
 7b4:	0301                	addi	t1,t1,0
 7b6:	0905                	addi	s2,s2,1
 7b8:	000c                	0xc
 7ba:	0301                	addi	t1,t1,0
 7bc:	0905                	addi	s2,s2,1
 7be:	0010                	0x10
 7c0:	0301                	addi	t1,t1,0
 7c2:	0905                	addi	s2,s2,1
 7c4:	0010                	0x10
 7c6:	0301                	addi	t1,t1,0
 7c8:	0905                	addi	s2,s2,1
 7ca:	0010                	0x10
 7cc:	0301                	addi	t1,t1,0
 7ce:	0905                	addi	s2,s2,1
 7d0:	0010                	0x10
 7d2:	0301                	addi	t1,t1,0
 7d4:	0905                	addi	s2,s2,1
 7d6:	0010                	0x10
 7d8:	0301                	addi	t1,t1,0
 7da:	0905                	addi	s2,s2,1
 7dc:	0010                	0x10
 7de:	0301                	addi	t1,t1,0
 7e0:	0905                	addi	s2,s2,1
 7e2:	0010                	0x10
 7e4:	0301                	addi	t1,t1,0
 7e6:	0905                	addi	s2,s2,1
 7e8:	0010                	0x10
 7ea:	0301                	addi	t1,t1,0
 7ec:	0905                	addi	s2,s2,1
 7ee:	0010                	0x10
 7f0:	0301                	addi	t1,t1,0
 7f2:	0905                	addi	s2,s2,1
 7f4:	0010                	0x10
 7f6:	0301                	addi	t1,t1,0
 7f8:	0905                	addi	s2,s2,1
 7fa:	0010                	0x10
 7fc:	0301                	addi	t1,t1,0
 7fe:	0905                	addi	s2,s2,1
 800:	0010                	0x10
 802:	0301                	addi	t1,t1,0
 804:	0905                	addi	s2,s2,1
 806:	0010                	0x10
 808:	0301                	addi	t1,t1,0
 80a:	0905                	addi	s2,s2,1
 80c:	0010                	0x10
 80e:	0301                	addi	t1,t1,0
 810:	0905                	addi	s2,s2,1
 812:	0010                	0x10
 814:	0301                	addi	t1,t1,0
 816:	0905                	addi	s2,s2,1
 818:	0010                	0x10
 81a:	0301                	addi	t1,t1,0
 81c:	0905                	addi	s2,s2,1
 81e:	0010                	0x10
 820:	0301                	addi	t1,t1,0
 822:	0905                	addi	s2,s2,1
 824:	0010                	0x10
 826:	0301                	addi	t1,t1,0
 828:	0905                	addi	s2,s2,1
 82a:	0010                	0x10
 82c:	0301                	addi	t1,t1,0
 82e:	0905                	addi	s2,s2,1
 830:	0010                	0x10
 832:	0301                	addi	t1,t1,0
 834:	0905                	addi	s2,s2,1
 836:	0010                	0x10
 838:	0301                	addi	t1,t1,0
 83a:	0905                	addi	s2,s2,1
 83c:	0010                	0x10
 83e:	0301                	addi	t1,t1,0
 840:	0905                	addi	s2,s2,1
 842:	0010                	0x10
 844:	0301                	addi	t1,t1,0
 846:	0905                	addi	s2,s2,1
 848:	0010                	0x10
 84a:	0301                	addi	t1,t1,0
 84c:	0905                	addi	s2,s2,1
 84e:	0010                	0x10
 850:	0301                	addi	t1,t1,0
 852:	0905                	addi	s2,s2,1
 854:	0010                	0x10
 856:	0301                	addi	t1,t1,0
 858:	0905                	addi	s2,s2,1
 85a:	0010                	0x10
 85c:	0301                	addi	t1,t1,0
 85e:	0905                	addi	s2,s2,1
 860:	0010                	0x10
 862:	0301                	addi	t1,t1,0
 864:	0905                	addi	s2,s2,1
 866:	0010                	0x10
 868:	0301                	addi	t1,t1,0
 86a:	0905                	addi	s2,s2,1
 86c:	0010                	0x10
 86e:	0301                	addi	t1,t1,0
 870:	0905                	addi	s2,s2,1
 872:	0010                	0x10
 874:	0301                	addi	t1,t1,0
 876:	0905                	addi	s2,s2,1
 878:	0010                	0x10
 87a:	0301                	addi	t1,t1,0
 87c:	0905                	addi	s2,s2,1
 87e:	0010                	0x10
 880:	0301                	addi	t1,t1,0
 882:	0905                	addi	s2,s2,1
 884:	0010                	0x10
 886:	0301                	addi	t1,t1,0
 888:	0905                	addi	s2,s2,1
 88a:	0010                	0x10
 88c:	0301                	addi	t1,t1,0
 88e:	0905                	addi	s2,s2,1
 890:	0010                	0x10
 892:	0301                	addi	t1,t1,0
 894:	0905                	addi	s2,s2,1
 896:	0010                	0x10
 898:	0301                	addi	t1,t1,0
 89a:	0905                	addi	s2,s2,1
 89c:	0010                	0x10
 89e:	0301                	addi	t1,t1,0
 8a0:	0905                	addi	s2,s2,1
 8a2:	0010                	0x10
 8a4:	0301                	addi	t1,t1,0
 8a6:	0905                	addi	s2,s2,1
 8a8:	0010                	0x10
 8aa:	0301                	addi	t1,t1,0
 8ac:	0905                	addi	s2,s2,1
 8ae:	0010                	0x10
 8b0:	0301                	addi	t1,t1,0
 8b2:	0905                	addi	s2,s2,1
 8b4:	0010                	0x10
 8b6:	0301                	addi	t1,t1,0
 8b8:	0905                	addi	s2,s2,1
 8ba:	0010                	0x10
 8bc:	0301                	addi	t1,t1,0
 8be:	0905                	addi	s2,s2,1
 8c0:	0010                	0x10
 8c2:	0301                	addi	t1,t1,0
 8c4:	0905                	addi	s2,s2,1
 8c6:	0010                	0x10
 8c8:	0301                	addi	t1,t1,0
 8ca:	0905                	addi	s2,s2,1
 8cc:	0010                	0x10
 8ce:	0301                	addi	t1,t1,0
 8d0:	0905                	addi	s2,s2,1
 8d2:	0010                	0x10
 8d4:	0301                	addi	t1,t1,0
 8d6:	0905                	addi	s2,s2,1
 8d8:	0010                	0x10
 8da:	0301                	addi	t1,t1,0
 8dc:	0905                	addi	s2,s2,1
 8de:	0010                	0x10
 8e0:	0301                	addi	t1,t1,0
 8e2:	0905                	addi	s2,s2,1
 8e4:	0010                	0x10
 8e6:	0301                	addi	t1,t1,0
 8e8:	0905                	addi	s2,s2,1
 8ea:	0010                	0x10
 8ec:	0301                	addi	t1,t1,0
 8ee:	0905                	addi	s2,s2,1
 8f0:	0010                	0x10
 8f2:	0301                	addi	t1,t1,0
 8f4:	0905                	addi	s2,s2,1
 8f6:	0010                	0x10
 8f8:	0301                	addi	t1,t1,0
 8fa:	0905                	addi	s2,s2,1
 8fc:	0010                	0x10
 8fe:	0301                	addi	t1,t1,0
 900:	0905                	addi	s2,s2,1
 902:	0010                	0x10
 904:	0301                	addi	t1,t1,0
 906:	0905                	addi	s2,s2,1
 908:	0010                	0x10
 90a:	0301                	addi	t1,t1,0
 90c:	0905                	addi	s2,s2,1
 90e:	0010                	0x10
 910:	0301                	addi	t1,t1,0
 912:	0905                	addi	s2,s2,1
 914:	0010                	0x10
 916:	0301                	addi	t1,t1,0
 918:	0905                	addi	s2,s2,1
 91a:	0010                	0x10
 91c:	0301                	addi	t1,t1,0
 91e:	0905                	addi	s2,s2,1
 920:	0010                	0x10
 922:	0301                	addi	t1,t1,0
 924:	0905                	addi	s2,s2,1
 926:	0010                	0x10
 928:	0301                	addi	t1,t1,0
 92a:	0905                	addi	s2,s2,1
 92c:	0010                	0x10
 92e:	0301                	addi	t1,t1,0
 930:	0905                	addi	s2,s2,1
 932:	0010                	0x10
 934:	0301                	addi	t1,t1,0
 936:	0905                	addi	s2,s2,1
 938:	0010                	0x10
 93a:	0301                	addi	t1,t1,0
 93c:	0905                	addi	s2,s2,1
 93e:	0010                	0x10
 940:	0301                	addi	t1,t1,0
 942:	0905                	addi	s2,s2,1
 944:	0010                	0x10
 946:	0301                	addi	t1,t1,0
 948:	0905                	addi	s2,s2,1
 94a:	0010                	0x10
 94c:	0301                	addi	t1,t1,0
 94e:	0905                	addi	s2,s2,1
 950:	0010                	0x10
 952:	0301                	addi	t1,t1,0
 954:	0905                	addi	s2,s2,1
 956:	0010                	0x10
 958:	0301                	addi	t1,t1,0
 95a:	0905                	addi	s2,s2,1
 95c:	0010                	0x10
 95e:	0301                	addi	t1,t1,0
 960:	0905                	addi	s2,s2,1
 962:	0010                	0x10
 964:	0301                	addi	t1,t1,0
 966:	0905                	addi	s2,s2,1
 968:	0010                	0x10
 96a:	0301                	addi	t1,t1,0
 96c:	0905                	addi	s2,s2,1
 96e:	0010                	0x10
 970:	0301                	addi	t1,t1,0
 972:	0905                	addi	s2,s2,1
 974:	0010                	0x10
 976:	0301                	addi	t1,t1,0
 978:	0905                	addi	s2,s2,1
 97a:	0010                	0x10
 97c:	0301                	addi	t1,t1,0
 97e:	0905                	addi	s2,s2,1
 980:	0010                	0x10
 982:	0301                	addi	t1,t1,0
 984:	0905                	addi	s2,s2,1
 986:	000c                	0xc
 988:	0301                	addi	t1,t1,0
 98a:	0905                	addi	s2,s2,1
 98c:	000c                	0xc
 98e:	0301                	addi	t1,t1,0
 990:	0905                	addi	s2,s2,1
 992:	000c                	0xc
 994:	0301                	addi	t1,t1,0
 996:	0905                	addi	s2,s2,1
 998:	000c                	0xc
 99a:	0301                	addi	t1,t1,0
 99c:	0905                	addi	s2,s2,1
 99e:	000c                	0xc
 9a0:	0301                	addi	t1,t1,0
 9a2:	0905                	addi	s2,s2,1
 9a4:	000c                	0xc
 9a6:	0301                	addi	t1,t1,0
 9a8:	0905                	addi	s2,s2,1
 9aa:	000c                	0xc
 9ac:	0301                	addi	t1,t1,0
 9ae:	0905                	addi	s2,s2,1
 9b0:	000c                	0xc
 9b2:	0301                	addi	t1,t1,0
 9b4:	0905                	addi	s2,s2,1
 9b6:	000c                	0xc
 9b8:	0301                	addi	t1,t1,0
 9ba:	0905                	addi	s2,s2,1
 9bc:	000c                	0xc
 9be:	0301                	addi	t1,t1,0
 9c0:	0905                	addi	s2,s2,1
 9c2:	000c                	0xc
 9c4:	0301                	addi	t1,t1,0
 9c6:	0905                	addi	s2,s2,1
 9c8:	000c                	0xc
 9ca:	0301                	addi	t1,t1,0
 9cc:	0905                	addi	s2,s2,1
 9ce:	000c                	0xc
 9d0:	0301                	addi	t1,t1,0
 9d2:	0905                	addi	s2,s2,1
 9d4:	000c                	0xc
 9d6:	0301                	addi	t1,t1,0
 9d8:	0905                	addi	s2,s2,1
 9da:	000c                	0xc
 9dc:	0301                	addi	t1,t1,0
 9de:	0905                	addi	s2,s2,1
 9e0:	000c                	0xc
 9e2:	0301                	addi	t1,t1,0
 9e4:	0905                	addi	s2,s2,1
 9e6:	000c                	0xc
 9e8:	0301                	addi	t1,t1,0
 9ea:	0905                	addi	s2,s2,1
 9ec:	000c                	0xc
 9ee:	0301                	addi	t1,t1,0
 9f0:	0905                	addi	s2,s2,1
 9f2:	000c                	0xc
 9f4:	0301                	addi	t1,t1,0
 9f6:	0905                	addi	s2,s2,1
 9f8:	000c                	0xc
 9fa:	0301                	addi	t1,t1,0
 9fc:	0905                	addi	s2,s2,1
 9fe:	000c                	0xc
 a00:	0301                	addi	t1,t1,0
 a02:	0905                	addi	s2,s2,1
 a04:	000c                	0xc
 a06:	0301                	addi	t1,t1,0
 a08:	0905                	addi	s2,s2,1
 a0a:	000c                	0xc
 a0c:	0301                	addi	t1,t1,0
 a0e:	0905                	addi	s2,s2,1
 a10:	000c                	0xc
 a12:	0301                	addi	t1,t1,0
 a14:	0905                	addi	s2,s2,1
 a16:	000c                	0xc
 a18:	0301                	addi	t1,t1,0
 a1a:	0905                	addi	s2,s2,1
 a1c:	000c                	0xc
 a1e:	0301                	addi	t1,t1,0
 a20:	0905                	addi	s2,s2,1
 a22:	000c                	0xc
 a24:	0301                	addi	t1,t1,0
 a26:	0905                	addi	s2,s2,1
 a28:	000c                	0xc
 a2a:	0301                	addi	t1,t1,0
 a2c:	0905                	addi	s2,s2,1
 a2e:	000c                	0xc
 a30:	0301                	addi	t1,t1,0
 a32:	0905                	addi	s2,s2,1
 a34:	000c                	0xc
 a36:	0301                	addi	t1,t1,0
 a38:	0905                	addi	s2,s2,1
 a3a:	000c                	0xc
 a3c:	0301                	addi	t1,t1,0
 a3e:	0905                	addi	s2,s2,1
 a40:	000c                	0xc
 a42:	0301                	addi	t1,t1,0
 a44:	0905                	addi	s2,s2,1
 a46:	000c                	0xc
 a48:	0301                	addi	t1,t1,0
 a4a:	0905                	addi	s2,s2,1
 a4c:	000c                	0xc
 a4e:	0301                	addi	t1,t1,0
 a50:	0905                	addi	s2,s2,1
 a52:	000c                	0xc
 a54:	0301                	addi	t1,t1,0
 a56:	0905                	addi	s2,s2,1
 a58:	000c                	0xc
 a5a:	0301                	addi	t1,t1,0
 a5c:	0905                	addi	s2,s2,1
 a5e:	0010                	0x10
 a60:	0301                	addi	t1,t1,0
 a62:	0905                	addi	s2,s2,1
 a64:	0010                	0x10
 a66:	0301                	addi	t1,t1,0
 a68:	0905                	addi	s2,s2,1
 a6a:	0010                	0x10
 a6c:	0301                	addi	t1,t1,0
 a6e:	0905                	addi	s2,s2,1
 a70:	0010                	0x10
 a72:	0301                	addi	t1,t1,0
 a74:	0905                	addi	s2,s2,1
 a76:	0010                	0x10
 a78:	0301                	addi	t1,t1,0
 a7a:	0905                	addi	s2,s2,1
 a7c:	0010                	0x10
 a7e:	0301                	addi	t1,t1,0
 a80:	0905                	addi	s2,s2,1
 a82:	0010                	0x10
 a84:	0301                	addi	t1,t1,0
 a86:	0905                	addi	s2,s2,1
 a88:	0010                	0x10
 a8a:	0301                	addi	t1,t1,0
 a8c:	0905                	addi	s2,s2,1
 a8e:	0010                	0x10
 a90:	0301                	addi	t1,t1,0
 a92:	0905                	addi	s2,s2,1
 a94:	0010                	0x10
 a96:	0301                	addi	t1,t1,0
 a98:	0905                	addi	s2,s2,1
 a9a:	0010                	0x10
 a9c:	0301                	addi	t1,t1,0
 a9e:	0905                	addi	s2,s2,1
 aa0:	0010                	0x10
 aa2:	0301                	addi	t1,t1,0
 aa4:	0905                	addi	s2,s2,1
 aa6:	0010                	0x10
 aa8:	0301                	addi	t1,t1,0
 aaa:	0905                	addi	s2,s2,1
 aac:	0010                	0x10
 aae:	0301                	addi	t1,t1,0
 ab0:	0905                	addi	s2,s2,1
 ab2:	0010                	0x10
 ab4:	0301                	addi	t1,t1,0
 ab6:	0905                	addi	s2,s2,1
 ab8:	0010                	0x10
 aba:	0301                	addi	t1,t1,0
 abc:	0905                	addi	s2,s2,1
 abe:	0010                	0x10
 ac0:	0301                	addi	t1,t1,0
 ac2:	0905                	addi	s2,s2,1
 ac4:	0010                	0x10
 ac6:	0301                	addi	t1,t1,0
 ac8:	0905                	addi	s2,s2,1
 aca:	0010                	0x10
 acc:	0301                	addi	t1,t1,0
 ace:	0905                	addi	s2,s2,1
 ad0:	0010                	0x10
 ad2:	0301                	addi	t1,t1,0
 ad4:	0905                	addi	s2,s2,1
 ad6:	0010                	0x10
 ad8:	0301                	addi	t1,t1,0
 ada:	0905                	addi	s2,s2,1
 adc:	0010                	0x10
 ade:	0301                	addi	t1,t1,0
 ae0:	0905                	addi	s2,s2,1
 ae2:	0010                	0x10
 ae4:	0301                	addi	t1,t1,0
 ae6:	0905                	addi	s2,s2,1
 ae8:	0010                	0x10
 aea:	0301                	addi	t1,t1,0
 aec:	0905                	addi	s2,s2,1
 aee:	0010                	0x10
 af0:	0301                	addi	t1,t1,0
 af2:	0905                	addi	s2,s2,1
 af4:	0010                	0x10
 af6:	0301                	addi	t1,t1,0
 af8:	0905                	addi	s2,s2,1
 afa:	0010                	0x10
 afc:	0301                	addi	t1,t1,0
 afe:	0905                	addi	s2,s2,1
 b00:	0010                	0x10
 b02:	0301                	addi	t1,t1,0
 b04:	0905                	addi	s2,s2,1
 b06:	0010                	0x10
 b08:	0301                	addi	t1,t1,0
 b0a:	0905                	addi	s2,s2,1
 b0c:	0010                	0x10
 b0e:	0301                	addi	t1,t1,0
 b10:	0905                	addi	s2,s2,1
 b12:	0010                	0x10
 b14:	0301                	addi	t1,t1,0
 b16:	0905                	addi	s2,s2,1
 b18:	0010                	0x10
 b1a:	0301                	addi	t1,t1,0
 b1c:	0905                	addi	s2,s2,1
 b1e:	0010                	0x10
 b20:	0301                	addi	t1,t1,0
 b22:	0905                	addi	s2,s2,1
 b24:	0010                	0x10
 b26:	0301                	addi	t1,t1,0
 b28:	0905                	addi	s2,s2,1
 b2a:	0010                	0x10
 b2c:	0301                	addi	t1,t1,0
 b2e:	0905                	addi	s2,s2,1
 b30:	0010                	0x10
 b32:	0301                	addi	t1,t1,0
 b34:	0905                	addi	s2,s2,1
 b36:	0010                	0x10
 b38:	0301                	addi	t1,t1,0
 b3a:	0905                	addi	s2,s2,1
 b3c:	0010                	0x10
 b3e:	0301                	addi	t1,t1,0
 b40:	0905                	addi	s2,s2,1
 b42:	0010                	0x10
 b44:	0301                	addi	t1,t1,0
 b46:	0905                	addi	s2,s2,1
 b48:	0010                	0x10
 b4a:	0301                	addi	t1,t1,0
 b4c:	0905                	addi	s2,s2,1
 b4e:	0010                	0x10
 b50:	0301                	addi	t1,t1,0
 b52:	0905                	addi	s2,s2,1
 b54:	0010                	0x10
 b56:	0301                	addi	t1,t1,0
 b58:	0905                	addi	s2,s2,1
 b5a:	0010                	0x10
 b5c:	0301                	addi	t1,t1,0
 b5e:	0905                	addi	s2,s2,1
 b60:	0010                	0x10
 b62:	0301                	addi	t1,t1,0
 b64:	0905                	addi	s2,s2,1
 b66:	0010                	0x10
 b68:	0301                	addi	t1,t1,0
 b6a:	0905                	addi	s2,s2,1
 b6c:	0010                	0x10
 b6e:	0301                	addi	t1,t1,0
 b70:	0905                	addi	s2,s2,1
 b72:	0010                	0x10
 b74:	0301                	addi	t1,t1,0
 b76:	0905                	addi	s2,s2,1
 b78:	0010                	0x10
 b7a:	0301                	addi	t1,t1,0
 b7c:	0905                	addi	s2,s2,1
 b7e:	0010                	0x10
 b80:	0301                	addi	t1,t1,0
 b82:	0905                	addi	s2,s2,1
 b84:	0010                	0x10
 b86:	0301                	addi	t1,t1,0
 b88:	0905                	addi	s2,s2,1
 b8a:	0010                	0x10
 b8c:	0301                	addi	t1,t1,0
 b8e:	0905                	addi	s2,s2,1
 b90:	0010                	0x10
 b92:	0301                	addi	t1,t1,0
 b94:	0905                	addi	s2,s2,1
 b96:	0010                	0x10
 b98:	0301                	addi	t1,t1,0
 b9a:	0905                	addi	s2,s2,1
 b9c:	0010                	0x10
 b9e:	0301                	addi	t1,t1,0
 ba0:	0905                	addi	s2,s2,1
 ba2:	0010                	0x10
 ba4:	0301                	addi	t1,t1,0
 ba6:	0905                	addi	s2,s2,1
 ba8:	0010                	0x10
 baa:	0301                	addi	t1,t1,0
 bac:	0905                	addi	s2,s2,1
 bae:	0010                	0x10
 bb0:	0301                	addi	t1,t1,0
 bb2:	0905                	addi	s2,s2,1
 bb4:	0010                	0x10
 bb6:	0301                	addi	t1,t1,0
 bb8:	0905                	addi	s2,s2,1
 bba:	0010                	0x10
 bbc:	0301                	addi	t1,t1,0
 bbe:	0905                	addi	s2,s2,1
 bc0:	0010                	0x10
 bc2:	0301                	addi	t1,t1,0
 bc4:	0905                	addi	s2,s2,1
 bc6:	0010                	0x10
 bc8:	0301                	addi	t1,t1,0
 bca:	0905                	addi	s2,s2,1
 bcc:	0010                	0x10
 bce:	0301                	addi	t1,t1,0
 bd0:	0905                	addi	s2,s2,1
 bd2:	0010                	0x10
 bd4:	0301                	addi	t1,t1,0
 bd6:	0905                	addi	s2,s2,1
 bd8:	0010                	0x10
 bda:	0301                	addi	t1,t1,0
 bdc:	0905                	addi	s2,s2,1
 bde:	0010                	0x10
 be0:	0301                	addi	t1,t1,0
 be2:	0905                	addi	s2,s2,1
 be4:	0010                	0x10
 be6:	0301                	addi	t1,t1,0
 be8:	0905                	addi	s2,s2,1
 bea:	0010                	0x10
 bec:	0301                	addi	t1,t1,0
 bee:	0905                	addi	s2,s2,1
 bf0:	0010                	0x10
 bf2:	0301                	addi	t1,t1,0
 bf4:	0905                	addi	s2,s2,1
 bf6:	0010                	0x10
 bf8:	0301                	addi	t1,t1,0
 bfa:	0905                	addi	s2,s2,1
 bfc:	0010                	0x10
 bfe:	0301                	addi	t1,t1,0
 c00:	0905                	addi	s2,s2,1
 c02:	0010                	0x10
 c04:	0301                	addi	t1,t1,0
 c06:	0905                	addi	s2,s2,1
 c08:	0010                	0x10
 c0a:	0301                	addi	t1,t1,0
 c0c:	0905                	addi	s2,s2,1
 c0e:	0010                	0x10
 c10:	0301                	addi	t1,t1,0
 c12:	0905                	addi	s2,s2,1
 c14:	0010                	0x10
 c16:	0301                	addi	t1,t1,0
 c18:	0905                	addi	s2,s2,1
 c1a:	0010                	0x10
 c1c:	0301                	addi	t1,t1,0
 c1e:	0905                	addi	s2,s2,1
 c20:	0010                	0x10
 c22:	0301                	addi	t1,t1,0
 c24:	0905                	addi	s2,s2,1
 c26:	0010                	0x10
 c28:	0301                	addi	t1,t1,0
 c2a:	0905                	addi	s2,s2,1
 c2c:	0010                	0x10
 c2e:	0301                	addi	t1,t1,0
 c30:	0905                	addi	s2,s2,1
 c32:	0010                	0x10
 c34:	0301                	addi	t1,t1,0
 c36:	0905                	addi	s2,s2,1
 c38:	0010                	0x10
 c3a:	0301                	addi	t1,t1,0
 c3c:	0905                	addi	s2,s2,1
 c3e:	0010                	0x10
 c40:	0301                	addi	t1,t1,0
 c42:	0905                	addi	s2,s2,1
 c44:	0010                	0x10
 c46:	0301                	addi	t1,t1,0
 c48:	0905                	addi	s2,s2,1
 c4a:	0010                	0x10
 c4c:	0301                	addi	t1,t1,0
 c4e:	0905                	addi	s2,s2,1
 c50:	0010                	0x10
 c52:	0301                	addi	t1,t1,0
 c54:	0905                	addi	s2,s2,1
 c56:	0010                	0x10
 c58:	0301                	addi	t1,t1,0
 c5a:	0905                	addi	s2,s2,1
 c5c:	0010                	0x10
 c5e:	0301                	addi	t1,t1,0
 c60:	0905                	addi	s2,s2,1
 c62:	0010                	0x10
 c64:	0301                	addi	t1,t1,0
 c66:	0905                	addi	s2,s2,1
 c68:	0010                	0x10
 c6a:	0301                	addi	t1,t1,0
 c6c:	0905                	addi	s2,s2,1
 c6e:	0010                	0x10
 c70:	0301                	addi	t1,t1,0
 c72:	0905                	addi	s2,s2,1
 c74:	0010                	0x10
 c76:	0301                	addi	t1,t1,0
 c78:	0905                	addi	s2,s2,1
 c7a:	0010                	0x10
 c7c:	0301                	addi	t1,t1,0
 c7e:	0905                	addi	s2,s2,1
 c80:	0010                	0x10
 c82:	0301                	addi	t1,t1,0
 c84:	0905                	addi	s2,s2,1
 c86:	0010                	0x10
 c88:	0301                	addi	t1,t1,0
 c8a:	0905                	addi	s2,s2,1
 c8c:	0010                	0x10
 c8e:	0301                	addi	t1,t1,0
 c90:	0905                	addi	s2,s2,1
 c92:	0010                	0x10
 c94:	0301                	addi	t1,t1,0
 c96:	0905                	addi	s2,s2,1
 c98:	0010                	0x10
 c9a:	0301                	addi	t1,t1,0
 c9c:	0905                	addi	s2,s2,1
 c9e:	0010                	0x10
 ca0:	0301                	addi	t1,t1,0
 ca2:	0905                	addi	s2,s2,1
 ca4:	0010                	0x10
 ca6:	0301                	addi	t1,t1,0
 ca8:	0905                	addi	s2,s2,1
 caa:	0010                	0x10
 cac:	0301                	addi	t1,t1,0
 cae:	0905                	addi	s2,s2,1
 cb0:	0010                	0x10
 cb2:	0301                	addi	t1,t1,0
 cb4:	0905                	addi	s2,s2,1
 cb6:	0010                	0x10
 cb8:	0301                	addi	t1,t1,0
 cba:	0905                	addi	s2,s2,1
 cbc:	0010                	0x10
 cbe:	0301                	addi	t1,t1,0
 cc0:	0905                	addi	s2,s2,1
 cc2:	0010                	0x10
 cc4:	0301                	addi	t1,t1,0
 cc6:	0905                	addi	s2,s2,1
 cc8:	0010                	0x10
 cca:	0301                	addi	t1,t1,0
 ccc:	0905                	addi	s2,s2,1
 cce:	0010                	0x10
 cd0:	0301                	addi	t1,t1,0
 cd2:	0905                	addi	s2,s2,1
 cd4:	0010                	0x10
 cd6:	0301                	addi	t1,t1,0
 cd8:	0905                	addi	s2,s2,1
 cda:	0010                	0x10
 cdc:	0301                	addi	t1,t1,0
 cde:	0905                	addi	s2,s2,1
 ce0:	0010                	0x10
 ce2:	0301                	addi	t1,t1,0
 ce4:	0905                	addi	s2,s2,1
 ce6:	0010                	0x10
 ce8:	0301                	addi	t1,t1,0
 cea:	0905                	addi	s2,s2,1
 cec:	0010                	0x10
 cee:	0301                	addi	t1,t1,0
 cf0:	0905                	addi	s2,s2,1
 cf2:	000c                	0xc
 cf4:	0301                	addi	t1,t1,0
 cf6:	0905                	addi	s2,s2,1
 cf8:	000c                	0xc
 cfa:	0301                	addi	t1,t1,0
 cfc:	0905                	addi	s2,s2,1
 cfe:	000c                	0xc
 d00:	0301                	addi	t1,t1,0
 d02:	0905                	addi	s2,s2,1
 d04:	000c                	0xc
 d06:	0301                	addi	t1,t1,0
 d08:	0905                	addi	s2,s2,1
 d0a:	000c                	0xc
 d0c:	0301                	addi	t1,t1,0
 d0e:	0905                	addi	s2,s2,1
 d10:	000c                	0xc
 d12:	0301                	addi	t1,t1,0
 d14:	0905                	addi	s2,s2,1
 d16:	000c                	0xc
 d18:	0301                	addi	t1,t1,0
 d1a:	0905                	addi	s2,s2,1
 d1c:	000c                	0xc
 d1e:	0301                	addi	t1,t1,0
 d20:	0901                	addi	s2,s2,0
 d22:	000c                	0xc
 d24:	0301                	addi	t1,t1,0
 d26:	0905                	addi	s2,s2,1
 d28:	0008                	0x8
 d2a:	0301                	addi	t1,t1,0
 d2c:	0905                	addi	s2,s2,1
 d2e:	000c                	0xc
 d30:	0301                	addi	t1,t1,0
 d32:	0905                	addi	s2,s2,1
 d34:	000c                	0xc
 d36:	0301                	addi	t1,t1,0
 d38:	0905                	addi	s2,s2,1
 d3a:	000c                	0xc
 d3c:	0301                	addi	t1,t1,0
 d3e:	0905                	addi	s2,s2,1
 d40:	000c                	0xc
 d42:	0301                	addi	t1,t1,0
 d44:	0905                	addi	s2,s2,1
 d46:	000c                	0xc
 d48:	0301                	addi	t1,t1,0
 d4a:	0905                	addi	s2,s2,1
 d4c:	000c                	0xc
 d4e:	0301                	addi	t1,t1,0
 d50:	0905                	addi	s2,s2,1
 d52:	000c                	0xc
 d54:	0301                	addi	t1,t1,0
 d56:	0905                	addi	s2,s2,1
 d58:	000c                	0xc
 d5a:	0301                	addi	t1,t1,0
 d5c:	0905                	addi	s2,s2,1
 d5e:	000c                	0xc
 d60:	0301                	addi	t1,t1,0
 d62:	0905                	addi	s2,s2,1
 d64:	000c                	0xc
 d66:	0301                	addi	t1,t1,0
 d68:	0905                	addi	s2,s2,1
 d6a:	000c                	0xc
 d6c:	0301                	addi	t1,t1,0
 d6e:	0905                	addi	s2,s2,1
 d70:	000c                	0xc
 d72:	0301                	addi	t1,t1,0
 d74:	0905                	addi	s2,s2,1
 d76:	000c                	0xc
 d78:	0301                	addi	t1,t1,0
 d7a:	0905                	addi	s2,s2,1
 d7c:	0010                	0x10
 d7e:	0301                	addi	t1,t1,0
 d80:	0905                	addi	s2,s2,1
 d82:	0010                	0x10
 d84:	0301                	addi	t1,t1,0
 d86:	0905                	addi	s2,s2,1
 d88:	0010                	0x10
 d8a:	0301                	addi	t1,t1,0
 d8c:	0905                	addi	s2,s2,1
 d8e:	0010                	0x10
 d90:	0301                	addi	t1,t1,0
 d92:	0905                	addi	s2,s2,1
 d94:	0010                	0x10
 d96:	0301                	addi	t1,t1,0
 d98:	0905                	addi	s2,s2,1
 d9a:	0010                	0x10
 d9c:	0301                	addi	t1,t1,0
 d9e:	0905                	addi	s2,s2,1
 da0:	0010                	0x10
 da2:	0301                	addi	t1,t1,0
 da4:	0905                	addi	s2,s2,1
 da6:	0010                	0x10
 da8:	0301                	addi	t1,t1,0
 daa:	0905                	addi	s2,s2,1
 dac:	0010                	0x10
 dae:	0301                	addi	t1,t1,0
 db0:	0905                	addi	s2,s2,1
 db2:	0010                	0x10
 db4:	0301                	addi	t1,t1,0
 db6:	0905                	addi	s2,s2,1
 db8:	0010                	0x10
 dba:	0301                	addi	t1,t1,0
 dbc:	0904                	addi	s1,sp,144
 dbe:	0010                	0x10
 dc0:	0301                	addi	t1,t1,0
 dc2:	0901                	addi	s2,s2,0
 dc4:	0004                	0x4
 dc6:	0901                	addi	s2,s2,0
 dc8:	0010                	0x10
 dca:	0100                	addi	s0,sp,128
 dcc:	01              	Address 0x0000000000000dcc is out of bounds.


Disassembly of section .debug_info:

00000000 <.debug_info>:
   0:	0022                	c.slli	zero,0x8
   2:	0000                	unimp
   4:	0002                	c.slli64	zero
   6:	0000                	unimp
   8:	0000                	unimp
   a:	0104                	addi	s1,sp,128
   c:	0000                	unimp
   e:	0000                	unimp
  10:	0000                	unimp
  12:	8000                	0x8000
  14:	20dc                	fld	fa5,128(s1)
  16:	8000                	0x8000
  18:	0000                	unimp
  1a:	0000                	unimp
  1c:	005f 0000 00ad      	0xad0000005f
  22:	0000                	unimp
  24:	8001                	c.srli64	s0

Disassembly of section .debug_abbrev:

00000000 <.debug_abbrev>:
   0:	1101                	addi	sp,sp,-32
   2:	1000                	addi	s0,sp,32
   4:	1106                	slli	sp,sp,0x21
   6:	1201                	addi	tp,tp,-32
   8:	0301                	addi	t1,t1,0
   a:	1b0e                	slli	s6,s6,0x23
   c:	250e                	fld	fa0,192(sp)
   e:	130e                	slli	t1,t1,0x23
  10:	0005                	c.nop	1
	...

Disassembly of section .debug_aranges:

00000000 <.debug_aranges>:
   0:	001c                	0x1c
   2:	0000                	unimp
   4:	0002                	c.slli64	zero
   6:	0000                	unimp
   8:	0000                	unimp
   a:	0004                	0x4
   c:	0000                	unimp
   e:	0000                	unimp
  10:	0000                	unimp
  12:	8000                	0x8000
  14:	20dc                	fld	fa5,128(s1)
	...

Disassembly of section .debug_str:

00000000 <.debug_str>:
   0:	6d6f682f          	0x6d6f682f
   4:	2f65                	jal	7bc <offset+0x758>
   6:	6f6c                	flw	fa1,92(a4)
   8:	6976                	flw	fs2,92(sp)
   a:	65442f73          	csrrs	t5,0x654,s0
   e:	6f746b73          	csrrsi	s6,0x6f7,8
  12:	2f70                	fld	fa2,216(a4)
  14:	6952                	flw	fs2,20(sp)
  16:	6556                	flw	fa0,84(sp)
  18:	5f72                	lw	t5,60(sp)
  1a:	65726f63          	bltu	tp,s7,678 <offset+0x614>
  1e:	7369722f          	0x7369722f
  22:	2f666f63          	bltu	a2,s6,320 <offset+0x2bc>
  26:	6972                	flw	fs2,28(sp)
  28:	2d766373          	csrrsi	t1,0x2d7,12
  2c:	7261                	lui	tp,0xffff8
  2e:	742d6863          	bltu	s10,sp,77e <offset+0x71a>
  32:	7365                	lui	t1,0xffff9
  34:	2f74                	fld	fa3,216(a4)
  36:	6972                	flw	fs2,28(sp)
  38:	2d766373          	csrrsi	t1,0x2d7,12
  3c:	6574                	flw	fa3,76(a0)
  3e:	732d7473          	csrrci	s0,0x732,26
  42:	6975                	lui	s2,0x1d
  44:	6574                	flw	fa3,76(a0)
  46:	3376722f          	0x3376722f
  4a:	6932                	flw	fs2,12(sp)
  4c:	6d5f 492f 732f      	0x732f492f6d5f
  52:	6372                	flw	ft6,28(sp)
  54:	746c732f          	0x746c732f
  58:	2d69                	jal	6f2 <offset+0x68e>
  5a:	3130                	fld	fa2,96(a0)
  5c:	532e                	lw	t1,232(sp)
  5e:	2f00                	fld	fs0,24(a4)
  60:	6f68                	flw	fa0,92(a4)
  62:	656d                	lui	a0,0x1b
  64:	766f6c2f          	0x766f6c2f
  68:	7369                	lui	t1,0xffffa
  6a:	7365442f          	0x7365442f
  6e:	706f746b          	0x706f746b
  72:	5669522f          	0x5669522f
  76:	7265                	lui	tp,0xffff9
  78:	635f 726f 2f65      	0x2f65726f635f
  7e:	6972                	flw	fs2,28(sp)
  80:	666f6373          	csrrsi	t1,0x666,30
  84:	7369722f          	0x7369722f
  88:	5f666f63          	bltu	a2,s6,686 <offset+0x622>
  8c:	6b726f77          	0x6b726f77
  90:	3376722f          	0x3376722f
  94:	6932                	flw	fs2,12(sp)
  96:	6d5f 492f 732f      	0x732f492f6d5f
  9c:	6372                	flw	ft6,28(sp)
  9e:	746c732f          	0x746c732f
  a2:	2d69                	jal	73c <offset+0x6d8>
  a4:	3130                	fld	fa2,96(a0)
  a6:	532e                	lw	t1,232(sp)
  a8:	7475642f          	0x7475642f
  ac:	4700                	lw	s0,8(a4)
  ae:	554e                	lw	a0,240(sp)
  b0:	4120                	lw	s0,64(a0)
  b2:	2e322053          	0x2e322053
  b6:	          	snez	a0,zero
